
/home/pi/Downloads/pico/pico-6502/build/6502emu.elf:     file format elf32-littlearm

Sections:
Idx Name          Size      VMA       LMA       File off  Algn
  0 .boot2        00000100  10000000  10000000  00001000  2**0
                  CONTENTS, ALLOC, LOAD, READONLY, CODE
  1 .text         00009c98  10000100  10000100  00001100  2**3
                  CONTENTS, ALLOC, LOAD, READONLY, CODE
  2 .rodata       000024f8  10009d98  10009d98  0000ad98  2**3
                  CONTENTS, ALLOC, LOAD, READONLY, DATA
  3 .binary_info  00000020  1000c290  1000c290  0000d290  2**2
                  CONTENTS, ALLOC, LOAD, DATA
  4 .ram_vector_table 000000c0  20000000  20000000  00016500  2**2
                  CONTENTS
  5 .data         00008440  200000c0  1000c2b0  0000e0c0  2**4
                  CONTENTS, ALLOC, LOAD, CODE
  6 .uninitialized_data 00000000  20008500  20008500  000165c0  2**0
                  CONTENTS
  7 .scratch_x    00000000  20040000  20040000  000165c0  2**0
                  CONTENTS
  8 .scratch_y    00000000  20041000  20041000  000165c0  2**0
                  CONTENTS
  9 .bss          00010e14  20008500  20008500  00016500  2**3
                  ALLOC
 10 .heap         00000800  20019314  20019314  000165c0  2**2
                  CONTENTS, READONLY
 11 .stack_dummy  00000800  20041000  20041000  00016dc0  2**5
                  CONTENTS, READONLY
 12 .ARM.attributes 00000028  00000000  00000000  000175c0  2**0
                  CONTENTS, READONLY
 13 .comment      0000009f  00000000  00000000  000175e8  2**0
                  CONTENTS, READONLY
 14 .debug_info   000304bc  00000000  00000000  00017687  2**0
                  CONTENTS, READONLY, DEBUGGING, OCTETS
 15 .debug_abbrev 00007f98  00000000  00000000  00047b43  2**0
                  CONTENTS, READONLY, DEBUGGING, OCTETS
 16 .debug_loc    00017f00  00000000  00000000  0004fadb  2**0
                  CONTENTS, READONLY, DEBUGGING, OCTETS
 17 .debug_aranges 000018b0  00000000  00000000  000679e0  2**3
                  CONTENTS, READONLY, DEBUGGING, OCTETS
 18 .debug_ranges 000044b8  00000000  00000000  00069290  2**3
                  CONTENTS, READONLY, DEBUGGING, OCTETS
 19 .debug_line   00018591  00000000  00000000  0006d748  2**0
                  CONTENTS, READONLY, DEBUGGING, OCTETS
 20 .debug_str    000075ff  00000000  00000000  00085cd9  2**0
                  CONTENTS, READONLY, DEBUGGING, OCTETS
 21 .debug_frame  00003450  00000000  00000000  0008d2d8  2**2
                  CONTENTS, READONLY, DEBUGGING, OCTETS

/home/pi/Downloads/pico/pico-6502/build/6502emu.elf:     file format elf32-littlearm


Disassembly of section .boot2:

10000000 <__boot2_start__>:
10000000:	4b32b500 	.word	0x4b32b500
10000004:	60582021 	.word	0x60582021
10000008:	21026898 	.word	0x21026898
1000000c:	60984388 	.word	0x60984388
10000010:	611860d8 	.word	0x611860d8
10000014:	4b2e6158 	.word	0x4b2e6158
10000018:	60992100 	.word	0x60992100
1000001c:	61592102 	.word	0x61592102
10000020:	22f02101 	.word	0x22f02101
10000024:	492b5099 	.word	0x492b5099
10000028:	21016019 	.word	0x21016019
1000002c:	20356099 	.word	0x20356099
10000030:	f844f000 	.word	0xf844f000
10000034:	42902202 	.word	0x42902202
10000038:	2106d014 	.word	0x2106d014
1000003c:	f0006619 	.word	0xf0006619
10000040:	6e19f834 	.word	0x6e19f834
10000044:	66192101 	.word	0x66192101
10000048:	66182000 	.word	0x66182000
1000004c:	f000661a 	.word	0xf000661a
10000050:	6e19f82c 	.word	0x6e19f82c
10000054:	6e196e19 	.word	0x6e196e19
10000058:	f0002005 	.word	0xf0002005
1000005c:	2101f82f 	.word	0x2101f82f
10000060:	d1f94208 	.word	0xd1f94208
10000064:	60992100 	.word	0x60992100
10000068:	6019491b 	.word	0x6019491b
1000006c:	60592100 	.word	0x60592100
10000070:	481b491a 	.word	0x481b491a
10000074:	21016001 	.word	0x21016001
10000078:	21eb6099 	.word	0x21eb6099
1000007c:	21a06619 	.word	0x21a06619
10000080:	f0006619 	.word	0xf0006619
10000084:	2100f812 	.word	0x2100f812
10000088:	49166099 	.word	0x49166099
1000008c:	60014814 	.word	0x60014814
10000090:	60992101 	.word	0x60992101
10000094:	2800bc01 	.word	0x2800bc01
10000098:	4700d000 	.word	0x4700d000
1000009c:	49134812 	.word	0x49134812
100000a0:	c8036008 	.word	0xc8036008
100000a4:	8808f380 	.word	0x8808f380
100000a8:	b5034708 	.word	0xb5034708
100000ac:	20046a99 	.word	0x20046a99
100000b0:	d0fb4201 	.word	0xd0fb4201
100000b4:	42012001 	.word	0x42012001
100000b8:	bd03d1f8 	.word	0xbd03d1f8
100000bc:	6618b502 	.word	0x6618b502
100000c0:	f7ff6618 	.word	0xf7ff6618
100000c4:	6e18fff2 	.word	0x6e18fff2
100000c8:	bd026e18 	.word	0xbd026e18
100000cc:	40020000 	.word	0x40020000
100000d0:	18000000 	.word	0x18000000
100000d4:	00070000 	.word	0x00070000
100000d8:	005f0300 	.word	0x005f0300
100000dc:	00002221 	.word	0x00002221
100000e0:	180000f4 	.word	0x180000f4
100000e4:	a0002022 	.word	0xa0002022
100000e8:	10000100 	.word	0x10000100
100000ec:	e000ed08 	.word	0xe000ed08
	...
100000fc:	7a4eb274 	.word	0x7a4eb274

Disassembly of section .text:

10000100 <__VECTOR_TABLE>:
10000100:	20042000 	.word	0x20042000
10000104:	100001f7 	.word	0x100001f7
10000108:	100001c3 	.word	0x100001c3
1000010c:	100001c5 	.word	0x100001c5
10000110:	100001c1 	.word	0x100001c1
10000114:	100001c1 	.word	0x100001c1
10000118:	100001c1 	.word	0x100001c1
1000011c:	100001c1 	.word	0x100001c1
10000120:	100001c1 	.word	0x100001c1
10000124:	100001c1 	.word	0x100001c1
10000128:	100001c1 	.word	0x100001c1
1000012c:	100001c7 	.word	0x100001c7
10000130:	100001c1 	.word	0x100001c1
10000134:	100001c1 	.word	0x100001c1
10000138:	100001c9 	.word	0x100001c9
1000013c:	100001cb 	.word	0x100001cb
10000140:	100001cd 	.word	0x100001cd
10000144:	100001cd 	.word	0x100001cd
10000148:	100001cd 	.word	0x100001cd
1000014c:	100001cd 	.word	0x100001cd
10000150:	100001cd 	.word	0x100001cd
10000154:	100001cd 	.word	0x100001cd
10000158:	100001cd 	.word	0x100001cd
1000015c:	100001cd 	.word	0x100001cd
10000160:	100001cd 	.word	0x100001cd
10000164:	100001cd 	.word	0x100001cd
10000168:	100001cd 	.word	0x100001cd
1000016c:	100001cd 	.word	0x100001cd
10000170:	100001cd 	.word	0x100001cd
10000174:	100001cd 	.word	0x100001cd
10000178:	100001cd 	.word	0x100001cd
1000017c:	100001cd 	.word	0x100001cd
10000180:	100001cd 	.word	0x100001cd
10000184:	100001cd 	.word	0x100001cd
10000188:	100001cd 	.word	0x100001cd
1000018c:	100001cd 	.word	0x100001cd
10000190:	100001cd 	.word	0x100001cd
10000194:	100001cd 	.word	0x100001cd
10000198:	100001cd 	.word	0x100001cd
1000019c:	100001cd 	.word	0x100001cd
100001a0:	100001cd 	.word	0x100001cd
100001a4:	100001cd 	.word	0x100001cd
100001a8:	100001cd 	.word	0x100001cd
100001ac:	100001cd 	.word	0x100001cd
100001b0:	100001cd 	.word	0x100001cd
100001b4:	100001cd 	.word	0x100001cd
100001b8:	100001cd 	.word	0x100001cd
100001bc:	100001cd 	.word	0x100001cd

100001c0 <isr_invalid>:
100001c0:	be00      	bkpt	0x0000

100001c2 <isr_nmi>:
100001c2:	be00      	bkpt	0x0000

100001c4 <isr_hardfault>:
100001c4:	be00      	bkpt	0x0000

100001c6 <isr_svcall>:
100001c6:	be00      	bkpt	0x0000

100001c8 <isr_pendsv>:
100001c8:	be00      	bkpt	0x0000

100001ca <isr_systick>:
100001ca:	be00      	bkpt	0x0000

100001cc <__unhandled_user_irq>:
100001cc:	f000 f84b 	bl	10000266 <__get_current_exception>
100001d0:	3810      	subs	r0, #16

100001d2 <unhandled_user_irq_num_in_r0>:
100001d2:	be00      	bkpt	0x0000

100001d4 <binary_info_header>:
100001d4:	7188ebf2 	.word	0x7188ebf2
100001d8:	1000c290 	.word	0x1000c290
100001dc:	1000c2b0 	.word	0x1000c2b0
100001e0:	10000234 	.word	0x10000234
100001e4:	e71aa390 	.word	0xe71aa390

100001e8 <_entry_point>:
100001e8:	2000      	movs	r0, #0
100001ea:	4921      	ldr	r1, [pc, #132]	; (10000270 <__get_current_exception+0xa>)
100001ec:	6008      	str	r0, [r1, #0]
100001ee:	c806      	ldmia	r0!, {r1, r2}
100001f0:	f381 8808 	msr	MSP, r1
100001f4:	4710      	bx	r2

100001f6 <_reset_handler>:
100001f6:	481f      	ldr	r0, [pc, #124]	; (10000274 <__get_current_exception+0xe>)
100001f8:	6800      	ldr	r0, [r0, #0]
100001fa:	2800      	cmp	r0, #0
100001fc:	d12f      	bne.n	1000025e <hold_non_core0_in_bootrom>
100001fe:	a40d      	add	r4, pc, #52	; (adr r4, 10000234 <data_cpy_table>)
10000200:	cc0e      	ldmia	r4!, {r1, r2, r3}
10000202:	2900      	cmp	r1, #0
10000204:	d002      	beq.n	1000020c <_reset_handler+0x16>
10000206:	f000 f812 	bl	1000022e <data_cpy>
1000020a:	e7f9      	b.n	10000200 <_reset_handler+0xa>
1000020c:	491a      	ldr	r1, [pc, #104]	; (10000278 <__get_current_exception+0x12>)
1000020e:	4a1b      	ldr	r2, [pc, #108]	; (1000027c <__get_current_exception+0x16>)
10000210:	2000      	movs	r0, #0
10000212:	e000      	b.n	10000216 <bss_fill_test>

10000214 <bss_fill_loop>:
10000214:	c101      	stmia	r1!, {r0}

10000216 <bss_fill_test>:
10000216:	4291      	cmp	r1, r2
10000218:	d1fc      	bne.n	10000214 <bss_fill_loop>

1000021a <platform_entry>:
1000021a:	4919      	ldr	r1, [pc, #100]	; (10000280 <__get_current_exception+0x1a>)
1000021c:	4788      	blx	r1
1000021e:	4919      	ldr	r1, [pc, #100]	; (10000284 <__get_current_exception+0x1e>)
10000220:	4788      	blx	r1
10000222:	4919      	ldr	r1, [pc, #100]	; (10000288 <__get_current_exception+0x22>)
10000224:	4788      	blx	r1
10000226:	be00      	bkpt	0x0000
10000228:	e7fd      	b.n	10000226 <platform_entry+0xc>

1000022a <data_cpy_loop>:
1000022a:	c901      	ldmia	r1!, {r0}
1000022c:	c201      	stmia	r2!, {r0}

1000022e <data_cpy>:
1000022e:	429a      	cmp	r2, r3
10000230:	d3fb      	bcc.n	1000022a <data_cpy_loop>
10000232:	4770      	bx	lr

10000234 <data_cpy_table>:
10000234:	1000c2b0 	.word	0x1000c2b0
10000238:	200000c0 	.word	0x200000c0
1000023c:	20008500 	.word	0x20008500
10000240:	100146f0 	.word	0x100146f0
10000244:	20040000 	.word	0x20040000
10000248:	20040000 	.word	0x20040000
1000024c:	100146f0 	.word	0x100146f0
10000250:	20041000 	.word	0x20041000
10000254:	20041000 	.word	0x20041000
10000258:	00000000 	.word	0x00000000
1000025c:	4770      	bx	lr

1000025e <hold_non_core0_in_bootrom>:
1000025e:	480b      	ldr	r0, [pc, #44]	; (1000028c <__get_current_exception+0x26>)
10000260:	f005 fdfe 	bl	10005e60 <rom_func_lookup>
10000264:	4700      	bx	r0

10000266 <__get_current_exception>:
10000266:	f3ef 8005 	mrs	r0, IPSR
1000026a:	b2c0      	uxtb	r0, r0
1000026c:	4770      	bx	lr
1000026e:	0000      	.short	0x0000
10000270:	e000ed08 	.word	0xe000ed08
10000274:	d0000000 	.word	0xd0000000
10000278:	20008500 	.word	0x20008500
1000027c:	20019314 	.word	0x20019314
10000280:	100047d1 	.word	0x100047d1
10000284:	10002ac5 	.word	0x10002ac5
10000288:	1000478d 	.word	0x1000478d
1000028c:	00005657 	.word	0x00005657

10000290 <__bi_50>:
10000290:	50520006 5360b3ab 1000ba44              ..RP..`SD...

1000029c <__bi_38>:
1000029c:	50520006 02031c86 1000ba54              ..RP....T...

100002a8 <__bi_30>:
100002a8:	50520006 9da22254 1000ba5c              ..RPT"..\...

100002b4 <__bi_22>:
100002b4:	50520005 68f465de 100146f0              ..RP.e.h.F..

100002c0 <_init>:
100002c0:	b5f8      	push	{r3, r4, r5, r6, r7, lr}
100002c2:	46c0      	nop			; (mov r8, r8)

100002c4 <deregister_tm_clones>:
100002c4:	4804      	ldr	r0, [pc, #16]	; (100002d8 <deregister_tm_clones+0x14>)
100002c6:	4b05      	ldr	r3, [pc, #20]	; (100002dc <deregister_tm_clones+0x18>)
100002c8:	b510      	push	{r4, lr}
100002ca:	4283      	cmp	r3, r0
100002cc:	d003      	beq.n	100002d6 <deregister_tm_clones+0x12>
100002ce:	4b04      	ldr	r3, [pc, #16]	; (100002e0 <deregister_tm_clones+0x1c>)
100002d0:	2b00      	cmp	r3, #0
100002d2:	d000      	beq.n	100002d6 <deregister_tm_clones+0x12>
100002d4:	4798      	blx	r3
100002d6:	bd10      	pop	{r4, pc}
100002d8:	20008500 	.word	0x20008500
100002dc:	20008500 	.word	0x20008500
100002e0:	00000000 	.word	0x00000000

100002e4 <register_tm_clones>:
100002e4:	4806      	ldr	r0, [pc, #24]	; (10000300 <register_tm_clones+0x1c>)
100002e6:	4907      	ldr	r1, [pc, #28]	; (10000304 <register_tm_clones+0x20>)
100002e8:	1a09      	subs	r1, r1, r0
100002ea:	1089      	asrs	r1, r1, #2
100002ec:	0fcb      	lsrs	r3, r1, #31
100002ee:	1859      	adds	r1, r3, r1
100002f0:	b510      	push	{r4, lr}
100002f2:	1049      	asrs	r1, r1, #1
100002f4:	d003      	beq.n	100002fe <register_tm_clones+0x1a>
100002f6:	4b04      	ldr	r3, [pc, #16]	; (10000308 <register_tm_clones+0x24>)
100002f8:	2b00      	cmp	r3, #0
100002fa:	d000      	beq.n	100002fe <register_tm_clones+0x1a>
100002fc:	4798      	blx	r3
100002fe:	bd10      	pop	{r4, pc}
10000300:	20008500 	.word	0x20008500
10000304:	20008500 	.word	0x20008500
10000308:	00000000 	.word	0x00000000

1000030c <__do_global_dtors_aux>:
1000030c:	b510      	push	{r4, lr}
1000030e:	4c07      	ldr	r4, [pc, #28]	; (1000032c <__do_global_dtors_aux+0x20>)
10000310:	7823      	ldrb	r3, [r4, #0]
10000312:	2b00      	cmp	r3, #0
10000314:	d109      	bne.n	1000032a <__do_global_dtors_aux+0x1e>
10000316:	f7ff ffd5 	bl	100002c4 <deregister_tm_clones>
1000031a:	4b05      	ldr	r3, [pc, #20]	; (10000330 <__do_global_dtors_aux+0x24>)
1000031c:	2b00      	cmp	r3, #0
1000031e:	d002      	beq.n	10000326 <__do_global_dtors_aux+0x1a>
10000320:	4804      	ldr	r0, [pc, #16]	; (10000334 <__do_global_dtors_aux+0x28>)
10000322:	e000      	b.n	10000326 <__do_global_dtors_aux+0x1a>
10000324:	bf00      	nop
10000326:	2301      	movs	r3, #1
10000328:	7023      	strb	r3, [r4, #0]
1000032a:	bd10      	pop	{r4, pc}
1000032c:	20008618 	.word	0x20008618
10000330:	00000000 	.word	0x00000000
10000334:	10009d98 	.word	0x10009d98

10000338 <frame_dummy>:
10000338:	4b05      	ldr	r3, [pc, #20]	; (10000350 <frame_dummy+0x18>)
1000033a:	b510      	push	{r4, lr}
1000033c:	2b00      	cmp	r3, #0
1000033e:	d003      	beq.n	10000348 <frame_dummy+0x10>
10000340:	4904      	ldr	r1, [pc, #16]	; (10000354 <frame_dummy+0x1c>)
10000342:	4805      	ldr	r0, [pc, #20]	; (10000358 <frame_dummy+0x20>)
10000344:	e000      	b.n	10000348 <frame_dummy+0x10>
10000346:	bf00      	nop
10000348:	f7ff ffcc 	bl	100002e4 <register_tm_clones>
1000034c:	bd10      	pop	{r4, pc}
1000034e:	46c0      	nop			; (mov r8, r8)
10000350:	00000000 	.word	0x00000000
10000354:	2000861c 	.word	0x2000861c
10000358:	10009d98 	.word	0x10009d98

1000035c <imp>:
1000035c:	4770      	bx	lr

1000035e <acc>:
1000035e:	4770      	bx	lr

10000360 <imm>:
10000360:	4a03      	ldr	r2, [pc, #12]	; (10000370 <imm+0x10>)
10000362:	8813      	ldrh	r3, [r2, #0]
10000364:	1c59      	adds	r1, r3, #1
10000366:	8011      	strh	r1, [r2, #0]
10000368:	4a02      	ldr	r2, [pc, #8]	; (10000374 <imm+0x14>)
1000036a:	8013      	strh	r3, [r2, #0]
1000036c:	4770      	bx	lr
1000036e:	46c0      	nop			; (mov r8, r8)
10000370:	2001900c 	.word	0x2001900c
10000374:	20008fe8 	.word	0x20008fe8

10000378 <bcc>:
10000378:	4b0d      	ldr	r3, [pc, #52]	; (100003b0 <bcc+0x38>)
1000037a:	781b      	ldrb	r3, [r3, #0]
1000037c:	07db      	lsls	r3, r3, #31
1000037e:	d410      	bmi.n	100003a2 <bcc+0x2a>
10000380:	490c      	ldr	r1, [pc, #48]	; (100003b4 <bcc+0x3c>)
10000382:	880b      	ldrh	r3, [r1, #0]
10000384:	4a0c      	ldr	r2, [pc, #48]	; (100003b8 <bcc+0x40>)
10000386:	8013      	strh	r3, [r2, #0]
10000388:	4a0c      	ldr	r2, [pc, #48]	; (100003bc <bcc+0x44>)
1000038a:	8812      	ldrh	r2, [r2, #0]
1000038c:	189a      	adds	r2, r3, r2
1000038e:	b292      	uxth	r2, r2
10000390:	800a      	strh	r2, [r1, #0]
10000392:	4053      	eors	r3, r2
10000394:	22ff      	movs	r2, #255	; 0xff
10000396:	4393      	bics	r3, r2
10000398:	d004      	beq.n	100003a4 <bcc+0x2c>
1000039a:	4a09      	ldr	r2, [pc, #36]	; (100003c0 <bcc+0x48>)
1000039c:	6813      	ldr	r3, [r2, #0]
1000039e:	3302      	adds	r3, #2
100003a0:	6013      	str	r3, [r2, #0]
100003a2:	4770      	bx	lr
100003a4:	4a06      	ldr	r2, [pc, #24]	; (100003c0 <bcc+0x48>)
100003a6:	6813      	ldr	r3, [r2, #0]
100003a8:	3301      	adds	r3, #1
100003aa:	6013      	str	r3, [r2, #0]
100003ac:	e7f9      	b.n	100003a2 <bcc+0x2a>
100003ae:	46c0      	nop			; (mov r8, r8)
100003b0:	20008409 	.word	0x20008409
100003b4:	2001900c 	.word	0x2001900c
100003b8:	20018ffc 	.word	0x20018ffc
100003bc:	20008fec 	.word	0x20008fec
100003c0:	20008ae0 	.word	0x20008ae0

100003c4 <bcs>:
100003c4:	4b0d      	ldr	r3, [pc, #52]	; (100003fc <bcs+0x38>)
100003c6:	781b      	ldrb	r3, [r3, #0]
100003c8:	07db      	lsls	r3, r3, #31
100003ca:	d510      	bpl.n	100003ee <bcs+0x2a>
100003cc:	490c      	ldr	r1, [pc, #48]	; (10000400 <bcs+0x3c>)
100003ce:	880b      	ldrh	r3, [r1, #0]
100003d0:	4a0c      	ldr	r2, [pc, #48]	; (10000404 <bcs+0x40>)
100003d2:	8013      	strh	r3, [r2, #0]
100003d4:	4a0c      	ldr	r2, [pc, #48]	; (10000408 <bcs+0x44>)
100003d6:	8812      	ldrh	r2, [r2, #0]
100003d8:	189a      	adds	r2, r3, r2
100003da:	b292      	uxth	r2, r2
100003dc:	800a      	strh	r2, [r1, #0]
100003de:	4053      	eors	r3, r2
100003e0:	22ff      	movs	r2, #255	; 0xff
100003e2:	4393      	bics	r3, r2
100003e4:	d004      	beq.n	100003f0 <bcs+0x2c>
100003e6:	4a09      	ldr	r2, [pc, #36]	; (1000040c <bcs+0x48>)
100003e8:	6813      	ldr	r3, [r2, #0]
100003ea:	3302      	adds	r3, #2
100003ec:	6013      	str	r3, [r2, #0]
100003ee:	4770      	bx	lr
100003f0:	4a06      	ldr	r2, [pc, #24]	; (1000040c <bcs+0x48>)
100003f2:	6813      	ldr	r3, [r2, #0]
100003f4:	3301      	adds	r3, #1
100003f6:	6013      	str	r3, [r2, #0]
100003f8:	e7f9      	b.n	100003ee <bcs+0x2a>
100003fa:	46c0      	nop			; (mov r8, r8)
100003fc:	20008409 	.word	0x20008409
10000400:	2001900c 	.word	0x2001900c
10000404:	20018ffc 	.word	0x20018ffc
10000408:	20008fec 	.word	0x20008fec
1000040c:	20008ae0 	.word	0x20008ae0

10000410 <beq>:
10000410:	4b0d      	ldr	r3, [pc, #52]	; (10000448 <beq+0x38>)
10000412:	781b      	ldrb	r3, [r3, #0]
10000414:	079b      	lsls	r3, r3, #30
10000416:	d510      	bpl.n	1000043a <beq+0x2a>
10000418:	490c      	ldr	r1, [pc, #48]	; (1000044c <beq+0x3c>)
1000041a:	880b      	ldrh	r3, [r1, #0]
1000041c:	4a0c      	ldr	r2, [pc, #48]	; (10000450 <beq+0x40>)
1000041e:	8013      	strh	r3, [r2, #0]
10000420:	4a0c      	ldr	r2, [pc, #48]	; (10000454 <beq+0x44>)
10000422:	8812      	ldrh	r2, [r2, #0]
10000424:	189a      	adds	r2, r3, r2
10000426:	b292      	uxth	r2, r2
10000428:	800a      	strh	r2, [r1, #0]
1000042a:	4053      	eors	r3, r2
1000042c:	22ff      	movs	r2, #255	; 0xff
1000042e:	4393      	bics	r3, r2
10000430:	d004      	beq.n	1000043c <beq+0x2c>
10000432:	4a09      	ldr	r2, [pc, #36]	; (10000458 <beq+0x48>)
10000434:	6813      	ldr	r3, [r2, #0]
10000436:	3302      	adds	r3, #2
10000438:	6013      	str	r3, [r2, #0]
1000043a:	4770      	bx	lr
1000043c:	4a06      	ldr	r2, [pc, #24]	; (10000458 <beq+0x48>)
1000043e:	6813      	ldr	r3, [r2, #0]
10000440:	3301      	adds	r3, #1
10000442:	6013      	str	r3, [r2, #0]
10000444:	e7f9      	b.n	1000043a <beq+0x2a>
10000446:	46c0      	nop			; (mov r8, r8)
10000448:	20008409 	.word	0x20008409
1000044c:	2001900c 	.word	0x2001900c
10000450:	20018ffc 	.word	0x20018ffc
10000454:	20008fec 	.word	0x20008fec
10000458:	20008ae0 	.word	0x20008ae0

1000045c <bmi>:
1000045c:	4b0e      	ldr	r3, [pc, #56]	; (10000498 <bmi+0x3c>)
1000045e:	781b      	ldrb	r3, [r3, #0]
10000460:	b25b      	sxtb	r3, r3
10000462:	2b00      	cmp	r3, #0
10000464:	db00      	blt.n	10000468 <bmi+0xc>
10000466:	4770      	bx	lr
10000468:	490c      	ldr	r1, [pc, #48]	; (1000049c <bmi+0x40>)
1000046a:	880b      	ldrh	r3, [r1, #0]
1000046c:	4a0c      	ldr	r2, [pc, #48]	; (100004a0 <bmi+0x44>)
1000046e:	8013      	strh	r3, [r2, #0]
10000470:	4a0c      	ldr	r2, [pc, #48]	; (100004a4 <bmi+0x48>)
10000472:	8812      	ldrh	r2, [r2, #0]
10000474:	189a      	adds	r2, r3, r2
10000476:	b292      	uxth	r2, r2
10000478:	800a      	strh	r2, [r1, #0]
1000047a:	4053      	eors	r3, r2
1000047c:	22ff      	movs	r2, #255	; 0xff
1000047e:	4393      	bics	r3, r2
10000480:	d004      	beq.n	1000048c <bmi+0x30>
10000482:	4a09      	ldr	r2, [pc, #36]	; (100004a8 <bmi+0x4c>)
10000484:	6813      	ldr	r3, [r2, #0]
10000486:	3302      	adds	r3, #2
10000488:	6013      	str	r3, [r2, #0]
1000048a:	e7ec      	b.n	10000466 <bmi+0xa>
1000048c:	4a06      	ldr	r2, [pc, #24]	; (100004a8 <bmi+0x4c>)
1000048e:	6813      	ldr	r3, [r2, #0]
10000490:	3301      	adds	r3, #1
10000492:	6013      	str	r3, [r2, #0]
10000494:	e7e7      	b.n	10000466 <bmi+0xa>
10000496:	46c0      	nop			; (mov r8, r8)
10000498:	20008409 	.word	0x20008409
1000049c:	2001900c 	.word	0x2001900c
100004a0:	20018ffc 	.word	0x20018ffc
100004a4:	20008fec 	.word	0x20008fec
100004a8:	20008ae0 	.word	0x20008ae0

100004ac <bne>:
100004ac:	4b0d      	ldr	r3, [pc, #52]	; (100004e4 <bne+0x38>)
100004ae:	781b      	ldrb	r3, [r3, #0]
100004b0:	079b      	lsls	r3, r3, #30
100004b2:	d410      	bmi.n	100004d6 <bne+0x2a>
100004b4:	490c      	ldr	r1, [pc, #48]	; (100004e8 <bne+0x3c>)
100004b6:	880b      	ldrh	r3, [r1, #0]
100004b8:	4a0c      	ldr	r2, [pc, #48]	; (100004ec <bne+0x40>)
100004ba:	8013      	strh	r3, [r2, #0]
100004bc:	4a0c      	ldr	r2, [pc, #48]	; (100004f0 <bne+0x44>)
100004be:	8812      	ldrh	r2, [r2, #0]
100004c0:	189a      	adds	r2, r3, r2
100004c2:	b292      	uxth	r2, r2
100004c4:	800a      	strh	r2, [r1, #0]
100004c6:	4053      	eors	r3, r2
100004c8:	22ff      	movs	r2, #255	; 0xff
100004ca:	4393      	bics	r3, r2
100004cc:	d004      	beq.n	100004d8 <bne+0x2c>
100004ce:	4a09      	ldr	r2, [pc, #36]	; (100004f4 <bne+0x48>)
100004d0:	6813      	ldr	r3, [r2, #0]
100004d2:	3302      	adds	r3, #2
100004d4:	6013      	str	r3, [r2, #0]
100004d6:	4770      	bx	lr
100004d8:	4a06      	ldr	r2, [pc, #24]	; (100004f4 <bne+0x48>)
100004da:	6813      	ldr	r3, [r2, #0]
100004dc:	3301      	adds	r3, #1
100004de:	6013      	str	r3, [r2, #0]
100004e0:	e7f9      	b.n	100004d6 <bne+0x2a>
100004e2:	46c0      	nop			; (mov r8, r8)
100004e4:	20008409 	.word	0x20008409
100004e8:	2001900c 	.word	0x2001900c
100004ec:	20018ffc 	.word	0x20018ffc
100004f0:	20008fec 	.word	0x20008fec
100004f4:	20008ae0 	.word	0x20008ae0

100004f8 <bpl>:
100004f8:	4b0d      	ldr	r3, [pc, #52]	; (10000530 <bpl+0x38>)
100004fa:	781b      	ldrb	r3, [r3, #0]
100004fc:	b25b      	sxtb	r3, r3
100004fe:	2b00      	cmp	r3, #0
10000500:	db10      	blt.n	10000524 <bpl+0x2c>
10000502:	490c      	ldr	r1, [pc, #48]	; (10000534 <bpl+0x3c>)
10000504:	880b      	ldrh	r3, [r1, #0]
10000506:	4a0c      	ldr	r2, [pc, #48]	; (10000538 <bpl+0x40>)
10000508:	8013      	strh	r3, [r2, #0]
1000050a:	4a0c      	ldr	r2, [pc, #48]	; (1000053c <bpl+0x44>)
1000050c:	8812      	ldrh	r2, [r2, #0]
1000050e:	189a      	adds	r2, r3, r2
10000510:	b292      	uxth	r2, r2
10000512:	800a      	strh	r2, [r1, #0]
10000514:	4053      	eors	r3, r2
10000516:	22ff      	movs	r2, #255	; 0xff
10000518:	4393      	bics	r3, r2
1000051a:	d004      	beq.n	10000526 <bpl+0x2e>
1000051c:	4a08      	ldr	r2, [pc, #32]	; (10000540 <bpl+0x48>)
1000051e:	6813      	ldr	r3, [r2, #0]
10000520:	3302      	adds	r3, #2
10000522:	6013      	str	r3, [r2, #0]
10000524:	4770      	bx	lr
10000526:	4a06      	ldr	r2, [pc, #24]	; (10000540 <bpl+0x48>)
10000528:	6813      	ldr	r3, [r2, #0]
1000052a:	3301      	adds	r3, #1
1000052c:	6013      	str	r3, [r2, #0]
1000052e:	e7f9      	b.n	10000524 <bpl+0x2c>
10000530:	20008409 	.word	0x20008409
10000534:	2001900c 	.word	0x2001900c
10000538:	20018ffc 	.word	0x20018ffc
1000053c:	20008fec 	.word	0x20008fec
10000540:	20008ae0 	.word	0x20008ae0

10000544 <bvc>:
10000544:	4b0d      	ldr	r3, [pc, #52]	; (1000057c <bvc+0x38>)
10000546:	781b      	ldrb	r3, [r3, #0]
10000548:	065b      	lsls	r3, r3, #25
1000054a:	d410      	bmi.n	1000056e <bvc+0x2a>
1000054c:	490c      	ldr	r1, [pc, #48]	; (10000580 <bvc+0x3c>)
1000054e:	880b      	ldrh	r3, [r1, #0]
10000550:	4a0c      	ldr	r2, [pc, #48]	; (10000584 <bvc+0x40>)
10000552:	8013      	strh	r3, [r2, #0]
10000554:	4a0c      	ldr	r2, [pc, #48]	; (10000588 <bvc+0x44>)
10000556:	8812      	ldrh	r2, [r2, #0]
10000558:	189a      	adds	r2, r3, r2
1000055a:	b292      	uxth	r2, r2
1000055c:	800a      	strh	r2, [r1, #0]
1000055e:	4053      	eors	r3, r2
10000560:	22ff      	movs	r2, #255	; 0xff
10000562:	4393      	bics	r3, r2
10000564:	d004      	beq.n	10000570 <bvc+0x2c>
10000566:	4a09      	ldr	r2, [pc, #36]	; (1000058c <bvc+0x48>)
10000568:	6813      	ldr	r3, [r2, #0]
1000056a:	3302      	adds	r3, #2
1000056c:	6013      	str	r3, [r2, #0]
1000056e:	4770      	bx	lr
10000570:	4a06      	ldr	r2, [pc, #24]	; (1000058c <bvc+0x48>)
10000572:	6813      	ldr	r3, [r2, #0]
10000574:	3301      	adds	r3, #1
10000576:	6013      	str	r3, [r2, #0]
10000578:	e7f9      	b.n	1000056e <bvc+0x2a>
1000057a:	46c0      	nop			; (mov r8, r8)
1000057c:	20008409 	.word	0x20008409
10000580:	2001900c 	.word	0x2001900c
10000584:	20018ffc 	.word	0x20018ffc
10000588:	20008fec 	.word	0x20008fec
1000058c:	20008ae0 	.word	0x20008ae0

10000590 <bvs>:
10000590:	4b0d      	ldr	r3, [pc, #52]	; (100005c8 <bvs+0x38>)
10000592:	781b      	ldrb	r3, [r3, #0]
10000594:	065b      	lsls	r3, r3, #25
10000596:	d510      	bpl.n	100005ba <bvs+0x2a>
10000598:	490c      	ldr	r1, [pc, #48]	; (100005cc <bvs+0x3c>)
1000059a:	880b      	ldrh	r3, [r1, #0]
1000059c:	4a0c      	ldr	r2, [pc, #48]	; (100005d0 <bvs+0x40>)
1000059e:	8013      	strh	r3, [r2, #0]
100005a0:	4a0c      	ldr	r2, [pc, #48]	; (100005d4 <bvs+0x44>)
100005a2:	8812      	ldrh	r2, [r2, #0]
100005a4:	189a      	adds	r2, r3, r2
100005a6:	b292      	uxth	r2, r2
100005a8:	800a      	strh	r2, [r1, #0]
100005aa:	4053      	eors	r3, r2
100005ac:	22ff      	movs	r2, #255	; 0xff
100005ae:	4393      	bics	r3, r2
100005b0:	d004      	beq.n	100005bc <bvs+0x2c>
100005b2:	4a09      	ldr	r2, [pc, #36]	; (100005d8 <bvs+0x48>)
100005b4:	6813      	ldr	r3, [r2, #0]
100005b6:	3302      	adds	r3, #2
100005b8:	6013      	str	r3, [r2, #0]
100005ba:	4770      	bx	lr
100005bc:	4a06      	ldr	r2, [pc, #24]	; (100005d8 <bvs+0x48>)
100005be:	6813      	ldr	r3, [r2, #0]
100005c0:	3301      	adds	r3, #1
100005c2:	6013      	str	r3, [r2, #0]
100005c4:	e7f9      	b.n	100005ba <bvs+0x2a>
100005c6:	46c0      	nop			; (mov r8, r8)
100005c8:	20008409 	.word	0x20008409
100005cc:	2001900c 	.word	0x2001900c
100005d0:	20018ffc 	.word	0x20018ffc
100005d4:	20008fec 	.word	0x20008fec
100005d8:	20008ae0 	.word	0x20008ae0

100005dc <clc>:
100005dc:	4a02      	ldr	r2, [pc, #8]	; (100005e8 <clc+0xc>)
100005de:	7813      	ldrb	r3, [r2, #0]
100005e0:	2101      	movs	r1, #1
100005e2:	438b      	bics	r3, r1
100005e4:	7013      	strb	r3, [r2, #0]
100005e6:	4770      	bx	lr
100005e8:	20008409 	.word	0x20008409

100005ec <cld>:
100005ec:	4a02      	ldr	r2, [pc, #8]	; (100005f8 <cld+0xc>)
100005ee:	7813      	ldrb	r3, [r2, #0]
100005f0:	2108      	movs	r1, #8
100005f2:	438b      	bics	r3, r1
100005f4:	7013      	strb	r3, [r2, #0]
100005f6:	4770      	bx	lr
100005f8:	20008409 	.word	0x20008409

100005fc <cli>:
100005fc:	4a02      	ldr	r2, [pc, #8]	; (10000608 <cli+0xc>)
100005fe:	7813      	ldrb	r3, [r2, #0]
10000600:	2104      	movs	r1, #4
10000602:	438b      	bics	r3, r1
10000604:	7013      	strb	r3, [r2, #0]
10000606:	4770      	bx	lr
10000608:	20008409 	.word	0x20008409

1000060c <clv>:
1000060c:	4a02      	ldr	r2, [pc, #8]	; (10000618 <clv+0xc>)
1000060e:	7813      	ldrb	r3, [r2, #0]
10000610:	2140      	movs	r1, #64	; 0x40
10000612:	438b      	bics	r3, r1
10000614:	7013      	strb	r3, [r2, #0]
10000616:	4770      	bx	lr
10000618:	20008409 	.word	0x20008409

1000061c <dex>:
1000061c:	4a10      	ldr	r2, [pc, #64]	; (10000660 <dex+0x44>)
1000061e:	7813      	ldrb	r3, [r2, #0]
10000620:	3b01      	subs	r3, #1
10000622:	b2db      	uxtb	r3, r3
10000624:	7013      	strb	r3, [r2, #0]
10000626:	2b00      	cmp	r3, #0
10000628:	d00d      	beq.n	10000646 <dex+0x2a>
1000062a:	490e      	ldr	r1, [pc, #56]	; (10000664 <dex+0x48>)
1000062c:	780a      	ldrb	r2, [r1, #0]
1000062e:	2002      	movs	r0, #2
10000630:	4382      	bics	r2, r0
10000632:	700a      	strb	r2, [r1, #0]
10000634:	b25b      	sxtb	r3, r3
10000636:	2b00      	cmp	r3, #0
10000638:	db0b      	blt.n	10000652 <dex+0x36>
1000063a:	4a0a      	ldr	r2, [pc, #40]	; (10000664 <dex+0x48>)
1000063c:	7811      	ldrb	r1, [r2, #0]
1000063e:	237f      	movs	r3, #127	; 0x7f
10000640:	400b      	ands	r3, r1
10000642:	7013      	strb	r3, [r2, #0]
10000644:	4770      	bx	lr
10000646:	4907      	ldr	r1, [pc, #28]	; (10000664 <dex+0x48>)
10000648:	780a      	ldrb	r2, [r1, #0]
1000064a:	2002      	movs	r0, #2
1000064c:	4302      	orrs	r2, r0
1000064e:	700a      	strb	r2, [r1, #0]
10000650:	e7f0      	b.n	10000634 <dex+0x18>
10000652:	4a04      	ldr	r2, [pc, #16]	; (10000664 <dex+0x48>)
10000654:	7811      	ldrb	r1, [r2, #0]
10000656:	2380      	movs	r3, #128	; 0x80
10000658:	425b      	negs	r3, r3
1000065a:	430b      	orrs	r3, r1
1000065c:	7013      	strb	r3, [r2, #0]
1000065e:	e7f1      	b.n	10000644 <dex+0x28>
10000660:	20008fea 	.word	0x20008fea
10000664:	20008409 	.word	0x20008409

10000668 <dey>:
10000668:	4a10      	ldr	r2, [pc, #64]	; (100006ac <dey+0x44>)
1000066a:	7813      	ldrb	r3, [r2, #0]
1000066c:	3b01      	subs	r3, #1
1000066e:	b2db      	uxtb	r3, r3
10000670:	7013      	strb	r3, [r2, #0]
10000672:	2b00      	cmp	r3, #0
10000674:	d00d      	beq.n	10000692 <dey+0x2a>
10000676:	490e      	ldr	r1, [pc, #56]	; (100006b0 <dey+0x48>)
10000678:	780a      	ldrb	r2, [r1, #0]
1000067a:	2002      	movs	r0, #2
1000067c:	4382      	bics	r2, r0
1000067e:	700a      	strb	r2, [r1, #0]
10000680:	b25b      	sxtb	r3, r3
10000682:	2b00      	cmp	r3, #0
10000684:	db0b      	blt.n	1000069e <dey+0x36>
10000686:	4a0a      	ldr	r2, [pc, #40]	; (100006b0 <dey+0x48>)
10000688:	7811      	ldrb	r1, [r2, #0]
1000068a:	237f      	movs	r3, #127	; 0x7f
1000068c:	400b      	ands	r3, r1
1000068e:	7013      	strb	r3, [r2, #0]
10000690:	4770      	bx	lr
10000692:	4907      	ldr	r1, [pc, #28]	; (100006b0 <dey+0x48>)
10000694:	780a      	ldrb	r2, [r1, #0]
10000696:	2002      	movs	r0, #2
10000698:	4302      	orrs	r2, r0
1000069a:	700a      	strb	r2, [r1, #0]
1000069c:	e7f0      	b.n	10000680 <dey+0x18>
1000069e:	4a04      	ldr	r2, [pc, #16]	; (100006b0 <dey+0x48>)
100006a0:	7811      	ldrb	r1, [r2, #0]
100006a2:	2380      	movs	r3, #128	; 0x80
100006a4:	425b      	negs	r3, r3
100006a6:	430b      	orrs	r3, r1
100006a8:	7013      	strb	r3, [r2, #0]
100006aa:	e7f1      	b.n	10000690 <dey+0x28>
100006ac:	20019004 	.word	0x20019004
100006b0:	20008409 	.word	0x20008409

100006b4 <inx>:
100006b4:	4a10      	ldr	r2, [pc, #64]	; (100006f8 <inx+0x44>)
100006b6:	7813      	ldrb	r3, [r2, #0]
100006b8:	3301      	adds	r3, #1
100006ba:	b2db      	uxtb	r3, r3
100006bc:	7013      	strb	r3, [r2, #0]
100006be:	2b00      	cmp	r3, #0
100006c0:	d00d      	beq.n	100006de <inx+0x2a>
100006c2:	490e      	ldr	r1, [pc, #56]	; (100006fc <inx+0x48>)
100006c4:	780a      	ldrb	r2, [r1, #0]
100006c6:	2002      	movs	r0, #2
100006c8:	4382      	bics	r2, r0
100006ca:	700a      	strb	r2, [r1, #0]
100006cc:	b25b      	sxtb	r3, r3
100006ce:	2b00      	cmp	r3, #0
100006d0:	db0b      	blt.n	100006ea <inx+0x36>
100006d2:	4a0a      	ldr	r2, [pc, #40]	; (100006fc <inx+0x48>)
100006d4:	7811      	ldrb	r1, [r2, #0]
100006d6:	237f      	movs	r3, #127	; 0x7f
100006d8:	400b      	ands	r3, r1
100006da:	7013      	strb	r3, [r2, #0]
100006dc:	4770      	bx	lr
100006de:	4907      	ldr	r1, [pc, #28]	; (100006fc <inx+0x48>)
100006e0:	780a      	ldrb	r2, [r1, #0]
100006e2:	2002      	movs	r0, #2
100006e4:	4302      	orrs	r2, r0
100006e6:	700a      	strb	r2, [r1, #0]
100006e8:	e7f0      	b.n	100006cc <inx+0x18>
100006ea:	4a04      	ldr	r2, [pc, #16]	; (100006fc <inx+0x48>)
100006ec:	7811      	ldrb	r1, [r2, #0]
100006ee:	2380      	movs	r3, #128	; 0x80
100006f0:	425b      	negs	r3, r3
100006f2:	430b      	orrs	r3, r1
100006f4:	7013      	strb	r3, [r2, #0]
100006f6:	e7f1      	b.n	100006dc <inx+0x28>
100006f8:	20008fea 	.word	0x20008fea
100006fc:	20008409 	.word	0x20008409

10000700 <iny>:
10000700:	4a10      	ldr	r2, [pc, #64]	; (10000744 <iny+0x44>)
10000702:	7813      	ldrb	r3, [r2, #0]
10000704:	3301      	adds	r3, #1
10000706:	b2db      	uxtb	r3, r3
10000708:	7013      	strb	r3, [r2, #0]
1000070a:	2b00      	cmp	r3, #0
1000070c:	d00d      	beq.n	1000072a <iny+0x2a>
1000070e:	490e      	ldr	r1, [pc, #56]	; (10000748 <iny+0x48>)
10000710:	780a      	ldrb	r2, [r1, #0]
10000712:	2002      	movs	r0, #2
10000714:	4382      	bics	r2, r0
10000716:	700a      	strb	r2, [r1, #0]
10000718:	b25b      	sxtb	r3, r3
1000071a:	2b00      	cmp	r3, #0
1000071c:	db0b      	blt.n	10000736 <iny+0x36>
1000071e:	4a0a      	ldr	r2, [pc, #40]	; (10000748 <iny+0x48>)
10000720:	7811      	ldrb	r1, [r2, #0]
10000722:	237f      	movs	r3, #127	; 0x7f
10000724:	400b      	ands	r3, r1
10000726:	7013      	strb	r3, [r2, #0]
10000728:	4770      	bx	lr
1000072a:	4907      	ldr	r1, [pc, #28]	; (10000748 <iny+0x48>)
1000072c:	780a      	ldrb	r2, [r1, #0]
1000072e:	2002      	movs	r0, #2
10000730:	4302      	orrs	r2, r0
10000732:	700a      	strb	r2, [r1, #0]
10000734:	e7f0      	b.n	10000718 <iny+0x18>
10000736:	4a04      	ldr	r2, [pc, #16]	; (10000748 <iny+0x48>)
10000738:	7811      	ldrb	r1, [r2, #0]
1000073a:	2380      	movs	r3, #128	; 0x80
1000073c:	425b      	negs	r3, r3
1000073e:	430b      	orrs	r3, r1
10000740:	7013      	strb	r3, [r2, #0]
10000742:	e7f1      	b.n	10000728 <iny+0x28>
10000744:	20019004 	.word	0x20019004
10000748:	20008409 	.word	0x20008409

1000074c <jmp>:
1000074c:	4b02      	ldr	r3, [pc, #8]	; (10000758 <jmp+0xc>)
1000074e:	881a      	ldrh	r2, [r3, #0]
10000750:	4b02      	ldr	r3, [pc, #8]	; (1000075c <jmp+0x10>)
10000752:	801a      	strh	r2, [r3, #0]
10000754:	4770      	bx	lr
10000756:	46c0      	nop			; (mov r8, r8)
10000758:	20008fe8 	.word	0x20008fe8
1000075c:	2001900c 	.word	0x2001900c

10000760 <nop>:
10000760:	4b09      	ldr	r3, [pc, #36]	; (10000788 <nop+0x28>)
10000762:	781b      	ldrb	r3, [r3, #0]
10000764:	2b5c      	cmp	r3, #92	; 0x5c
10000766:	d00b      	beq.n	10000780 <nop+0x20>
10000768:	d906      	bls.n	10000778 <nop+0x18>
1000076a:	2bdc      	cmp	r3, #220	; 0xdc
1000076c:	d008      	beq.n	10000780 <nop+0x20>
1000076e:	2bfc      	cmp	r3, #252	; 0xfc
10000770:	d006      	beq.n	10000780 <nop+0x20>
10000772:	2b7c      	cmp	r3, #124	; 0x7c
10000774:	d004      	beq.n	10000780 <nop+0x20>
10000776:	4770      	bx	lr
10000778:	2b1c      	cmp	r3, #28
1000077a:	d001      	beq.n	10000780 <nop+0x20>
1000077c:	2b3c      	cmp	r3, #60	; 0x3c
1000077e:	d1fa      	bne.n	10000776 <nop+0x16>
10000780:	4b02      	ldr	r3, [pc, #8]	; (1000078c <nop+0x2c>)
10000782:	2201      	movs	r2, #1
10000784:	701a      	strb	r2, [r3, #0]
10000786:	e7f6      	b.n	10000776 <nop+0x16>
10000788:	2001900a 	.word	0x2001900a
1000078c:	20008ff4 	.word	0x20008ff4

10000790 <sec>:
10000790:	4a02      	ldr	r2, [pc, #8]	; (1000079c <sec+0xc>)
10000792:	7813      	ldrb	r3, [r2, #0]
10000794:	2101      	movs	r1, #1
10000796:	430b      	orrs	r3, r1
10000798:	7013      	strb	r3, [r2, #0]
1000079a:	4770      	bx	lr
1000079c:	20008409 	.word	0x20008409

100007a0 <sed>:
100007a0:	4a02      	ldr	r2, [pc, #8]	; (100007ac <sed+0xc>)
100007a2:	7813      	ldrb	r3, [r2, #0]
100007a4:	2108      	movs	r1, #8
100007a6:	430b      	orrs	r3, r1
100007a8:	7013      	strb	r3, [r2, #0]
100007aa:	4770      	bx	lr
100007ac:	20008409 	.word	0x20008409

100007b0 <sei>:
100007b0:	4a02      	ldr	r2, [pc, #8]	; (100007bc <sei+0xc>)
100007b2:	7813      	ldrb	r3, [r2, #0]
100007b4:	2104      	movs	r1, #4
100007b6:	430b      	orrs	r3, r1
100007b8:	7013      	strb	r3, [r2, #0]
100007ba:	4770      	bx	lr
100007bc:	20008409 	.word	0x20008409

100007c0 <tax>:
100007c0:	4b10      	ldr	r3, [pc, #64]	; (10000804 <tax+0x44>)
100007c2:	781b      	ldrb	r3, [r3, #0]
100007c4:	4a10      	ldr	r2, [pc, #64]	; (10000808 <tax+0x48>)
100007c6:	7013      	strb	r3, [r2, #0]
100007c8:	2b00      	cmp	r3, #0
100007ca:	d00d      	beq.n	100007e8 <tax+0x28>
100007cc:	490f      	ldr	r1, [pc, #60]	; (1000080c <tax+0x4c>)
100007ce:	780a      	ldrb	r2, [r1, #0]
100007d0:	2002      	movs	r0, #2
100007d2:	4382      	bics	r2, r0
100007d4:	700a      	strb	r2, [r1, #0]
100007d6:	b25b      	sxtb	r3, r3
100007d8:	2b00      	cmp	r3, #0
100007da:	db0b      	blt.n	100007f4 <tax+0x34>
100007dc:	4a0b      	ldr	r2, [pc, #44]	; (1000080c <tax+0x4c>)
100007de:	7811      	ldrb	r1, [r2, #0]
100007e0:	237f      	movs	r3, #127	; 0x7f
100007e2:	400b      	ands	r3, r1
100007e4:	7013      	strb	r3, [r2, #0]
100007e6:	4770      	bx	lr
100007e8:	4908      	ldr	r1, [pc, #32]	; (1000080c <tax+0x4c>)
100007ea:	780a      	ldrb	r2, [r1, #0]
100007ec:	2002      	movs	r0, #2
100007ee:	4302      	orrs	r2, r0
100007f0:	700a      	strb	r2, [r1, #0]
100007f2:	e7f0      	b.n	100007d6 <tax+0x16>
100007f4:	4a05      	ldr	r2, [pc, #20]	; (1000080c <tax+0x4c>)
100007f6:	7811      	ldrb	r1, [r2, #0]
100007f8:	2380      	movs	r3, #128	; 0x80
100007fa:	425b      	negs	r3, r3
100007fc:	430b      	orrs	r3, r1
100007fe:	7013      	strb	r3, [r2, #0]
10000800:	e7f1      	b.n	100007e6 <tax+0x26>
10000802:	46c0      	nop			; (mov r8, r8)
10000804:	2001900e 	.word	0x2001900e
10000808:	20008fea 	.word	0x20008fea
1000080c:	20008409 	.word	0x20008409

10000810 <tay>:
10000810:	4b10      	ldr	r3, [pc, #64]	; (10000854 <tay+0x44>)
10000812:	781b      	ldrb	r3, [r3, #0]
10000814:	4a10      	ldr	r2, [pc, #64]	; (10000858 <tay+0x48>)
10000816:	7013      	strb	r3, [r2, #0]
10000818:	2b00      	cmp	r3, #0
1000081a:	d00d      	beq.n	10000838 <tay+0x28>
1000081c:	490f      	ldr	r1, [pc, #60]	; (1000085c <tay+0x4c>)
1000081e:	780a      	ldrb	r2, [r1, #0]
10000820:	2002      	movs	r0, #2
10000822:	4382      	bics	r2, r0
10000824:	700a      	strb	r2, [r1, #0]
10000826:	b25b      	sxtb	r3, r3
10000828:	2b00      	cmp	r3, #0
1000082a:	db0b      	blt.n	10000844 <tay+0x34>
1000082c:	4a0b      	ldr	r2, [pc, #44]	; (1000085c <tay+0x4c>)
1000082e:	7811      	ldrb	r1, [r2, #0]
10000830:	237f      	movs	r3, #127	; 0x7f
10000832:	400b      	ands	r3, r1
10000834:	7013      	strb	r3, [r2, #0]
10000836:	4770      	bx	lr
10000838:	4908      	ldr	r1, [pc, #32]	; (1000085c <tay+0x4c>)
1000083a:	780a      	ldrb	r2, [r1, #0]
1000083c:	2002      	movs	r0, #2
1000083e:	4302      	orrs	r2, r0
10000840:	700a      	strb	r2, [r1, #0]
10000842:	e7f0      	b.n	10000826 <tay+0x16>
10000844:	4a05      	ldr	r2, [pc, #20]	; (1000085c <tay+0x4c>)
10000846:	7811      	ldrb	r1, [r2, #0]
10000848:	2380      	movs	r3, #128	; 0x80
1000084a:	425b      	negs	r3, r3
1000084c:	430b      	orrs	r3, r1
1000084e:	7013      	strb	r3, [r2, #0]
10000850:	e7f1      	b.n	10000836 <tay+0x26>
10000852:	46c0      	nop			; (mov r8, r8)
10000854:	2001900e 	.word	0x2001900e
10000858:	20019004 	.word	0x20019004
1000085c:	20008409 	.word	0x20008409

10000860 <tsx>:
10000860:	4b10      	ldr	r3, [pc, #64]	; (100008a4 <tsx+0x44>)
10000862:	781b      	ldrb	r3, [r3, #0]
10000864:	4a10      	ldr	r2, [pc, #64]	; (100008a8 <tsx+0x48>)
10000866:	7013      	strb	r3, [r2, #0]
10000868:	2b00      	cmp	r3, #0
1000086a:	d00d      	beq.n	10000888 <tsx+0x28>
1000086c:	490f      	ldr	r1, [pc, #60]	; (100008ac <tsx+0x4c>)
1000086e:	780a      	ldrb	r2, [r1, #0]
10000870:	2002      	movs	r0, #2
10000872:	4382      	bics	r2, r0
10000874:	700a      	strb	r2, [r1, #0]
10000876:	b25b      	sxtb	r3, r3
10000878:	2b00      	cmp	r3, #0
1000087a:	db0b      	blt.n	10000894 <tsx+0x34>
1000087c:	4a0b      	ldr	r2, [pc, #44]	; (100008ac <tsx+0x4c>)
1000087e:	7811      	ldrb	r1, [r2, #0]
10000880:	237f      	movs	r3, #127	; 0x7f
10000882:	400b      	ands	r3, r1
10000884:	7013      	strb	r3, [r2, #0]
10000886:	4770      	bx	lr
10000888:	4908      	ldr	r1, [pc, #32]	; (100008ac <tsx+0x4c>)
1000088a:	780a      	ldrb	r2, [r1, #0]
1000088c:	2002      	movs	r0, #2
1000088e:	4302      	orrs	r2, r0
10000890:	700a      	strb	r2, [r1, #0]
10000892:	e7f0      	b.n	10000876 <tsx+0x16>
10000894:	4a05      	ldr	r2, [pc, #20]	; (100008ac <tsx+0x4c>)
10000896:	7811      	ldrb	r1, [r2, #0]
10000898:	2380      	movs	r3, #128	; 0x80
1000089a:	425b      	negs	r3, r3
1000089c:	430b      	orrs	r3, r1
1000089e:	7013      	strb	r3, [r2, #0]
100008a0:	e7f1      	b.n	10000886 <tsx+0x26>
100008a2:	46c0      	nop			; (mov r8, r8)
100008a4:	20019009 	.word	0x20019009
100008a8:	20008fea 	.word	0x20008fea
100008ac:	20008409 	.word	0x20008409

100008b0 <txa>:
100008b0:	4b10      	ldr	r3, [pc, #64]	; (100008f4 <txa+0x44>)
100008b2:	781b      	ldrb	r3, [r3, #0]
100008b4:	4a10      	ldr	r2, [pc, #64]	; (100008f8 <txa+0x48>)
100008b6:	7013      	strb	r3, [r2, #0]
100008b8:	2b00      	cmp	r3, #0
100008ba:	d00d      	beq.n	100008d8 <txa+0x28>
100008bc:	490f      	ldr	r1, [pc, #60]	; (100008fc <txa+0x4c>)
100008be:	780a      	ldrb	r2, [r1, #0]
100008c0:	2002      	movs	r0, #2
100008c2:	4382      	bics	r2, r0
100008c4:	700a      	strb	r2, [r1, #0]
100008c6:	b25b      	sxtb	r3, r3
100008c8:	2b00      	cmp	r3, #0
100008ca:	db0b      	blt.n	100008e4 <txa+0x34>
100008cc:	4a0b      	ldr	r2, [pc, #44]	; (100008fc <txa+0x4c>)
100008ce:	7811      	ldrb	r1, [r2, #0]
100008d0:	237f      	movs	r3, #127	; 0x7f
100008d2:	400b      	ands	r3, r1
100008d4:	7013      	strb	r3, [r2, #0]
100008d6:	4770      	bx	lr
100008d8:	4908      	ldr	r1, [pc, #32]	; (100008fc <txa+0x4c>)
100008da:	780a      	ldrb	r2, [r1, #0]
100008dc:	2002      	movs	r0, #2
100008de:	4302      	orrs	r2, r0
100008e0:	700a      	strb	r2, [r1, #0]
100008e2:	e7f0      	b.n	100008c6 <txa+0x16>
100008e4:	4a05      	ldr	r2, [pc, #20]	; (100008fc <txa+0x4c>)
100008e6:	7811      	ldrb	r1, [r2, #0]
100008e8:	2380      	movs	r3, #128	; 0x80
100008ea:	425b      	negs	r3, r3
100008ec:	430b      	orrs	r3, r1
100008ee:	7013      	strb	r3, [r2, #0]
100008f0:	e7f1      	b.n	100008d6 <txa+0x26>
100008f2:	46c0      	nop			; (mov r8, r8)
100008f4:	20008fea 	.word	0x20008fea
100008f8:	2001900e 	.word	0x2001900e
100008fc:	20008409 	.word	0x20008409

10000900 <txs>:
10000900:	4b02      	ldr	r3, [pc, #8]	; (1000090c <txs+0xc>)
10000902:	781a      	ldrb	r2, [r3, #0]
10000904:	4b02      	ldr	r3, [pc, #8]	; (10000910 <txs+0x10>)
10000906:	701a      	strb	r2, [r3, #0]
10000908:	4770      	bx	lr
1000090a:	46c0      	nop			; (mov r8, r8)
1000090c:	20008fea 	.word	0x20008fea
10000910:	20019009 	.word	0x20019009

10000914 <tya>:
10000914:	4b10      	ldr	r3, [pc, #64]	; (10000958 <tya+0x44>)
10000916:	781b      	ldrb	r3, [r3, #0]
10000918:	4a10      	ldr	r2, [pc, #64]	; (1000095c <tya+0x48>)
1000091a:	7013      	strb	r3, [r2, #0]
1000091c:	2b00      	cmp	r3, #0
1000091e:	d00d      	beq.n	1000093c <tya+0x28>
10000920:	490f      	ldr	r1, [pc, #60]	; (10000960 <tya+0x4c>)
10000922:	780a      	ldrb	r2, [r1, #0]
10000924:	2002      	movs	r0, #2
10000926:	4382      	bics	r2, r0
10000928:	700a      	strb	r2, [r1, #0]
1000092a:	b25b      	sxtb	r3, r3
1000092c:	2b00      	cmp	r3, #0
1000092e:	db0b      	blt.n	10000948 <tya+0x34>
10000930:	4a0b      	ldr	r2, [pc, #44]	; (10000960 <tya+0x4c>)
10000932:	7811      	ldrb	r1, [r2, #0]
10000934:	237f      	movs	r3, #127	; 0x7f
10000936:	400b      	ands	r3, r1
10000938:	7013      	strb	r3, [r2, #0]
1000093a:	4770      	bx	lr
1000093c:	4908      	ldr	r1, [pc, #32]	; (10000960 <tya+0x4c>)
1000093e:	780a      	ldrb	r2, [r1, #0]
10000940:	2002      	movs	r0, #2
10000942:	4302      	orrs	r2, r0
10000944:	700a      	strb	r2, [r1, #0]
10000946:	e7f0      	b.n	1000092a <tya+0x16>
10000948:	4a05      	ldr	r2, [pc, #20]	; (10000960 <tya+0x4c>)
1000094a:	7811      	ldrb	r1, [r2, #0]
1000094c:	2380      	movs	r3, #128	; 0x80
1000094e:	425b      	negs	r3, r3
10000950:	430b      	orrs	r3, r1
10000952:	7013      	strb	r3, [r2, #0]
10000954:	e7f1      	b.n	1000093a <tya+0x26>
10000956:	46c0      	nop			; (mov r8, r8)
10000958:	20019004 	.word	0x20019004
1000095c:	2001900e 	.word	0x2001900e
10000960:	20008409 	.word	0x20008409

10000964 <bra>:
10000964:	490b      	ldr	r1, [pc, #44]	; (10000994 <bra+0x30>)
10000966:	880b      	ldrh	r3, [r1, #0]
10000968:	4a0b      	ldr	r2, [pc, #44]	; (10000998 <bra+0x34>)
1000096a:	8013      	strh	r3, [r2, #0]
1000096c:	4a0b      	ldr	r2, [pc, #44]	; (1000099c <bra+0x38>)
1000096e:	8812      	ldrh	r2, [r2, #0]
10000970:	189a      	adds	r2, r3, r2
10000972:	b292      	uxth	r2, r2
10000974:	800a      	strh	r2, [r1, #0]
10000976:	4053      	eors	r3, r2
10000978:	22ff      	movs	r2, #255	; 0xff
1000097a:	4393      	bics	r3, r2
1000097c:	d004      	beq.n	10000988 <bra+0x24>
1000097e:	4a08      	ldr	r2, [pc, #32]	; (100009a0 <bra+0x3c>)
10000980:	6813      	ldr	r3, [r2, #0]
10000982:	3302      	adds	r3, #2
10000984:	6013      	str	r3, [r2, #0]
10000986:	4770      	bx	lr
10000988:	4a05      	ldr	r2, [pc, #20]	; (100009a0 <bra+0x3c>)
1000098a:	6813      	ldr	r3, [r2, #0]
1000098c:	3301      	adds	r3, #1
1000098e:	6013      	str	r3, [r2, #0]
10000990:	e7f9      	b.n	10000986 <bra+0x22>
10000992:	46c0      	nop			; (mov r8, r8)
10000994:	2001900c 	.word	0x2001900c
10000998:	20018ffc 	.word	0x20018ffc
1000099c:	20008fec 	.word	0x20008fec
100009a0:	20008ae0 	.word	0x20008ae0

100009a4 <_m6522_init_port>:
100009a4:	23ff      	movs	r3, #255	; 0xff
100009a6:	7003      	strb	r3, [r0, #0]
100009a8:	2300      	movs	r3, #0
100009aa:	7043      	strb	r3, [r0, #1]
100009ac:	7083      	strb	r3, [r0, #2]
100009ae:	70c3      	strb	r3, [r0, #3]
100009b0:	7103      	strb	r3, [r0, #4]
100009b2:	2201      	movs	r2, #1
100009b4:	7142      	strb	r2, [r0, #5]
100009b6:	7183      	strb	r3, [r0, #6]
100009b8:	71c3      	strb	r3, [r0, #7]
100009ba:	7202      	strb	r2, [r0, #8]
100009bc:	7243      	strb	r3, [r0, #9]
100009be:	4770      	bx	lr

100009c0 <_m6522_init_timer>:
100009c0:	2900      	cmp	r1, #0
100009c2:	d105      	bne.n	100009d0 <_m6522_init_timer+0x10>
100009c4:	2301      	movs	r3, #1
100009c6:	425b      	negs	r3, r3
100009c8:	8003      	strh	r3, [r0, #0]
100009ca:	2300      	movs	r3, #0
100009cc:	8043      	strh	r3, [r0, #2]
100009ce:	7103      	strb	r3, [r0, #4]
100009d0:	2300      	movs	r3, #0
100009d2:	7143      	strb	r3, [r0, #5]
100009d4:	80c3      	strh	r3, [r0, #6]
100009d6:	4770      	bx	lr

100009d8 <_m6522_init_interrupt>:
100009d8:	2300      	movs	r3, #0
100009da:	7003      	strb	r3, [r0, #0]
100009dc:	7043      	strb	r3, [r0, #1]
100009de:	8043      	strh	r3, [r0, #2]
100009e0:	4770      	bx	lr
	...

100009e4 <_m6522_tick_t1>:
100009e4:	b510      	push	{r4, lr}
100009e6:	8b42      	ldrh	r2, [r0, #26]
100009e8:	07d3      	lsls	r3, r2, #31
100009ea:	d502      	bpl.n	100009f2 <_m6522_tick_t1+0xe>
100009ec:	8ac3      	ldrh	r3, [r0, #22]
100009ee:	3b01      	subs	r3, #1
100009f0:	82c3      	strh	r3, [r0, #22]
100009f2:	8ac3      	ldrh	r3, [r0, #22]
100009f4:	4915      	ldr	r1, [pc, #84]	; (10000a4c <_m6522_tick_t1+0x68>)
100009f6:	468c      	mov	ip, r1
100009f8:	4463      	add	r3, ip
100009fa:	4259      	negs	r1, r3
100009fc:	414b      	adcs	r3, r1
100009fe:	b2db      	uxtb	r3, r3
10000a00:	7643      	strb	r3, [r0, #25]
10000a02:	2b00      	cmp	r3, #0
10000a04:	d010      	beq.n	10000a28 <_m6522_tick_t1+0x44>
10000a06:	2328      	movs	r3, #40	; 0x28
10000a08:	5cc3      	ldrb	r3, [r0, r3]
10000a0a:	065b      	lsls	r3, r3, #25
10000a0c:	d512      	bpl.n	10000a34 <_m6522_tick_t1+0x50>
10000a0e:	7e03      	ldrb	r3, [r0, #24]
10000a10:	2101      	movs	r1, #1
10000a12:	404b      	eors	r3, r1
10000a14:	7603      	strb	r3, [r0, #24]
10000a16:	2125      	movs	r1, #37	; 0x25
10000a18:	5c43      	ldrb	r3, [r0, r1]
10000a1a:	2440      	movs	r4, #64	; 0x40
10000a1c:	4323      	orrs	r3, r4
10000a1e:	5443      	strb	r3, [r0, r1]
10000a20:	2380      	movs	r3, #128	; 0x80
10000a22:	009b      	lsls	r3, r3, #2
10000a24:	431a      	orrs	r2, r3
10000a26:	8342      	strh	r2, [r0, #26]
10000a28:	8b43      	ldrh	r3, [r0, #26]
10000a2a:	05db      	lsls	r3, r3, #23
10000a2c:	d501      	bpl.n	10000a32 <_m6522_tick_t1+0x4e>
10000a2e:	8a83      	ldrh	r3, [r0, #20]
10000a30:	82c3      	strh	r3, [r0, #22]
10000a32:	bd10      	pop	{r4, pc}
10000a34:	7e03      	ldrb	r3, [r0, #24]
10000a36:	2b00      	cmp	r3, #0
10000a38:	d1f2      	bne.n	10000a20 <_m6522_tick_t1+0x3c>
10000a3a:	2125      	movs	r1, #37	; 0x25
10000a3c:	5c43      	ldrb	r3, [r0, r1]
10000a3e:	2440      	movs	r4, #64	; 0x40
10000a40:	4323      	orrs	r3, r4
10000a42:	5443      	strb	r3, [r0, r1]
10000a44:	2301      	movs	r3, #1
10000a46:	7603      	strb	r3, [r0, #24]
10000a48:	e7ea      	b.n	10000a20 <_m6522_tick_t1+0x3c>
10000a4a:	46c0      	nop			; (mov r8, r8)
10000a4c:	ffff0001 	.word	0xffff0001

10000a50 <_m6522_tick_t2>:
10000a50:	2228      	movs	r2, #40	; 0x28
10000a52:	5c82      	ldrb	r2, [r0, r2]
10000a54:	0692      	lsls	r2, r2, #26
10000a56:	d51f      	bpl.n	10000a98 <_m6522_tick_t2+0x48>
10000a58:	6b42      	ldr	r2, [r0, #52]	; 0x34
10000a5a:	405a      	eors	r2, r3
10000a5c:	439a      	bics	r2, r3
10000a5e:	0053      	lsls	r3, r2, #1
10000a60:	d502      	bpl.n	10000a68 <_m6522_tick_t2+0x18>
10000a62:	8bc3      	ldrh	r3, [r0, #30]
10000a64:	3b01      	subs	r3, #1
10000a66:	83c3      	strh	r3, [r0, #30]
10000a68:	8bc3      	ldrh	r3, [r0, #30]
10000a6a:	4a0f      	ldr	r2, [pc, #60]	; (10000aa8 <_m6522_tick_t2+0x58>)
10000a6c:	4694      	mov	ip, r2
10000a6e:	4463      	add	r3, ip
10000a70:	425a      	negs	r2, r3
10000a72:	4153      	adcs	r3, r2
10000a74:	b2db      	uxtb	r3, r3
10000a76:	2221      	movs	r2, #33	; 0x21
10000a78:	5483      	strb	r3, [r0, r2]
10000a7a:	2b00      	cmp	r3, #0
10000a7c:	d00b      	beq.n	10000a96 <_m6522_tick_t2+0x46>
10000a7e:	2320      	movs	r3, #32
10000a80:	5cc3      	ldrb	r3, [r0, r3]
10000a82:	2b00      	cmp	r3, #0
10000a84:	d107      	bne.n	10000a96 <_m6522_tick_t2+0x46>
10000a86:	3204      	adds	r2, #4
10000a88:	5c83      	ldrb	r3, [r0, r2]
10000a8a:	2120      	movs	r1, #32
10000a8c:	430b      	orrs	r3, r1
10000a8e:	5483      	strb	r3, [r0, r2]
10000a90:	2320      	movs	r3, #32
10000a92:	3a24      	subs	r2, #36	; 0x24
10000a94:	54c2      	strb	r2, [r0, r3]
10000a96:	4770      	bx	lr
10000a98:	8c43      	ldrh	r3, [r0, #34]	; 0x22
10000a9a:	07db      	lsls	r3, r3, #31
10000a9c:	d5e4      	bpl.n	10000a68 <_m6522_tick_t2+0x18>
10000a9e:	8bc3      	ldrh	r3, [r0, #30]
10000aa0:	3b01      	subs	r3, #1
10000aa2:	83c3      	strh	r3, [r0, #30]
10000aa4:	e7e0      	b.n	10000a68 <_m6522_tick_t2+0x18>
10000aa6:	46c0      	nop			; (mov r8, r8)
10000aa8:	ffff0001 	.word	0xffff0001

10000aac <_m6522_tick_pipeline>:
10000aac:	b510      	push	{r4, lr}
10000aae:	2104      	movs	r1, #4
10000ab0:	8b42      	ldrh	r2, [r0, #26]
10000ab2:	430a      	orrs	r2, r1
10000ab4:	8342      	strh	r2, [r0, #26]
10000ab6:	8c43      	ldrh	r3, [r0, #34]	; 0x22
10000ab8:	430b      	orrs	r3, r1
10000aba:	8443      	strh	r3, [r0, #34]	; 0x22
10000abc:	2125      	movs	r1, #37	; 0x25
10000abe:	5c41      	ldrb	r1, [r0, r1]
10000ac0:	2424      	movs	r4, #36	; 0x24
10000ac2:	5d04      	ldrb	r4, [r0, r4]
10000ac4:	420c      	tst	r4, r1
10000ac6:	d003      	beq.n	10000ad0 <_m6522_tick_pipeline+0x24>
10000ac8:	8cc1      	ldrh	r1, [r0, #38]	; 0x26
10000aca:	2402      	movs	r4, #2
10000acc:	4321      	orrs	r1, r4
10000ace:	84c1      	strh	r1, [r0, #38]	; 0x26
10000ad0:	0852      	lsrs	r2, r2, #1
10000ad2:	4905      	ldr	r1, [pc, #20]	; (10000ae8 <_m6522_tick_pipeline+0x3c>)
10000ad4:	400a      	ands	r2, r1
10000ad6:	8342      	strh	r2, [r0, #26]
10000ad8:	085b      	lsrs	r3, r3, #1
10000ada:	400b      	ands	r3, r1
10000adc:	8443      	strh	r3, [r0, #34]	; 0x22
10000ade:	8cc3      	ldrh	r3, [r0, #38]	; 0x26
10000ae0:	085b      	lsrs	r3, r3, #1
10000ae2:	400b      	ands	r3, r1
10000ae4:	84c3      	strh	r3, [r0, #38]	; 0x26
10000ae6:	bd10      	pop	{r4, pc}
10000ae8:	00007f7f 	.word	0x00007f7f

10000aec <_m6522_update_cab>:
10000aec:	7983      	ldrb	r3, [r0, #6]
10000aee:	2b00      	cmp	r3, #0
10000af0:	d00a      	beq.n	10000b08 <_m6522_update_cab+0x1c>
10000af2:	2225      	movs	r2, #37	; 0x25
10000af4:	5c83      	ldrb	r3, [r0, r2]
10000af6:	2102      	movs	r1, #2
10000af8:	430b      	orrs	r3, r1
10000afa:	5483      	strb	r3, [r0, r2]
10000afc:	2329      	movs	r3, #41	; 0x29
10000afe:	5cc2      	ldrb	r2, [r0, r3]
10000b00:	3b1d      	subs	r3, #29
10000b02:	4013      	ands	r3, r2
10000b04:	2b08      	cmp	r3, #8
10000b06:	d026      	beq.n	10000b56 <_m6522_update_cab+0x6a>
10000b08:	7a43      	ldrb	r3, [r0, #9]
10000b0a:	2b00      	cmp	r3, #0
10000b0c:	d008      	beq.n	10000b20 <_m6522_update_cab+0x34>
10000b0e:	2329      	movs	r3, #41	; 0x29
10000b10:	5cc3      	ldrb	r3, [r0, r3]
10000b12:	071b      	lsls	r3, r3, #28
10000b14:	d404      	bmi.n	10000b20 <_m6522_update_cab+0x34>
10000b16:	2225      	movs	r2, #37	; 0x25
10000b18:	5c83      	ldrb	r3, [r0, r2]
10000b1a:	2101      	movs	r1, #1
10000b1c:	430b      	orrs	r3, r1
10000b1e:	5483      	strb	r3, [r0, r2]
10000b20:	7c03      	ldrb	r3, [r0, #16]
10000b22:	2b00      	cmp	r3, #0
10000b24:	d00a      	beq.n	10000b3c <_m6522_update_cab+0x50>
10000b26:	2225      	movs	r2, #37	; 0x25
10000b28:	5c83      	ldrb	r3, [r0, r2]
10000b2a:	2110      	movs	r1, #16
10000b2c:	430b      	orrs	r3, r1
10000b2e:	5483      	strb	r3, [r0, r2]
10000b30:	2329      	movs	r3, #41	; 0x29
10000b32:	5cc3      	ldrb	r3, [r0, r3]
10000b34:	321a      	adds	r2, #26
10000b36:	4393      	bics	r3, r2
10000b38:	2b80      	cmp	r3, #128	; 0x80
10000b3a:	d00f      	beq.n	10000b5c <_m6522_update_cab+0x70>
10000b3c:	7cc3      	ldrb	r3, [r0, #19]
10000b3e:	2b00      	cmp	r3, #0
10000b40:	d008      	beq.n	10000b54 <_m6522_update_cab+0x68>
10000b42:	2329      	movs	r3, #41	; 0x29
10000b44:	56c3      	ldrsb	r3, [r0, r3]
10000b46:	2b00      	cmp	r3, #0
10000b48:	db04      	blt.n	10000b54 <_m6522_update_cab+0x68>
10000b4a:	2225      	movs	r2, #37	; 0x25
10000b4c:	5c83      	ldrb	r3, [r0, r2]
10000b4e:	2108      	movs	r1, #8
10000b50:	430b      	orrs	r3, r1
10000b52:	5483      	strb	r3, [r0, r2]
10000b54:	4770      	bx	lr
10000b56:	3b07      	subs	r3, #7
10000b58:	7203      	strb	r3, [r0, #8]
10000b5a:	e7d5      	b.n	10000b08 <_m6522_update_cab+0x1c>
10000b5c:	3b7f      	subs	r3, #127	; 0x7f
10000b5e:	7483      	strb	r3, [r0, #18]
10000b60:	e7ec      	b.n	10000b3c <_m6522_update_cab+0x50>
	...

10000b64 <_m6522_update_irq>:
10000b64:	b530      	push	{r4, r5, lr}
10000b66:	8cc1      	ldrh	r1, [r0, #38]	; 0x26
10000b68:	07c9      	lsls	r1, r1, #31
10000b6a:	d505      	bpl.n	10000b78 <_m6522_update_irq+0x14>
10000b6c:	2425      	movs	r4, #37	; 0x25
10000b6e:	5d05      	ldrb	r5, [r0, r4]
10000b70:	2180      	movs	r1, #128	; 0x80
10000b72:	4249      	negs	r1, r1
10000b74:	4329      	orrs	r1, r5
10000b76:	5501      	strb	r1, [r0, r4]
10000b78:	2125      	movs	r1, #37	; 0x25
10000b7a:	5641      	ldrsb	r1, [r0, r1]
10000b7c:	2900      	cmp	r1, #0
10000b7e:	db03      	blt.n	10000b88 <_m6522_update_irq+0x24>
10000b80:	4804      	ldr	r0, [pc, #16]	; (10000b94 <_m6522_update_irq+0x30>)
10000b82:	4010      	ands	r0, r2
10000b84:	0019      	movs	r1, r3
10000b86:	bd30      	pop	{r4, r5, pc}
10000b88:	2080      	movs	r0, #128	; 0x80
10000b8a:	04c0      	lsls	r0, r0, #19
10000b8c:	4310      	orrs	r0, r2
10000b8e:	0019      	movs	r1, r3
10000b90:	e7f9      	b.n	10000b86 <_m6522_update_irq+0x22>
10000b92:	46c0      	nop			; (mov r8, r8)
10000b94:	fbffffff 	.word	0xfbffffff

10000b98 <_m6522_tick>:
10000b98:	b5f0      	push	{r4, r5, r6, r7, lr}
10000b9a:	46de      	mov	lr, fp
10000b9c:	4657      	mov	r7, sl
10000b9e:	464e      	mov	r6, r9
10000ba0:	4645      	mov	r5, r8
10000ba2:	b5e0      	push	{r5, r6, r7, lr}
10000ba4:	b083      	sub	sp, #12
10000ba6:	0004      	movs	r4, r0
10000ba8:	9200      	str	r2, [sp, #0]
10000baa:	001d      	movs	r5, r3
10000bac:	2380      	movs	r3, #128	; 0x80
10000bae:	00db      	lsls	r3, r3, #3
10000bb0:	402b      	ands	r3, r5
10000bb2:	001a      	movs	r2, r3
10000bb4:	1e51      	subs	r1, r2, #1
10000bb6:	418a      	sbcs	r2, r1
10000bb8:	b2d2      	uxtb	r2, r2
10000bba:	4694      	mov	ip, r2
10000bbc:	2180      	movs	r1, #128	; 0x80
10000bbe:	0109      	lsls	r1, r1, #4
10000bc0:	4029      	ands	r1, r5
10000bc2:	000a      	movs	r2, r1
10000bc4:	1e50      	subs	r0, r2, #1
10000bc6:	4182      	sbcs	r2, r0
10000bc8:	b2d2      	uxtb	r2, r2
10000bca:	4692      	mov	sl, r2
10000bcc:	2280      	movs	r2, #128	; 0x80
10000bce:	0152      	lsls	r2, r2, #5
10000bd0:	402a      	ands	r2, r5
10000bd2:	4691      	mov	r9, r2
10000bd4:	0010      	movs	r0, r2
10000bd6:	1e42      	subs	r2, r0, #1
10000bd8:	4190      	sbcs	r0, r2
10000bda:	b2c0      	uxtb	r0, r0
10000bdc:	2680      	movs	r6, #128	; 0x80
10000bde:	01b6      	lsls	r6, r6, #6
10000be0:	402e      	ands	r6, r5
10000be2:	46b0      	mov	r8, r6
10000be4:	0032      	movs	r2, r6
10000be6:	1e57      	subs	r7, r2, #1
10000be8:	41ba      	sbcs	r2, r7
10000bea:	b2d2      	uxtb	r2, r2
10000bec:	7927      	ldrb	r7, [r4, #4]
10000bee:	45bc      	cmp	ip, r7
10000bf0:	d00d      	beq.n	10000c0e <_m6522_tick+0x76>
10000bf2:	2b00      	cmp	r3, #0
10000bf4:	d003      	beq.n	10000bfe <_m6522_tick+0x66>
10000bf6:	2729      	movs	r7, #41	; 0x29
10000bf8:	5de7      	ldrb	r7, [r4, r7]
10000bfa:	07fe      	lsls	r6, r7, #31
10000bfc:	d425      	bmi.n	10000c4a <_m6522_tick+0xb2>
10000bfe:	2b00      	cmp	r3, #0
10000c00:	d125      	bne.n	10000c4e <_m6522_tick+0xb6>
10000c02:	2729      	movs	r7, #41	; 0x29
10000c04:	5de7      	ldrb	r7, [r4, r7]
10000c06:	07fe      	lsls	r6, r7, #31
10000c08:	d523      	bpl.n	10000c52 <_m6522_tick+0xba>
10000c0a:	2700      	movs	r7, #0
10000c0c:	e000      	b.n	10000c10 <_m6522_tick+0x78>
10000c0e:	2700      	movs	r7, #0
10000c10:	9701      	str	r7, [sp, #4]
10000c12:	71a7      	strb	r7, [r4, #6]
10000c14:	79e7      	ldrb	r7, [r4, #7]
10000c16:	45ba      	cmp	sl, r7
10000c18:	d01d      	beq.n	10000c56 <_m6522_tick+0xbe>
10000c1a:	2900      	cmp	r1, #0
10000c1c:	d009      	beq.n	10000c32 <_m6522_tick+0x9a>
10000c1e:	2729      	movs	r7, #41	; 0x29
10000c20:	5de7      	ldrb	r7, [r4, r7]
10000c22:	46bb      	mov	fp, r7
10000c24:	270c      	movs	r7, #12
10000c26:	46ba      	mov	sl, r7
10000c28:	465f      	mov	r7, fp
10000c2a:	4656      	mov	r6, sl
10000c2c:	4037      	ands	r7, r6
10000c2e:	2f04      	cmp	r7, #4
10000c30:	d027      	beq.n	10000c82 <_m6522_tick+0xea>
10000c32:	2900      	cmp	r1, #0
10000c34:	d128      	bne.n	10000c88 <_m6522_tick+0xf0>
10000c36:	2629      	movs	r6, #41	; 0x29
10000c38:	5da6      	ldrb	r6, [r4, r6]
10000c3a:	46b2      	mov	sl, r6
10000c3c:	260c      	movs	r6, #12
10000c3e:	4657      	mov	r7, sl
10000c40:	423e      	tst	r6, r7
10000c42:	d024      	beq.n	10000c8e <_m6522_tick+0xf6>
10000c44:	2600      	movs	r6, #0
10000c46:	46b2      	mov	sl, r6
10000c48:	e007      	b.n	10000c5a <_m6522_tick+0xc2>
10000c4a:	2701      	movs	r7, #1
10000c4c:	e7e0      	b.n	10000c10 <_m6522_tick+0x78>
10000c4e:	2700      	movs	r7, #0
10000c50:	e7de      	b.n	10000c10 <_m6522_tick+0x78>
10000c52:	2701      	movs	r7, #1
10000c54:	e7dc      	b.n	10000c10 <_m6522_tick+0x78>
10000c56:	2700      	movs	r7, #0
10000c58:	46ba      	mov	sl, r7
10000c5a:	4657      	mov	r7, sl
10000c5c:	7267      	strb	r7, [r4, #9]
10000c5e:	7ba7      	ldrb	r7, [r4, #14]
10000c60:	42b8      	cmp	r0, r7
10000c62:	d017      	beq.n	10000c94 <_m6522_tick+0xfc>
10000c64:	464f      	mov	r7, r9
10000c66:	2f00      	cmp	r7, #0
10000c68:	d003      	beq.n	10000c72 <_m6522_tick+0xda>
10000c6a:	2629      	movs	r6, #41	; 0x29
10000c6c:	5da6      	ldrb	r6, [r4, r6]
10000c6e:	06f6      	lsls	r6, r6, #27
10000c70:	d427      	bmi.n	10000cc2 <_m6522_tick+0x12a>
10000c72:	2b00      	cmp	r3, #0
10000c74:	d127      	bne.n	10000cc6 <_m6522_tick+0x12e>
10000c76:	3329      	adds	r3, #41	; 0x29
10000c78:	5ce3      	ldrb	r3, [r4, r3]
10000c7a:	06db      	lsls	r3, r3, #27
10000c7c:	d525      	bpl.n	10000cca <_m6522_tick+0x132>
10000c7e:	2300      	movs	r3, #0
10000c80:	e009      	b.n	10000c96 <_m6522_tick+0xfe>
10000c82:	2601      	movs	r6, #1
10000c84:	46b2      	mov	sl, r6
10000c86:	e7e8      	b.n	10000c5a <_m6522_tick+0xc2>
10000c88:	2600      	movs	r6, #0
10000c8a:	46b2      	mov	sl, r6
10000c8c:	e7e5      	b.n	10000c5a <_m6522_tick+0xc2>
10000c8e:	2601      	movs	r6, #1
10000c90:	46b2      	mov	sl, r6
10000c92:	e7e2      	b.n	10000c5a <_m6522_tick+0xc2>
10000c94:	2300      	movs	r3, #0
10000c96:	7423      	strb	r3, [r4, #16]
10000c98:	7c67      	ldrb	r7, [r4, #17]
10000c9a:	42ba      	cmp	r2, r7
10000c9c:	d017      	beq.n	10000cce <_m6522_tick+0x136>
10000c9e:	4646      	mov	r6, r8
10000ca0:	2e00      	cmp	r6, #0
10000ca2:	d005      	beq.n	10000cb0 <_m6522_tick+0x118>
10000ca4:	2629      	movs	r6, #41	; 0x29
10000ca6:	5da6      	ldrb	r6, [r4, r6]
10000ca8:	273f      	movs	r7, #63	; 0x3f
10000caa:	43be      	bics	r6, r7
10000cac:	2e40      	cmp	r6, #64	; 0x40
10000cae:	d021      	beq.n	10000cf4 <_m6522_tick+0x15c>
10000cb0:	2900      	cmp	r1, #0
10000cb2:	d121      	bne.n	10000cf8 <_m6522_tick+0x160>
10000cb4:	3129      	adds	r1, #41	; 0x29
10000cb6:	5c61      	ldrb	r1, [r4, r1]
10000cb8:	263f      	movs	r6, #63	; 0x3f
10000cba:	43b1      	bics	r1, r6
10000cbc:	d01e      	beq.n	10000cfc <_m6522_tick+0x164>
10000cbe:	2100      	movs	r1, #0
10000cc0:	e006      	b.n	10000cd0 <_m6522_tick+0x138>
10000cc2:	2301      	movs	r3, #1
10000cc4:	e7e7      	b.n	10000c96 <_m6522_tick+0xfe>
10000cc6:	2300      	movs	r3, #0
10000cc8:	e7e5      	b.n	10000c96 <_m6522_tick+0xfe>
10000cca:	2301      	movs	r3, #1
10000ccc:	e7e3      	b.n	10000c96 <_m6522_tick+0xfe>
10000cce:	2100      	movs	r1, #0
10000cd0:	2601      	movs	r6, #1
10000cd2:	4031      	ands	r1, r6
10000cd4:	74e1      	strb	r1, [r4, #19]
10000cd6:	4661      	mov	r1, ip
10000cd8:	7121      	strb	r1, [r4, #4]
10000cda:	71e2      	strb	r2, [r4, #7]
10000cdc:	73a0      	strb	r0, [r4, #14]
10000cde:	7462      	strb	r2, [r4, #17]
10000ce0:	2228      	movs	r2, #40	; 0x28
10000ce2:	5ca2      	ldrb	r2, [r4, r2]
10000ce4:	4216      	tst	r6, r2
10000ce6:	d00b      	beq.n	10000d00 <_m6522_tick+0x168>
10000ce8:	9901      	ldr	r1, [sp, #4]
10000cea:	2900      	cmp	r1, #0
10000cec:	d00a      	beq.n	10000d04 <_m6522_tick+0x16c>
10000cee:	0c29      	lsrs	r1, r5, #16
10000cf0:	7021      	strb	r1, [r4, #0]
10000cf2:	e007      	b.n	10000d04 <_m6522_tick+0x16c>
10000cf4:	2101      	movs	r1, #1
10000cf6:	e7eb      	b.n	10000cd0 <_m6522_tick+0x138>
10000cf8:	2100      	movs	r1, #0
10000cfa:	e7e9      	b.n	10000cd0 <_m6522_tick+0x138>
10000cfc:	2101      	movs	r1, #1
10000cfe:	e7e7      	b.n	10000cd0 <_m6522_tick+0x138>
10000d00:	0c29      	lsrs	r1, r5, #16
10000d02:	7021      	strb	r1, [r4, #0]
10000d04:	0792      	lsls	r2, r2, #30
10000d06:	d504      	bpl.n	10000d12 <_m6522_tick+0x17a>
10000d08:	2b00      	cmp	r3, #0
10000d0a:	d004      	beq.n	10000d16 <_m6522_tick+0x17e>
10000d0c:	0e2b      	lsrs	r3, r5, #24
10000d0e:	72a3      	strb	r3, [r4, #10]
10000d10:	e001      	b.n	10000d16 <_m6522_tick+0x17e>
10000d12:	0e2b      	lsrs	r3, r5, #24
10000d14:	72a3      	strb	r3, [r4, #10]
10000d16:	0020      	movs	r0, r4
10000d18:	f7ff fee8 	bl	10000aec <_m6522_update_cab>
10000d1c:	0020      	movs	r0, r4
10000d1e:	f7ff fe61 	bl	100009e4 <_m6522_tick_t1>
10000d22:	9e00      	ldr	r6, [sp, #0]
10000d24:	0032      	movs	r2, r6
10000d26:	002b      	movs	r3, r5
10000d28:	0020      	movs	r0, r4
10000d2a:	f7ff fe91 	bl	10000a50 <_m6522_tick_t2>
10000d2e:	0032      	movs	r2, r6
10000d30:	002b      	movs	r3, r5
10000d32:	0020      	movs	r0, r4
10000d34:	f7ff ff16 	bl	10000b64 <_m6522_update_irq>
10000d38:	2500      	movs	r5, #0
10000d3a:	5765      	ldrsb	r5, [r4, r5]
10000d3c:	78a2      	ldrb	r2, [r4, #2]
10000d3e:	4395      	bics	r5, r2
10000d40:	b26d      	sxtb	r5, r5
10000d42:	7863      	ldrb	r3, [r4, #1]
10000d44:	4013      	ands	r3, r2
10000d46:	431d      	orrs	r5, r3
10000d48:	b2ea      	uxtb	r2, r5
10000d4a:	70e2      	strb	r2, [r4, #3]
10000d4c:	230a      	movs	r3, #10
10000d4e:	56e3      	ldrsb	r3, [r4, r3]
10000d50:	7b26      	ldrb	r6, [r4, #12]
10000d52:	43b3      	bics	r3, r6
10000d54:	b25b      	sxtb	r3, r3
10000d56:	7ae5      	ldrb	r5, [r4, #11]
10000d58:	4035      	ands	r5, r6
10000d5a:	432b      	orrs	r3, r5
10000d5c:	b2db      	uxtb	r3, r3
10000d5e:	2528      	movs	r5, #40	; 0x28
10000d60:	5765      	ldrsb	r5, [r4, r5]
10000d62:	2d00      	cmp	r5, #0
10000d64:	db2d      	blt.n	10000dc2 <_m6522_tick+0x22a>
10000d66:	7363      	strb	r3, [r4, #13]
10000d68:	040d      	lsls	r5, r1, #16
10000d6a:	0c2d      	lsrs	r5, r5, #16
10000d6c:	0412      	lsls	r2, r2, #16
10000d6e:	4315      	orrs	r5, r2
10000d70:	061b      	lsls	r3, r3, #24
10000d72:	431d      	orrs	r5, r3
10000d74:	0006      	movs	r6, r0
10000d76:	4918      	ldr	r1, [pc, #96]	; (10000dd8 <_m6522_tick+0x240>)
10000d78:	400d      	ands	r5, r1
10000d7a:	7963      	ldrb	r3, [r4, #5]
10000d7c:	2b00      	cmp	r3, #0
10000d7e:	d002      	beq.n	10000d86 <_m6522_tick+0x1ee>
10000d80:	2380      	movs	r3, #128	; 0x80
10000d82:	00db      	lsls	r3, r3, #3
10000d84:	431d      	orrs	r5, r3
10000d86:	7a23      	ldrb	r3, [r4, #8]
10000d88:	2b00      	cmp	r3, #0
10000d8a:	d002      	beq.n	10000d92 <_m6522_tick+0x1fa>
10000d8c:	2380      	movs	r3, #128	; 0x80
10000d8e:	011b      	lsls	r3, r3, #4
10000d90:	431d      	orrs	r5, r3
10000d92:	7be3      	ldrb	r3, [r4, #15]
10000d94:	2b00      	cmp	r3, #0
10000d96:	d002      	beq.n	10000d9e <_m6522_tick+0x206>
10000d98:	2380      	movs	r3, #128	; 0x80
10000d9a:	015b      	lsls	r3, r3, #5
10000d9c:	431d      	orrs	r5, r3
10000d9e:	7ca3      	ldrb	r3, [r4, #18]
10000da0:	2b00      	cmp	r3, #0
10000da2:	d002      	beq.n	10000daa <_m6522_tick+0x212>
10000da4:	2380      	movs	r3, #128	; 0x80
10000da6:	019b      	lsls	r3, r3, #6
10000da8:	431d      	orrs	r5, r3
10000daa:	0020      	movs	r0, r4
10000dac:	f7ff fe7e 	bl	10000aac <_m6522_tick_pipeline>
10000db0:	0030      	movs	r0, r6
10000db2:	0029      	movs	r1, r5
10000db4:	b003      	add	sp, #12
10000db6:	bc3c      	pop	{r2, r3, r4, r5}
10000db8:	4690      	mov	r8, r2
10000dba:	4699      	mov	r9, r3
10000dbc:	46a2      	mov	sl, r4
10000dbe:	46ab      	mov	fp, r5
10000dc0:	bdf0      	pop	{r4, r5, r6, r7, pc}
10000dc2:	257f      	movs	r5, #127	; 0x7f
10000dc4:	402b      	ands	r3, r5
10000dc6:	7e25      	ldrb	r5, [r4, #24]
10000dc8:	2d00      	cmp	r5, #0
10000dca:	d0cc      	beq.n	10000d66 <_m6522_tick+0x1ce>
10000dcc:	2580      	movs	r5, #128	; 0x80
10000dce:	426d      	negs	r5, r5
10000dd0:	432b      	orrs	r3, r5
10000dd2:	b2db      	uxtb	r3, r3
10000dd4:	e7c7      	b.n	10000d66 <_m6522_tick+0x1ce>
10000dd6:	46c0      	nop			; (mov r8, r8)
10000dd8:	ffffc3ff 	.word	0xffffc3ff

10000ddc <_m6522_read>:
10000ddc:	b530      	push	{r4, r5, lr}
10000dde:	0003      	movs	r3, r0
10000de0:	290f      	cmp	r1, #15
10000de2:	d900      	bls.n	10000de6 <_m6522_read+0xa>
10000de4:	e09f      	b.n	10000f26 <_m6522_read+0x14a>
10000de6:	0089      	lsls	r1, r1, #2
10000de8:	4a50      	ldr	r2, [pc, #320]	; (10000f2c <_m6522_read+0x150>)
10000dea:	5852      	ldr	r2, [r2, r1]
10000dec:	4697      	mov	pc, r2
10000dee:	2228      	movs	r2, #40	; 0x28
10000df0:	5c82      	ldrb	r2, [r0, r2]
10000df2:	0792      	lsls	r2, r2, #30
10000df4:	d519      	bpl.n	10000e2a <_m6522_read+0x4e>
10000df6:	7a80      	ldrb	r0, [r0, #10]
10000df8:	2229      	movs	r2, #41	; 0x29
10000dfa:	5c9a      	ldrb	r2, [r3, r2]
10000dfc:	215f      	movs	r1, #95	; 0x5f
10000dfe:	438a      	bics	r2, r1
10000e00:	2a20      	cmp	r2, #32
10000e02:	d014      	beq.n	10000e2e <_m6522_read+0x52>
10000e04:	2418      	movs	r4, #24
10000e06:	2125      	movs	r1, #37	; 0x25
10000e08:	5c5a      	ldrb	r2, [r3, r1]
10000e0a:	43a2      	bics	r2, r4
10000e0c:	545a      	strb	r2, [r3, r1]
10000e0e:	3901      	subs	r1, #1
10000e10:	5c59      	ldrb	r1, [r3, r1]
10000e12:	4011      	ands	r1, r2
10000e14:	0649      	lsls	r1, r1, #25
10000e16:	d138      	bne.n	10000e8a <_m6522_read+0xae>
10000e18:	217f      	movs	r1, #127	; 0x7f
10000e1a:	400a      	ands	r2, r1
10000e1c:	395a      	subs	r1, #90	; 0x5a
10000e1e:	545a      	strb	r2, [r3, r1]
10000e20:	8cda      	ldrh	r2, [r3, #38]	; 0x26
10000e22:	31da      	adds	r1, #218	; 0xda
10000e24:	438a      	bics	r2, r1
10000e26:	84da      	strh	r2, [r3, #38]	; 0x26
10000e28:	e02f      	b.n	10000e8a <_m6522_read+0xae>
10000e2a:	7b40      	ldrb	r0, [r0, #13]
10000e2c:	e7e4      	b.n	10000df8 <_m6522_read+0x1c>
10000e2e:	2410      	movs	r4, #16
10000e30:	e7e9      	b.n	10000e06 <_m6522_read+0x2a>
10000e32:	2228      	movs	r2, #40	; 0x28
10000e34:	5c82      	ldrb	r2, [r0, r2]
10000e36:	07d2      	lsls	r2, r2, #31
10000e38:	d524      	bpl.n	10000e84 <_m6522_read+0xa8>
10000e3a:	7800      	ldrb	r0, [r0, #0]
10000e3c:	2229      	movs	r2, #41	; 0x29
10000e3e:	5c9c      	ldrb	r4, [r3, r2]
10000e40:	3a1f      	subs	r2, #31
10000e42:	4022      	ands	r2, r4
10000e44:	2a02      	cmp	r2, #2
10000e46:	d000      	beq.n	10000e4a <_m6522_read+0x6e>
10000e48:	2203      	movs	r2, #3
10000e4a:	2525      	movs	r5, #37	; 0x25
10000e4c:	5d59      	ldrb	r1, [r3, r5]
10000e4e:	4391      	bics	r1, r2
10000e50:	000a      	movs	r2, r1
10000e52:	5559      	strb	r1, [r3, r5]
10000e54:	2124      	movs	r1, #36	; 0x24
10000e56:	5c59      	ldrb	r1, [r3, r1]
10000e58:	4011      	ands	r1, r2
10000e5a:	0649      	lsls	r1, r1, #25
10000e5c:	d107      	bne.n	10000e6e <_m6522_read+0x92>
10000e5e:	217f      	movs	r1, #127	; 0x7f
10000e60:	400a      	ands	r2, r1
10000e62:	395a      	subs	r1, #90	; 0x5a
10000e64:	545a      	strb	r2, [r3, r1]
10000e66:	8cda      	ldrh	r2, [r3, #38]	; 0x26
10000e68:	31da      	adds	r1, #218	; 0xda
10000e6a:	438a      	bics	r2, r1
10000e6c:	84da      	strh	r2, [r3, #38]	; 0x26
10000e6e:	220e      	movs	r2, #14
10000e70:	4022      	ands	r2, r4
10000e72:	2a0a      	cmp	r2, #10
10000e74:	d003      	beq.n	10000e7e <_m6522_read+0xa2>
10000e76:	220c      	movs	r2, #12
10000e78:	4014      	ands	r4, r2
10000e7a:	2c08      	cmp	r4, #8
10000e7c:	d105      	bne.n	10000e8a <_m6522_read+0xae>
10000e7e:	2200      	movs	r2, #0
10000e80:	721a      	strb	r2, [r3, #8]
10000e82:	e002      	b.n	10000e8a <_m6522_read+0xae>
10000e84:	78c0      	ldrb	r0, [r0, #3]
10000e86:	e7d9      	b.n	10000e3c <_m6522_read+0x60>
10000e88:	7b00      	ldrb	r0, [r0, #12]
10000e8a:	bd30      	pop	{r4, r5, pc}
10000e8c:	7880      	ldrb	r0, [r0, #2]
10000e8e:	e7fc      	b.n	10000e8a <_m6522_read+0xae>
10000e90:	7d80      	ldrb	r0, [r0, #22]
10000e92:	2125      	movs	r1, #37	; 0x25
10000e94:	5c5a      	ldrb	r2, [r3, r1]
10000e96:	2440      	movs	r4, #64	; 0x40
10000e98:	43a2      	bics	r2, r4
10000e9a:	545a      	strb	r2, [r3, r1]
10000e9c:	3901      	subs	r1, #1
10000e9e:	5c59      	ldrb	r1, [r3, r1]
10000ea0:	4011      	ands	r1, r2
10000ea2:	0649      	lsls	r1, r1, #25
10000ea4:	d1f1      	bne.n	10000e8a <_m6522_read+0xae>
10000ea6:	217f      	movs	r1, #127	; 0x7f
10000ea8:	400a      	ands	r2, r1
10000eaa:	395a      	subs	r1, #90	; 0x5a
10000eac:	545a      	strb	r2, [r3, r1]
10000eae:	8cda      	ldrh	r2, [r3, #38]	; 0x26
10000eb0:	31da      	adds	r1, #218	; 0xda
10000eb2:	438a      	bics	r2, r1
10000eb4:	84da      	strh	r2, [r3, #38]	; 0x26
10000eb6:	e7e8      	b.n	10000e8a <_m6522_read+0xae>
10000eb8:	8ac0      	ldrh	r0, [r0, #22]
10000eba:	0a00      	lsrs	r0, r0, #8
10000ebc:	e7e5      	b.n	10000e8a <_m6522_read+0xae>
10000ebe:	7d00      	ldrb	r0, [r0, #20]
10000ec0:	e7e3      	b.n	10000e8a <_m6522_read+0xae>
10000ec2:	8a80      	ldrh	r0, [r0, #20]
10000ec4:	0a00      	lsrs	r0, r0, #8
10000ec6:	e7e0      	b.n	10000e8a <_m6522_read+0xae>
10000ec8:	7f80      	ldrb	r0, [r0, #30]
10000eca:	2125      	movs	r1, #37	; 0x25
10000ecc:	5c5a      	ldrb	r2, [r3, r1]
10000ece:	2420      	movs	r4, #32
10000ed0:	43a2      	bics	r2, r4
10000ed2:	545a      	strb	r2, [r3, r1]
10000ed4:	3901      	subs	r1, #1
10000ed6:	5c59      	ldrb	r1, [r3, r1]
10000ed8:	4011      	ands	r1, r2
10000eda:	0649      	lsls	r1, r1, #25
10000edc:	d1d5      	bne.n	10000e8a <_m6522_read+0xae>
10000ede:	217f      	movs	r1, #127	; 0x7f
10000ee0:	400a      	ands	r2, r1
10000ee2:	395a      	subs	r1, #90	; 0x5a
10000ee4:	545a      	strb	r2, [r3, r1]
10000ee6:	8cda      	ldrh	r2, [r3, #38]	; 0x26
10000ee8:	31da      	adds	r1, #218	; 0xda
10000eea:	438a      	bics	r2, r1
10000eec:	84da      	strh	r2, [r3, #38]	; 0x26
10000eee:	e7cc      	b.n	10000e8a <_m6522_read+0xae>
10000ef0:	8bc0      	ldrh	r0, [r0, #30]
10000ef2:	0a00      	lsrs	r0, r0, #8
10000ef4:	e7c9      	b.n	10000e8a <_m6522_read+0xae>
10000ef6:	2228      	movs	r2, #40	; 0x28
10000ef8:	5c80      	ldrb	r0, [r0, r2]
10000efa:	e7c6      	b.n	10000e8a <_m6522_read+0xae>
10000efc:	2229      	movs	r2, #41	; 0x29
10000efe:	5c80      	ldrb	r0, [r0, r2]
10000f00:	e7c3      	b.n	10000e8a <_m6522_read+0xae>
10000f02:	2225      	movs	r2, #37	; 0x25
10000f04:	5c80      	ldrb	r0, [r0, r2]
10000f06:	e7c0      	b.n	10000e8a <_m6522_read+0xae>
10000f08:	2224      	movs	r2, #36	; 0x24
10000f0a:	5c83      	ldrb	r3, [r0, r2]
10000f0c:	2080      	movs	r0, #128	; 0x80
10000f0e:	4240      	negs	r0, r0
10000f10:	4318      	orrs	r0, r3
10000f12:	b2c0      	uxtb	r0, r0
10000f14:	e7b9      	b.n	10000e8a <_m6522_read+0xae>
10000f16:	2228      	movs	r2, #40	; 0x28
10000f18:	5c82      	ldrb	r2, [r0, r2]
10000f1a:	07d2      	lsls	r2, r2, #31
10000f1c:	d501      	bpl.n	10000f22 <_m6522_read+0x146>
10000f1e:	7800      	ldrb	r0, [r0, #0]
10000f20:	e7b3      	b.n	10000e8a <_m6522_read+0xae>
10000f22:	78c0      	ldrb	r0, [r0, #3]
10000f24:	e7b1      	b.n	10000e8a <_m6522_read+0xae>
10000f26:	2000      	movs	r0, #0
10000f28:	e7af      	b.n	10000e8a <_m6522_read+0xae>
10000f2a:	46c0      	nop			; (mov r8, r8)
10000f2c:	10009d98 	.word	0x10009d98

10000f30 <_m6522_write>:
10000f30:	b510      	push	{r4, lr}
10000f32:	290f      	cmp	r1, #15
10000f34:	d84c      	bhi.n	10000fd0 <_m6522_write+0xa0>
10000f36:	0089      	lsls	r1, r1, #2
10000f38:	4b7e      	ldr	r3, [pc, #504]	; (10001134 <_m6522_write+0x204>)
10000f3a:	585b      	ldr	r3, [r3, r1]
10000f3c:	469f      	mov	pc, r3
10000f3e:	72c2      	strb	r2, [r0, #11]
10000f40:	2329      	movs	r3, #41	; 0x29
10000f42:	5cc2      	ldrb	r2, [r0, r3]
10000f44:	3336      	adds	r3, #54	; 0x36
10000f46:	0011      	movs	r1, r2
10000f48:	4399      	bics	r1, r3
10000f4a:	2920      	cmp	r1, #32
10000f4c:	d018      	beq.n	10000f80 <_m6522_write+0x50>
10000f4e:	2418      	movs	r4, #24
10000f50:	2125      	movs	r1, #37	; 0x25
10000f52:	5c43      	ldrb	r3, [r0, r1]
10000f54:	43a3      	bics	r3, r4
10000f56:	5443      	strb	r3, [r0, r1]
10000f58:	3901      	subs	r1, #1
10000f5a:	5c41      	ldrb	r1, [r0, r1]
10000f5c:	4019      	ands	r1, r3
10000f5e:	0649      	lsls	r1, r1, #25
10000f60:	d107      	bne.n	10000f72 <_m6522_write+0x42>
10000f62:	217f      	movs	r1, #127	; 0x7f
10000f64:	400b      	ands	r3, r1
10000f66:	395a      	subs	r1, #90	; 0x5a
10000f68:	5443      	strb	r3, [r0, r1]
10000f6a:	8cc3      	ldrh	r3, [r0, #38]	; 0x26
10000f6c:	31da      	adds	r1, #218	; 0xda
10000f6e:	438b      	bics	r3, r1
10000f70:	84c3      	strh	r3, [r0, #38]	; 0x26
10000f72:	233f      	movs	r3, #63	; 0x3f
10000f74:	439a      	bics	r2, r3
10000f76:	2a80      	cmp	r2, #128	; 0x80
10000f78:	d12a      	bne.n	10000fd0 <_m6522_write+0xa0>
10000f7a:	2300      	movs	r3, #0
10000f7c:	7483      	strb	r3, [r0, #18]
10000f7e:	e027      	b.n	10000fd0 <_m6522_write+0xa0>
10000f80:	2410      	movs	r4, #16
10000f82:	e7e5      	b.n	10000f50 <_m6522_write+0x20>
10000f84:	7042      	strb	r2, [r0, #1]
10000f86:	2329      	movs	r3, #41	; 0x29
10000f88:	5cc1      	ldrb	r1, [r0, r3]
10000f8a:	3b1f      	subs	r3, #31
10000f8c:	400b      	ands	r3, r1
10000f8e:	2b02      	cmp	r3, #2
10000f90:	d000      	beq.n	10000f94 <_m6522_write+0x64>
10000f92:	2303      	movs	r3, #3
10000f94:	2425      	movs	r4, #37	; 0x25
10000f96:	5d02      	ldrb	r2, [r0, r4]
10000f98:	439a      	bics	r2, r3
10000f9a:	0013      	movs	r3, r2
10000f9c:	5502      	strb	r2, [r0, r4]
10000f9e:	2224      	movs	r2, #36	; 0x24
10000fa0:	5c82      	ldrb	r2, [r0, r2]
10000fa2:	401a      	ands	r2, r3
10000fa4:	0652      	lsls	r2, r2, #25
10000fa6:	d107      	bne.n	10000fb8 <_m6522_write+0x88>
10000fa8:	227f      	movs	r2, #127	; 0x7f
10000faa:	4013      	ands	r3, r2
10000fac:	3a5a      	subs	r2, #90	; 0x5a
10000fae:	5483      	strb	r3, [r0, r2]
10000fb0:	8cc3      	ldrh	r3, [r0, #38]	; 0x26
10000fb2:	32da      	adds	r2, #218	; 0xda
10000fb4:	4393      	bics	r3, r2
10000fb6:	84c3      	strh	r3, [r0, #38]	; 0x26
10000fb8:	230e      	movs	r3, #14
10000fba:	400b      	ands	r3, r1
10000fbc:	2b0a      	cmp	r3, #10
10000fbe:	d003      	beq.n	10000fc8 <_m6522_write+0x98>
10000fc0:	230c      	movs	r3, #12
10000fc2:	4019      	ands	r1, r3
10000fc4:	2908      	cmp	r1, #8
10000fc6:	d103      	bne.n	10000fd0 <_m6522_write+0xa0>
10000fc8:	2300      	movs	r3, #0
10000fca:	7203      	strb	r3, [r0, #8]
10000fcc:	e000      	b.n	10000fd0 <_m6522_write+0xa0>
10000fce:	7302      	strb	r2, [r0, #12]
10000fd0:	bd10      	pop	{r4, pc}
10000fd2:	7082      	strb	r2, [r0, #2]
10000fd4:	e7fc      	b.n	10000fd0 <_m6522_write+0xa0>
10000fd6:	2114      	movs	r1, #20
10000fd8:	5e43      	ldrsh	r3, [r0, r1]
10000fda:	21ff      	movs	r1, #255	; 0xff
10000fdc:	438b      	bics	r3, r1
10000fde:	431a      	orrs	r2, r3
10000fe0:	8282      	strh	r2, [r0, #20]
10000fe2:	e7f5      	b.n	10000fd0 <_m6522_write+0xa0>
10000fe4:	0213      	lsls	r3, r2, #8
10000fe6:	2214      	movs	r2, #20
10000fe8:	5e81      	ldrsh	r1, [r0, r2]
10000fea:	22ff      	movs	r2, #255	; 0xff
10000fec:	400a      	ands	r2, r1
10000fee:	431a      	orrs	r2, r3
10000ff0:	8282      	strh	r2, [r0, #20]
10000ff2:	2125      	movs	r1, #37	; 0x25
10000ff4:	5c43      	ldrb	r3, [r0, r1]
10000ff6:	2440      	movs	r4, #64	; 0x40
10000ff8:	43a3      	bics	r3, r4
10000ffa:	5443      	strb	r3, [r0, r1]
10000ffc:	3901      	subs	r1, #1
10000ffe:	5c41      	ldrb	r1, [r0, r1]
10001000:	4019      	ands	r1, r3
10001002:	0649      	lsls	r1, r1, #25
10001004:	d107      	bne.n	10001016 <_m6522_write+0xe6>
10001006:	217f      	movs	r1, #127	; 0x7f
10001008:	400b      	ands	r3, r1
1000100a:	395a      	subs	r1, #90	; 0x5a
1000100c:	5443      	strb	r3, [r0, r1]
1000100e:	8cc3      	ldrh	r3, [r0, #38]	; 0x26
10001010:	31da      	adds	r1, #218	; 0xda
10001012:	438b      	bics	r3, r1
10001014:	84c3      	strh	r3, [r0, #38]	; 0x26
10001016:	2300      	movs	r3, #0
10001018:	7603      	strb	r3, [r0, #24]
1000101a:	82c2      	strh	r2, [r0, #22]
1000101c:	e7d8      	b.n	10000fd0 <_m6522_write+0xa0>
1000101e:	0213      	lsls	r3, r2, #8
10001020:	2214      	movs	r2, #20
10001022:	5e81      	ldrsh	r1, [r0, r2]
10001024:	22ff      	movs	r2, #255	; 0xff
10001026:	400a      	ands	r2, r1
10001028:	431a      	orrs	r2, r3
1000102a:	8282      	strh	r2, [r0, #20]
1000102c:	2225      	movs	r2, #37	; 0x25
1000102e:	5c83      	ldrb	r3, [r0, r2]
10001030:	2140      	movs	r1, #64	; 0x40
10001032:	438b      	bics	r3, r1
10001034:	5483      	strb	r3, [r0, r2]
10001036:	3a01      	subs	r2, #1
10001038:	5c82      	ldrb	r2, [r0, r2]
1000103a:	401a      	ands	r2, r3
1000103c:	0652      	lsls	r2, r2, #25
1000103e:	d1c7      	bne.n	10000fd0 <_m6522_write+0xa0>
10001040:	227f      	movs	r2, #127	; 0x7f
10001042:	4013      	ands	r3, r2
10001044:	3a5a      	subs	r2, #90	; 0x5a
10001046:	5483      	strb	r3, [r0, r2]
10001048:	8cc3      	ldrh	r3, [r0, #38]	; 0x26
1000104a:	32da      	adds	r2, #218	; 0xda
1000104c:	4393      	bics	r3, r2
1000104e:	84c3      	strh	r3, [r0, #38]	; 0x26
10001050:	e7be      	b.n	10000fd0 <_m6522_write+0xa0>
10001052:	211c      	movs	r1, #28
10001054:	5e43      	ldrsh	r3, [r0, r1]
10001056:	21ff      	movs	r1, #255	; 0xff
10001058:	438b      	bics	r3, r1
1000105a:	431a      	orrs	r2, r3
1000105c:	8382      	strh	r2, [r0, #28]
1000105e:	e7b7      	b.n	10000fd0 <_m6522_write+0xa0>
10001060:	0213      	lsls	r3, r2, #8
10001062:	221c      	movs	r2, #28
10001064:	5e81      	ldrsh	r1, [r0, r2]
10001066:	22ff      	movs	r2, #255	; 0xff
10001068:	400a      	ands	r2, r1
1000106a:	431a      	orrs	r2, r3
1000106c:	8382      	strh	r2, [r0, #28]
1000106e:	2125      	movs	r1, #37	; 0x25
10001070:	5c43      	ldrb	r3, [r0, r1]
10001072:	2420      	movs	r4, #32
10001074:	43a3      	bics	r3, r4
10001076:	5443      	strb	r3, [r0, r1]
10001078:	3901      	subs	r1, #1
1000107a:	5c41      	ldrb	r1, [r0, r1]
1000107c:	4019      	ands	r1, r3
1000107e:	0649      	lsls	r1, r1, #25
10001080:	d107      	bne.n	10001092 <_m6522_write+0x162>
10001082:	217f      	movs	r1, #127	; 0x7f
10001084:	400b      	ands	r3, r1
10001086:	395a      	subs	r1, #90	; 0x5a
10001088:	5443      	strb	r3, [r0, r1]
1000108a:	8cc3      	ldrh	r3, [r0, #38]	; 0x26
1000108c:	31da      	adds	r1, #218	; 0xda
1000108e:	438b      	bics	r3, r1
10001090:	84c3      	strh	r3, [r0, #38]	; 0x26
10001092:	2320      	movs	r3, #32
10001094:	2100      	movs	r1, #0
10001096:	54c1      	strb	r1, [r0, r3]
10001098:	83c2      	strh	r2, [r0, #30]
1000109a:	e799      	b.n	10000fd0 <_m6522_write+0xa0>
1000109c:	2328      	movs	r3, #40	; 0x28
1000109e:	54c2      	strb	r2, [r0, r3]
100010a0:	0693      	lsls	r3, r2, #26
100010a2:	d500      	bpl.n	100010a6 <_m6522_write+0x176>
100010a4:	e794      	b.n	10000fd0 <_m6522_write+0xa0>
100010a6:	8c43      	ldrh	r3, [r0, #34]	; 0x22
100010a8:	2201      	movs	r2, #1
100010aa:	4393      	bics	r3, r2
100010ac:	8443      	strh	r3, [r0, #34]	; 0x22
100010ae:	e78f      	b.n	10000fd0 <_m6522_write+0xa0>
100010b0:	2329      	movs	r3, #41	; 0x29
100010b2:	54c2      	strb	r2, [r0, r3]
100010b4:	0011      	movs	r1, r2
100010b6:	3b1d      	subs	r3, #29
100010b8:	4013      	ands	r3, r2
100010ba:	2b0c      	cmp	r3, #12
100010bc:	d009      	beq.n	100010d2 <_m6522_write+0x1a2>
100010be:	233f      	movs	r3, #63	; 0x3f
100010c0:	439a      	bics	r2, r3
100010c2:	2ac0      	cmp	r2, #192	; 0xc0
100010c4:	d000      	beq.n	100010c8 <_m6522_write+0x198>
100010c6:	e783      	b.n	10000fd0 <_m6522_write+0xa0>
100010c8:	1149      	asrs	r1, r1, #5
100010ca:	3b3e      	subs	r3, #62	; 0x3e
100010cc:	4019      	ands	r1, r3
100010ce:	7481      	strb	r1, [r0, #18]
100010d0:	e77e      	b.n	10000fd0 <_m6522_write+0xa0>
100010d2:	1054      	asrs	r4, r2, #1
100010d4:	3b0b      	subs	r3, #11
100010d6:	4023      	ands	r3, r4
100010d8:	7203      	strb	r3, [r0, #8]
100010da:	e7f0      	b.n	100010be <_m6522_write+0x18e>
100010dc:	b253      	sxtb	r3, r2
100010de:	2b00      	cmp	r3, #0
100010e0:	db12      	blt.n	10001108 <_m6522_write+0x1d8>
100010e2:	2125      	movs	r1, #37	; 0x25
100010e4:	5c43      	ldrb	r3, [r0, r1]
100010e6:	4393      	bics	r3, r2
100010e8:	5443      	strb	r3, [r0, r1]
100010ea:	2224      	movs	r2, #36	; 0x24
100010ec:	5c82      	ldrb	r2, [r0, r2]
100010ee:	401a      	ands	r2, r3
100010f0:	0652      	lsls	r2, r2, #25
100010f2:	d000      	beq.n	100010f6 <_m6522_write+0x1c6>
100010f4:	e76c      	b.n	10000fd0 <_m6522_write+0xa0>
100010f6:	227f      	movs	r2, #127	; 0x7f
100010f8:	4013      	ands	r3, r2
100010fa:	3a5a      	subs	r2, #90	; 0x5a
100010fc:	5483      	strb	r3, [r0, r2]
100010fe:	8cc3      	ldrh	r3, [r0, #38]	; 0x26
10001100:	32da      	adds	r2, #218	; 0xda
10001102:	4393      	bics	r3, r2
10001104:	84c3      	strh	r3, [r0, #38]	; 0x26
10001106:	e763      	b.n	10000fd0 <_m6522_write+0xa0>
10001108:	227f      	movs	r2, #127	; 0x7f
1000110a:	e7ea      	b.n	100010e2 <_m6522_write+0x1b2>
1000110c:	b251      	sxtb	r1, r2
1000110e:	2900      	cmp	r1, #0
10001110:	db06      	blt.n	10001120 <_m6522_write+0x1f0>
10001112:	237f      	movs	r3, #127	; 0x7f
10001114:	401a      	ands	r2, r3
10001116:	2124      	movs	r1, #36	; 0x24
10001118:	5c43      	ldrb	r3, [r0, r1]
1000111a:	4393      	bics	r3, r2
1000111c:	5443      	strb	r3, [r0, r1]
1000111e:	e757      	b.n	10000fd0 <_m6522_write+0xa0>
10001120:	237f      	movs	r3, #127	; 0x7f
10001122:	400b      	ands	r3, r1
10001124:	2224      	movs	r2, #36	; 0x24
10001126:	5c81      	ldrb	r1, [r0, r2]
10001128:	430b      	orrs	r3, r1
1000112a:	5483      	strb	r3, [r0, r2]
1000112c:	e750      	b.n	10000fd0 <_m6522_write+0xa0>
1000112e:	7042      	strb	r2, [r0, #1]
10001130:	e74e      	b.n	10000fd0 <_m6522_write+0xa0>
10001132:	46c0      	nop			; (mov r8, r8)
10001134:	10009dd8 	.word	0x10009dd8

10001138 <hookexternal>:
10001138:	2800      	cmp	r0, #0
1000113a:	d005      	beq.n	10001148 <hookexternal+0x10>
1000113c:	4b04      	ldr	r3, [pc, #16]	; (10001150 <hookexternal+0x18>)
1000113e:	6018      	str	r0, [r3, #0]
10001140:	4b04      	ldr	r3, [pc, #16]	; (10001154 <hookexternal+0x1c>)
10001142:	2201      	movs	r2, #1
10001144:	701a      	strb	r2, [r3, #0]
10001146:	4770      	bx	lr
10001148:	4b02      	ldr	r3, [pc, #8]	; (10001154 <hookexternal+0x1c>)
1000114a:	2200      	movs	r2, #0
1000114c:	701a      	strb	r2, [r3, #0]
1000114e:	e7fa      	b.n	10001146 <hookexternal+0xe>
10001150:	20018ff8 	.word	0x20018ff8
10001154:	20008fd9 	.word	0x20008fd9

10001158 <m6522_init>:
10001158:	b510      	push	{r4, lr}
1000115a:	1e04      	subs	r4, r0, #0
1000115c:	d021      	beq.n	100011a2 <m6522_init+0x4a>
1000115e:	2238      	movs	r2, #56	; 0x38
10001160:	2100      	movs	r1, #0
10001162:	f005 fdcf 	bl	10006d04 <__wrap_memset>
10001166:	0020      	movs	r0, r4
10001168:	f7ff fc1c 	bl	100009a4 <_m6522_init_port>
1000116c:	0020      	movs	r0, r4
1000116e:	300a      	adds	r0, #10
10001170:	f7ff fc18 	bl	100009a4 <_m6522_init_port>
10001174:	0020      	movs	r0, r4
10001176:	3014      	adds	r0, #20
10001178:	2100      	movs	r1, #0
1000117a:	f7ff fc21 	bl	100009c0 <_m6522_init_timer>
1000117e:	0020      	movs	r0, r4
10001180:	301c      	adds	r0, #28
10001182:	2100      	movs	r1, #0
10001184:	f7ff fc1c 	bl	100009c0 <_m6522_init_timer>
10001188:	0020      	movs	r0, r4
1000118a:	3024      	adds	r0, #36	; 0x24
1000118c:	f7ff fc24 	bl	100009d8 <_m6522_init_interrupt>
10001190:	2300      	movs	r3, #0
10001192:	2228      	movs	r2, #40	; 0x28
10001194:	54a3      	strb	r3, [r4, r2]
10001196:	3201      	adds	r2, #1
10001198:	54a3      	strb	r3, [r4, r2]
1000119a:	3b01      	subs	r3, #1
1000119c:	82a3      	strh	r3, [r4, #20]
1000119e:	83a3      	strh	r3, [r4, #28]
100011a0:	bd10      	pop	{r4, pc}
100011a2:	2180      	movs	r1, #128	; 0x80
100011a4:	4b02      	ldr	r3, [pc, #8]	; (100011b0 <m6522_init+0x58>)
100011a6:	4a03      	ldr	r2, [pc, #12]	; (100011b4 <m6522_init+0x5c>)
100011a8:	31ff      	adds	r1, #255	; 0xff
100011aa:	4803      	ldr	r0, [pc, #12]	; (100011b8 <m6522_init+0x60>)
100011ac:	f003 faf2 	bl	10004794 <__assert_func>
100011b0:	1000bd4c 	.word	0x1000bd4c
100011b4:	10009e30 	.word	0x10009e30
100011b8:	1000a248 	.word	0x1000a248

100011bc <m6522_reset>:
100011bc:	b510      	push	{r4, lr}
100011be:	1e04      	subs	r4, r0, #0
100011c0:	d01d      	beq.n	100011fe <m6522_reset+0x42>
100011c2:	f7ff fbef 	bl	100009a4 <_m6522_init_port>
100011c6:	0020      	movs	r0, r4
100011c8:	300a      	adds	r0, #10
100011ca:	f7ff fbeb 	bl	100009a4 <_m6522_init_port>
100011ce:	0020      	movs	r0, r4
100011d0:	3014      	adds	r0, #20
100011d2:	2101      	movs	r1, #1
100011d4:	f7ff fbf4 	bl	100009c0 <_m6522_init_timer>
100011d8:	0020      	movs	r0, r4
100011da:	301c      	adds	r0, #28
100011dc:	2101      	movs	r1, #1
100011de:	f7ff fbef 	bl	100009c0 <_m6522_init_timer>
100011e2:	0020      	movs	r0, r4
100011e4:	3024      	adds	r0, #36	; 0x24
100011e6:	f7ff fbf7 	bl	100009d8 <_m6522_init_interrupt>
100011ea:	2300      	movs	r3, #0
100011ec:	2228      	movs	r2, #40	; 0x28
100011ee:	54a3      	strb	r3, [r4, r2]
100011f0:	3201      	adds	r2, #1
100011f2:	54a3      	strb	r3, [r4, r2]
100011f4:	2200      	movs	r2, #0
100011f6:	2300      	movs	r3, #0
100011f8:	6322      	str	r2, [r4, #48]	; 0x30
100011fa:	6363      	str	r3, [r4, #52]	; 0x34
100011fc:	bd10      	pop	{r4, pc}
100011fe:	21ca      	movs	r1, #202	; 0xca
10001200:	4b02      	ldr	r3, [pc, #8]	; (1000120c <m6522_reset+0x50>)
10001202:	4a03      	ldr	r2, [pc, #12]	; (10001210 <m6522_reset+0x54>)
10001204:	0049      	lsls	r1, r1, #1
10001206:	4803      	ldr	r0, [pc, #12]	; (10001214 <m6522_reset+0x58>)
10001208:	f003 fac4 	bl	10004794 <__assert_func>
1000120c:	1000bd4c 	.word	0x1000bd4c
10001210:	10009e3c 	.word	0x10009e3c
10001214:	1000a248 	.word	0x1000a248

10001218 <m6522_tick>:
10001218:	b570      	push	{r4, r5, r6, lr}
1000121a:	0006      	movs	r6, r0
1000121c:	0015      	movs	r5, r2
1000121e:	001c      	movs	r4, r3
10001220:	23c0      	movs	r3, #192	; 0xc0
10001222:	009b      	lsls	r3, r3, #2
10001224:	4023      	ands	r3, r4
10001226:	2280      	movs	r2, #128	; 0x80
10001228:	0052      	lsls	r2, r2, #1
1000122a:	4293      	cmp	r3, r2
1000122c:	d007      	beq.n	1000123e <m6522_tick+0x26>
1000122e:	002a      	movs	r2, r5
10001230:	0023      	movs	r3, r4
10001232:	0030      	movs	r0, r6
10001234:	f7ff fcb0 	bl	10000b98 <_m6522_tick>
10001238:	6330      	str	r0, [r6, #48]	; 0x30
1000123a:	6371      	str	r1, [r6, #52]	; 0x34
1000123c:	bd70      	pop	{r4, r5, r6, pc}
1000123e:	210f      	movs	r1, #15
10001240:	4029      	ands	r1, r5
10001242:	01eb      	lsls	r3, r5, #7
10001244:	d508      	bpl.n	10001258 <m6522_tick+0x40>
10001246:	f7ff fdc9 	bl	10000ddc <_m6522_read>
1000124a:	4b06      	ldr	r3, [pc, #24]	; (10001264 <m6522_tick+0x4c>)
1000124c:	401d      	ands	r5, r3
1000124e:	0400      	lsls	r0, r0, #16
10001250:	17c3      	asrs	r3, r0, #31
10001252:	4305      	orrs	r5, r0
10001254:	431c      	orrs	r4, r3
10001256:	e7ea      	b.n	1000122e <m6522_tick+0x16>
10001258:	0c2a      	lsrs	r2, r5, #16
1000125a:	b2d2      	uxtb	r2, r2
1000125c:	f7ff fe68 	bl	10000f30 <_m6522_write>
10001260:	e7e5      	b.n	1000122e <m6522_tick+0x16>
10001262:	46c0      	nop			; (mov r8, r8)
10001264:	ff00ffff 	.word	0xff00ffff

10001268 <write6502>:
10001268:	b5f8      	push	{r3, r4, r5, r6, r7, lr}
1000126a:	4b34      	ldr	r3, [pc, #208]	; (1000133c <write6502+0xd4>)
1000126c:	4298      	cmp	r0, r3
1000126e:	d009      	beq.n	10001284 <write6502+0x1c>
10001270:	23e0      	movs	r3, #224	; 0xe0
10001272:	01db      	lsls	r3, r3, #7
10001274:	220f      	movs	r2, #15
10001276:	0004      	movs	r4, r0
10001278:	4394      	bics	r4, r2
1000127a:	429c      	cmp	r4, r3
1000127c:	d006      	beq.n	1000128c <write6502+0x24>
1000127e:	4b30      	ldr	r3, [pc, #192]	; (10001340 <write6502+0xd8>)
10001280:	5419      	strb	r1, [r3, r0]
10001282:	bdf8      	pop	{r3, r4, r5, r6, r7, pc}
10001284:	0008      	movs	r0, r1
10001286:	f005 fe6b 	bl	10006f60 <__wrap_putchar>
1000128a:	e7fa      	b.n	10001282 <write6502+0x1a>
1000128c:	4d2d      	ldr	r5, [pc, #180]	; (10001344 <write6502+0xdc>)
1000128e:	4a2e      	ldr	r2, [pc, #184]	; (10001348 <write6502+0xe0>)
10001290:	682b      	ldr	r3, [r5, #0]
10001292:	401a      	ands	r2, r3
10001294:	4b2d      	ldr	r3, [pc, #180]	; (1000134c <write6502+0xe4>)
10001296:	686c      	ldr	r4, [r5, #4]
10001298:	4023      	ands	r3, r4
1000129a:	240f      	movs	r4, #15
1000129c:	4004      	ands	r4, r0
1000129e:	4322      	orrs	r2, r4
100012a0:	482b      	ldr	r0, [pc, #172]	; (10001350 <write6502+0xe8>)
100012a2:	4002      	ands	r2, r0
100012a4:	0408      	lsls	r0, r1, #16
100012a6:	4302      	orrs	r2, r0
100012a8:	2080      	movs	r0, #128	; 0x80
100012aa:	0040      	lsls	r0, r0, #1
100012ac:	4303      	orrs	r3, r0
100012ae:	602a      	str	r2, [r5, #0]
100012b0:	606b      	str	r3, [r5, #4]
100012b2:	2c02      	cmp	r4, #2
100012b4:	d01d      	beq.n	100012f2 <write6502+0x8a>
100012b6:	2c00      	cmp	r4, #0
100012b8:	d10e      	bne.n	100012d8 <write6502+0x70>
100012ba:	4d26      	ldr	r5, [pc, #152]	; (10001354 <write6502+0xec>)
100012bc:	4826      	ldr	r0, [pc, #152]	; (10001358 <write6502+0xf0>)
100012be:	682e      	ldr	r6, [r5, #0]
100012c0:	4030      	ands	r0, r6
100012c2:	03ce      	lsls	r6, r1, #15
100012c4:	4330      	orrs	r0, r6
100012c6:	6028      	str	r0, [r5, #0]
100012c8:	4d24      	ldr	r5, [pc, #144]	; (1000135c <write6502+0xf4>)
100012ca:	682e      	ldr	r6, [r5, #0]
100012cc:	25d0      	movs	r5, #208	; 0xd0
100012ce:	062d      	lsls	r5, r5, #24
100012d0:	692f      	ldr	r7, [r5, #16]
100012d2:	4078      	eors	r0, r7
100012d4:	4030      	ands	r0, r6
100012d6:	61e8      	str	r0, [r5, #28]
100012d8:	2c03      	cmp	r4, #3
100012da:	d015      	beq.n	10001308 <write6502+0xa0>
100012dc:	2c01      	cmp	r4, #1
100012de:	d01e      	beq.n	1000131e <write6502+0xb6>
100012e0:	481f      	ldr	r0, [pc, #124]	; (10001360 <write6502+0xf8>)
100012e2:	f7ff ff99 	bl	10001218 <m6522_tick>
100012e6:	4b17      	ldr	r3, [pc, #92]	; (10001344 <write6502+0xdc>)
100012e8:	6018      	str	r0, [r3, #0]
100012ea:	6059      	str	r1, [r3, #4]
100012ec:	f000 f896 	bl	1000141c <via_update>
100012f0:	e7c7      	b.n	10001282 <write6502+0x1a>
100012f2:	4d1a      	ldr	r5, [pc, #104]	; (1000135c <write6502+0xf4>)
100012f4:	4818      	ldr	r0, [pc, #96]	; (10001358 <write6502+0xf0>)
100012f6:	682e      	ldr	r6, [r5, #0]
100012f8:	4030      	ands	r0, r6
100012fa:	03ce      	lsls	r6, r1, #15
100012fc:	4330      	orrs	r0, r6
100012fe:	6028      	str	r0, [r5, #0]
10001300:	25d0      	movs	r5, #208	; 0xd0
10001302:	062d      	lsls	r5, r5, #24
10001304:	6228      	str	r0, [r5, #32]
10001306:	e7d6      	b.n	100012b6 <write6502+0x4e>
10001308:	4d14      	ldr	r5, [pc, #80]	; (1000135c <write6502+0xf4>)
1000130a:	20ff      	movs	r0, #255	; 0xff
1000130c:	682e      	ldr	r6, [r5, #0]
1000130e:	4386      	bics	r6, r0
10001310:	0030      	movs	r0, r6
10001312:	4308      	orrs	r0, r1
10001314:	6028      	str	r0, [r5, #0]
10001316:	25d0      	movs	r5, #208	; 0xd0
10001318:	062d      	lsls	r5, r5, #24
1000131a:	6228      	str	r0, [r5, #32]
1000131c:	e7de      	b.n	100012dc <write6502+0x74>
1000131e:	4c0d      	ldr	r4, [pc, #52]	; (10001354 <write6502+0xec>)
10001320:	20ff      	movs	r0, #255	; 0xff
10001322:	6825      	ldr	r5, [r4, #0]
10001324:	4385      	bics	r5, r0
10001326:	4329      	orrs	r1, r5
10001328:	6021      	str	r1, [r4, #0]
1000132a:	480c      	ldr	r0, [pc, #48]	; (1000135c <write6502+0xf4>)
1000132c:	6804      	ldr	r4, [r0, #0]
1000132e:	20d0      	movs	r0, #208	; 0xd0
10001330:	0600      	lsls	r0, r0, #24
10001332:	6905      	ldr	r5, [r0, #16]
10001334:	4069      	eors	r1, r5
10001336:	4021      	ands	r1, r4
10001338:	61c1      	str	r1, [r0, #28]
1000133a:	e7d1      	b.n	100012e0 <write6502+0x78>
1000133c:	0000e001 	.word	0x0000e001
10001340:	20008ff8 	.word	0x20008ff8
10001344:	20008610 	.word	0x20008610
10001348:	fefffff0 	.word	0xfefffff0
1000134c:	fffffdff 	.word	0xfffffdff
10001350:	ff00ffff 	.word	0xff00ffff
10001354:	20019000 	.word	0x20019000
10001358:	ff807fff 	.word	0xff807fff
1000135c:	20008ff0 	.word	0x20008ff0
10001360:	20019010 	.word	0x20019010

10001364 <push16>:
10001364:	b570      	push	{r4, r5, r6, lr}
10001366:	0004      	movs	r4, r0
10001368:	0a01      	lsrs	r1, r0, #8
1000136a:	4d09      	ldr	r5, [pc, #36]	; (10001390 <push16+0x2c>)
1000136c:	7828      	ldrb	r0, [r5, #0]
1000136e:	3001      	adds	r0, #1
10001370:	30ff      	adds	r0, #255	; 0xff
10001372:	f7ff ff79 	bl	10001268 <write6502>
10001376:	7828      	ldrb	r0, [r5, #0]
10001378:	3801      	subs	r0, #1
1000137a:	23ff      	movs	r3, #255	; 0xff
1000137c:	4018      	ands	r0, r3
1000137e:	b2e1      	uxtb	r1, r4
10001380:	3001      	adds	r0, #1
10001382:	30ff      	adds	r0, #255	; 0xff
10001384:	f7ff ff70 	bl	10001268 <write6502>
10001388:	782b      	ldrb	r3, [r5, #0]
1000138a:	3b02      	subs	r3, #2
1000138c:	702b      	strb	r3, [r5, #0]
1000138e:	bd70      	pop	{r4, r5, r6, pc}
10001390:	20019009 	.word	0x20019009

10001394 <jsr>:
10001394:	b510      	push	{r4, lr}
10001396:	4c05      	ldr	r4, [pc, #20]	; (100013ac <jsr+0x18>)
10001398:	8820      	ldrh	r0, [r4, #0]
1000139a:	3801      	subs	r0, #1
1000139c:	b280      	uxth	r0, r0
1000139e:	f7ff ffe1 	bl	10001364 <push16>
100013a2:	4b03      	ldr	r3, [pc, #12]	; (100013b0 <jsr+0x1c>)
100013a4:	881b      	ldrh	r3, [r3, #0]
100013a6:	8023      	strh	r3, [r4, #0]
100013a8:	bd10      	pop	{r4, pc}
100013aa:	46c0      	nop			; (mov r8, r8)
100013ac:	2001900c 	.word	0x2001900c
100013b0:	20008fe8 	.word	0x20008fe8

100013b4 <push8>:
100013b4:	b510      	push	{r4, lr}
100013b6:	0001      	movs	r1, r0
100013b8:	4a04      	ldr	r2, [pc, #16]	; (100013cc <push8+0x18>)
100013ba:	7813      	ldrb	r3, [r2, #0]
100013bc:	1e58      	subs	r0, r3, #1
100013be:	7010      	strb	r0, [r2, #0]
100013c0:	1c58      	adds	r0, r3, #1
100013c2:	30ff      	adds	r0, #255	; 0xff
100013c4:	f7ff ff50 	bl	10001268 <write6502>
100013c8:	bd10      	pop	{r4, pc}
100013ca:	46c0      	nop			; (mov r8, r8)
100013cc:	20019009 	.word	0x20019009

100013d0 <irq6502>:
100013d0:	b570      	push	{r4, r5, r6, lr}
100013d2:	4b0e      	ldr	r3, [pc, #56]	; (1000140c <irq6502+0x3c>)
100013d4:	781b      	ldrb	r3, [r3, #0]
100013d6:	075b      	lsls	r3, r3, #29
100013d8:	d500      	bpl.n	100013dc <irq6502+0xc>
100013da:	bd70      	pop	{r4, r5, r6, pc}
100013dc:	4d0c      	ldr	r5, [pc, #48]	; (10001410 <irq6502+0x40>)
100013de:	8828      	ldrh	r0, [r5, #0]
100013e0:	f7ff ffc0 	bl	10001364 <push16>
100013e4:	4c09      	ldr	r4, [pc, #36]	; (1000140c <irq6502+0x3c>)
100013e6:	7820      	ldrb	r0, [r4, #0]
100013e8:	f7ff ffe4 	bl	100013b4 <push8>
100013ec:	7823      	ldrb	r3, [r4, #0]
100013ee:	2204      	movs	r2, #4
100013f0:	4313      	orrs	r3, r2
100013f2:	7023      	strb	r3, [r4, #0]
100013f4:	4807      	ldr	r0, [pc, #28]	; (10001414 <irq6502+0x44>)
100013f6:	f000 f81d 	bl	10001434 <read6502>
100013fa:	b204      	sxth	r4, r0
100013fc:	4806      	ldr	r0, [pc, #24]	; (10001418 <irq6502+0x48>)
100013fe:	f000 f819 	bl	10001434 <read6502>
10001402:	0200      	lsls	r0, r0, #8
10001404:	4304      	orrs	r4, r0
10001406:	802c      	strh	r4, [r5, #0]
10001408:	e7e7      	b.n	100013da <irq6502+0xa>
1000140a:	46c0      	nop			; (mov r8, r8)
1000140c:	20008409 	.word	0x20008409
10001410:	2001900c 	.word	0x2001900c
10001414:	0000fffe 	.word	0x0000fffe
10001418:	0000ffff 	.word	0x0000ffff

1000141c <via_update>:
1000141c:	b510      	push	{r4, lr}
1000141e:	4b04      	ldr	r3, [pc, #16]	; (10001430 <via_update+0x14>)
10001420:	681b      	ldr	r3, [r3, #0]
10001422:	015b      	lsls	r3, r3, #5
10001424:	d400      	bmi.n	10001428 <via_update+0xc>
10001426:	bd10      	pop	{r4, pc}
10001428:	f7ff ffd2 	bl	100013d0 <irq6502>
1000142c:	e7fb      	b.n	10001426 <via_update+0xa>
1000142e:	46c0      	nop			; (mov r8, r8)
10001430:	20008610 	.word	0x20008610

10001434 <read6502>:
10001434:	b510      	push	{r4, lr}
10001436:	4b8b      	ldr	r3, [pc, #556]	; (10001664 <read6502+0x230>)
10001438:	4298      	cmp	r0, r3
1000143a:	d00a      	beq.n	10001452 <read6502+0x1e>
1000143c:	23e0      	movs	r3, #224	; 0xe0
1000143e:	01db      	lsls	r3, r3, #7
10001440:	220f      	movs	r2, #15
10001442:	0001      	movs	r1, r0
10001444:	4391      	bics	r1, r2
10001446:	4299      	cmp	r1, r3
10001448:	d00c      	beq.n	10001464 <read6502+0x30>
1000144a:	4b87      	ldr	r3, [pc, #540]	; (10001668 <read6502+0x234>)
1000144c:	5c1c      	ldrb	r4, [r3, r0]
1000144e:	0020      	movs	r0, r4
10001450:	bd10      	pop	{r4, pc}
10001452:	2064      	movs	r0, #100	; 0x64
10001454:	f005 fdfa 	bl	1000704c <getchar_timeout_us>
10001458:	b203      	sxth	r3, r0
1000145a:	3301      	adds	r3, #1
1000145c:	d100      	bne.n	10001460 <read6502+0x2c>
1000145e:	e0ff      	b.n	10001660 <read6502+0x22c>
10001460:	b2c4      	uxtb	r4, r0
10001462:	e7f4      	b.n	1000144e <read6502+0x1a>
10001464:	4b81      	ldr	r3, [pc, #516]	; (1000166c <read6502+0x238>)
10001466:	2200      	movs	r2, #0
10001468:	701a      	strb	r2, [r3, #0]
1000146a:	4b81      	ldr	r3, [pc, #516]	; (10001670 <read6502+0x23c>)
1000146c:	4298      	cmp	r0, r3
1000146e:	d054      	beq.n	1000151a <read6502+0xe6>
10001470:	23e0      	movs	r3, #224	; 0xe0
10001472:	01db      	lsls	r3, r3, #7
10001474:	4298      	cmp	r0, r3
10001476:	d07c      	beq.n	10001572 <read6502+0x13e>
10001478:	4b7e      	ldr	r3, [pc, #504]	; (10001674 <read6502+0x240>)
1000147a:	4298      	cmp	r0, r3
1000147c:	d07d      	beq.n	1000157a <read6502+0x146>
1000147e:	4b7e      	ldr	r3, [pc, #504]	; (10001678 <read6502+0x244>)
10001480:	4298      	cmp	r0, r3
10001482:	d07f      	beq.n	10001584 <read6502+0x150>
10001484:	4b7d      	ldr	r3, [pc, #500]	; (1000167c <read6502+0x248>)
10001486:	4298      	cmp	r0, r3
10001488:	d100      	bne.n	1000148c <read6502+0x58>
1000148a:	e080      	b.n	1000158e <read6502+0x15a>
1000148c:	4b7c      	ldr	r3, [pc, #496]	; (10001680 <read6502+0x24c>)
1000148e:	4298      	cmp	r0, r3
10001490:	d100      	bne.n	10001494 <read6502+0x60>
10001492:	e081      	b.n	10001598 <read6502+0x164>
10001494:	4b7b      	ldr	r3, [pc, #492]	; (10001684 <read6502+0x250>)
10001496:	4298      	cmp	r0, r3
10001498:	d100      	bne.n	1000149c <read6502+0x68>
1000149a:	e083      	b.n	100015a4 <read6502+0x170>
1000149c:	4b7a      	ldr	r3, [pc, #488]	; (10001688 <read6502+0x254>)
1000149e:	4298      	cmp	r0, r3
100014a0:	d100      	bne.n	100014a4 <read6502+0x70>
100014a2:	e084      	b.n	100015ae <read6502+0x17a>
100014a4:	4b79      	ldr	r3, [pc, #484]	; (1000168c <read6502+0x258>)
100014a6:	4298      	cmp	r0, r3
100014a8:	d100      	bne.n	100014ac <read6502+0x78>
100014aa:	e086      	b.n	100015ba <read6502+0x186>
100014ac:	4b78      	ldr	r3, [pc, #480]	; (10001690 <read6502+0x25c>)
100014ae:	4298      	cmp	r0, r3
100014b0:	d100      	bne.n	100014b4 <read6502+0x80>
100014b2:	e087      	b.n	100015c4 <read6502+0x190>
100014b4:	4b77      	ldr	r3, [pc, #476]	; (10001694 <read6502+0x260>)
100014b6:	4298      	cmp	r0, r3
100014b8:	d100      	bne.n	100014bc <read6502+0x88>
100014ba:	e089      	b.n	100015d0 <read6502+0x19c>
100014bc:	4b76      	ldr	r3, [pc, #472]	; (10001698 <read6502+0x264>)
100014be:	4298      	cmp	r0, r3
100014c0:	d100      	bne.n	100014c4 <read6502+0x90>
100014c2:	e089      	b.n	100015d8 <read6502+0x1a4>
100014c4:	4b75      	ldr	r3, [pc, #468]	; (1000169c <read6502+0x268>)
100014c6:	4298      	cmp	r0, r3
100014c8:	d100      	bne.n	100014cc <read6502+0x98>
100014ca:	e08b      	b.n	100015e4 <read6502+0x1b0>
100014cc:	4b74      	ldr	r3, [pc, #464]	; (100016a0 <read6502+0x26c>)
100014ce:	4298      	cmp	r0, r3
100014d0:	d100      	bne.n	100014d4 <read6502+0xa0>
100014d2:	e08d      	b.n	100015f0 <read6502+0x1bc>
100014d4:	4b73      	ldr	r3, [pc, #460]	; (100016a4 <read6502+0x270>)
100014d6:	4298      	cmp	r0, r3
100014d8:	d100      	bne.n	100014dc <read6502+0xa8>
100014da:	e08f      	b.n	100015fc <read6502+0x1c8>
100014dc:	4b72      	ldr	r3, [pc, #456]	; (100016a8 <read6502+0x274>)
100014de:	4298      	cmp	r0, r3
100014e0:	d100      	bne.n	100014e4 <read6502+0xb0>
100014e2:	e091      	b.n	10001608 <read6502+0x1d4>
100014e4:	4c71      	ldr	r4, [pc, #452]	; (100016ac <read6502+0x278>)
100014e6:	230f      	movs	r3, #15
100014e8:	6822      	ldr	r2, [r4, #0]
100014ea:	439a      	bics	r2, r3
100014ec:	4970      	ldr	r1, [pc, #448]	; (100016b0 <read6502+0x27c>)
100014ee:	6863      	ldr	r3, [r4, #4]
100014f0:	4019      	ands	r1, r3
100014f2:	230f      	movs	r3, #15
100014f4:	4018      	ands	r0, r3
100014f6:	4302      	orrs	r2, r0
100014f8:	2080      	movs	r0, #128	; 0x80
100014fa:	0440      	lsls	r0, r0, #17
100014fc:	4302      	orrs	r2, r0
100014fe:	33f1      	adds	r3, #241	; 0xf1
10001500:	430b      	orrs	r3, r1
10001502:	6022      	str	r2, [r4, #0]
10001504:	6063      	str	r3, [r4, #4]
10001506:	486b      	ldr	r0, [pc, #428]	; (100016b4 <read6502+0x280>)
10001508:	f7ff fe86 	bl	10001218 <m6522_tick>
1000150c:	6020      	str	r0, [r4, #0]
1000150e:	6061      	str	r1, [r4, #4]
10001510:	4b56      	ldr	r3, [pc, #344]	; (1000166c <read6502+0x238>)
10001512:	781c      	ldrb	r4, [r3, #0]
10001514:	f7ff ff82 	bl	1000141c <via_update>
10001518:	e799      	b.n	1000144e <read6502+0x1a>
1000151a:	22d0      	movs	r2, #208	; 0xd0
1000151c:	0612      	lsls	r2, r2, #24
1000151e:	6853      	ldr	r3, [r2, #4]
10001520:	09db      	lsrs	r3, r3, #7
10001522:	2101      	movs	r1, #1
10001524:	400b      	ands	r3, r1
10001526:	01db      	lsls	r3, r3, #7
10001528:	6854      	ldr	r4, [r2, #4]
1000152a:	09a4      	lsrs	r4, r4, #6
1000152c:	400c      	ands	r4, r1
1000152e:	01a4      	lsls	r4, r4, #6
10001530:	4323      	orrs	r3, r4
10001532:	b25b      	sxtb	r3, r3
10001534:	6854      	ldr	r4, [r2, #4]
10001536:	0964      	lsrs	r4, r4, #5
10001538:	400c      	ands	r4, r1
1000153a:	0164      	lsls	r4, r4, #5
1000153c:	4323      	orrs	r3, r4
1000153e:	6854      	ldr	r4, [r2, #4]
10001540:	0924      	lsrs	r4, r4, #4
10001542:	400c      	ands	r4, r1
10001544:	0124      	lsls	r4, r4, #4
10001546:	4323      	orrs	r3, r4
10001548:	6854      	ldr	r4, [r2, #4]
1000154a:	08e4      	lsrs	r4, r4, #3
1000154c:	400c      	ands	r4, r1
1000154e:	00e4      	lsls	r4, r4, #3
10001550:	4323      	orrs	r3, r4
10001552:	6854      	ldr	r4, [r2, #4]
10001554:	08a4      	lsrs	r4, r4, #2
10001556:	400c      	ands	r4, r1
10001558:	00a4      	lsls	r4, r4, #2
1000155a:	4323      	orrs	r3, r4
1000155c:	6854      	ldr	r4, [r2, #4]
1000155e:	0864      	lsrs	r4, r4, #1
10001560:	400c      	ands	r4, r1
10001562:	0064      	lsls	r4, r4, #1
10001564:	4323      	orrs	r3, r4
10001566:	6852      	ldr	r2, [r2, #4]
10001568:	4011      	ands	r1, r2
1000156a:	430b      	orrs	r3, r1
1000156c:	4a3f      	ldr	r2, [pc, #252]	; (1000166c <read6502+0x238>)
1000156e:	7013      	strb	r3, [r2, #0]
10001570:	e77e      	b.n	10001470 <read6502+0x3c>
10001572:	2200      	movs	r2, #0
10001574:	4b3d      	ldr	r3, [pc, #244]	; (1000166c <read6502+0x238>)
10001576:	701a      	strb	r2, [r3, #0]
10001578:	e77e      	b.n	10001478 <read6502+0x44>
1000157a:	4b4e      	ldr	r3, [pc, #312]	; (100016b4 <read6502+0x280>)
1000157c:	7b1a      	ldrb	r2, [r3, #12]
1000157e:	4b3b      	ldr	r3, [pc, #236]	; (1000166c <read6502+0x238>)
10001580:	701a      	strb	r2, [r3, #0]
10001582:	e77c      	b.n	1000147e <read6502+0x4a>
10001584:	4b4b      	ldr	r3, [pc, #300]	; (100016b4 <read6502+0x280>)
10001586:	789a      	ldrb	r2, [r3, #2]
10001588:	4b38      	ldr	r3, [pc, #224]	; (1000166c <read6502+0x238>)
1000158a:	701a      	strb	r2, [r3, #0]
1000158c:	e77a      	b.n	10001484 <read6502+0x50>
1000158e:	4b49      	ldr	r3, [pc, #292]	; (100016b4 <read6502+0x280>)
10001590:	8ada      	ldrh	r2, [r3, #22]
10001592:	4b36      	ldr	r3, [pc, #216]	; (1000166c <read6502+0x238>)
10001594:	701a      	strb	r2, [r3, #0]
10001596:	e779      	b.n	1000148c <read6502+0x58>
10001598:	4b46      	ldr	r3, [pc, #280]	; (100016b4 <read6502+0x280>)
1000159a:	8adb      	ldrh	r3, [r3, #22]
1000159c:	0a1b      	lsrs	r3, r3, #8
1000159e:	4a33      	ldr	r2, [pc, #204]	; (1000166c <read6502+0x238>)
100015a0:	7013      	strb	r3, [r2, #0]
100015a2:	e777      	b.n	10001494 <read6502+0x60>
100015a4:	4b43      	ldr	r3, [pc, #268]	; (100016b4 <read6502+0x280>)
100015a6:	8a9a      	ldrh	r2, [r3, #20]
100015a8:	4b30      	ldr	r3, [pc, #192]	; (1000166c <read6502+0x238>)
100015aa:	701a      	strb	r2, [r3, #0]
100015ac:	e776      	b.n	1000149c <read6502+0x68>
100015ae:	4b41      	ldr	r3, [pc, #260]	; (100016b4 <read6502+0x280>)
100015b0:	8a9b      	ldrh	r3, [r3, #20]
100015b2:	0a1b      	lsrs	r3, r3, #8
100015b4:	4a2d      	ldr	r2, [pc, #180]	; (1000166c <read6502+0x238>)
100015b6:	7013      	strb	r3, [r2, #0]
100015b8:	e774      	b.n	100014a4 <read6502+0x70>
100015ba:	4b3e      	ldr	r3, [pc, #248]	; (100016b4 <read6502+0x280>)
100015bc:	7f9a      	ldrb	r2, [r3, #30]
100015be:	4b2b      	ldr	r3, [pc, #172]	; (1000166c <read6502+0x238>)
100015c0:	701a      	strb	r2, [r3, #0]
100015c2:	e773      	b.n	100014ac <read6502+0x78>
100015c4:	4b3b      	ldr	r3, [pc, #236]	; (100016b4 <read6502+0x280>)
100015c6:	8bdb      	ldrh	r3, [r3, #30]
100015c8:	0a1b      	lsrs	r3, r3, #8
100015ca:	4a28      	ldr	r2, [pc, #160]	; (1000166c <read6502+0x238>)
100015cc:	7013      	strb	r3, [r2, #0]
100015ce:	e771      	b.n	100014b4 <read6502+0x80>
100015d0:	4b26      	ldr	r3, [pc, #152]	; (1000166c <read6502+0x238>)
100015d2:	2200      	movs	r2, #0
100015d4:	701a      	strb	r2, [r3, #0]
100015d6:	e771      	b.n	100014bc <read6502+0x88>
100015d8:	4a36      	ldr	r2, [pc, #216]	; (100016b4 <read6502+0x280>)
100015da:	2328      	movs	r3, #40	; 0x28
100015dc:	5cd2      	ldrb	r2, [r2, r3]
100015de:	4b23      	ldr	r3, [pc, #140]	; (1000166c <read6502+0x238>)
100015e0:	701a      	strb	r2, [r3, #0]
100015e2:	e76f      	b.n	100014c4 <read6502+0x90>
100015e4:	4a33      	ldr	r2, [pc, #204]	; (100016b4 <read6502+0x280>)
100015e6:	2329      	movs	r3, #41	; 0x29
100015e8:	5cd2      	ldrb	r2, [r2, r3]
100015ea:	4b20      	ldr	r3, [pc, #128]	; (1000166c <read6502+0x238>)
100015ec:	701a      	strb	r2, [r3, #0]
100015ee:	e76d      	b.n	100014cc <read6502+0x98>
100015f0:	4a30      	ldr	r2, [pc, #192]	; (100016b4 <read6502+0x280>)
100015f2:	2325      	movs	r3, #37	; 0x25
100015f4:	5cd2      	ldrb	r2, [r2, r3]
100015f6:	4b1d      	ldr	r3, [pc, #116]	; (1000166c <read6502+0x238>)
100015f8:	701a      	strb	r2, [r3, #0]
100015fa:	e76b      	b.n	100014d4 <read6502+0xa0>
100015fc:	4a2d      	ldr	r2, [pc, #180]	; (100016b4 <read6502+0x280>)
100015fe:	2324      	movs	r3, #36	; 0x24
10001600:	5cd2      	ldrb	r2, [r2, r3]
10001602:	4b1a      	ldr	r3, [pc, #104]	; (1000166c <read6502+0x238>)
10001604:	701a      	strb	r2, [r3, #0]
10001606:	e769      	b.n	100014dc <read6502+0xa8>
10001608:	22d0      	movs	r2, #208	; 0xd0
1000160a:	0612      	lsls	r2, r2, #24
1000160c:	6853      	ldr	r3, [r2, #4]
1000160e:	09db      	lsrs	r3, r3, #7
10001610:	2101      	movs	r1, #1
10001612:	400b      	ands	r3, r1
10001614:	01db      	lsls	r3, r3, #7
10001616:	6854      	ldr	r4, [r2, #4]
10001618:	09a4      	lsrs	r4, r4, #6
1000161a:	400c      	ands	r4, r1
1000161c:	01a4      	lsls	r4, r4, #6
1000161e:	4323      	orrs	r3, r4
10001620:	b25b      	sxtb	r3, r3
10001622:	6854      	ldr	r4, [r2, #4]
10001624:	0964      	lsrs	r4, r4, #5
10001626:	400c      	ands	r4, r1
10001628:	0164      	lsls	r4, r4, #5
1000162a:	4323      	orrs	r3, r4
1000162c:	6854      	ldr	r4, [r2, #4]
1000162e:	0924      	lsrs	r4, r4, #4
10001630:	400c      	ands	r4, r1
10001632:	0124      	lsls	r4, r4, #4
10001634:	4323      	orrs	r3, r4
10001636:	6854      	ldr	r4, [r2, #4]
10001638:	08e4      	lsrs	r4, r4, #3
1000163a:	400c      	ands	r4, r1
1000163c:	00e4      	lsls	r4, r4, #3
1000163e:	4323      	orrs	r3, r4
10001640:	6854      	ldr	r4, [r2, #4]
10001642:	08a4      	lsrs	r4, r4, #2
10001644:	400c      	ands	r4, r1
10001646:	00a4      	lsls	r4, r4, #2
10001648:	4323      	orrs	r3, r4
1000164a:	6854      	ldr	r4, [r2, #4]
1000164c:	0864      	lsrs	r4, r4, #1
1000164e:	400c      	ands	r4, r1
10001650:	0064      	lsls	r4, r4, #1
10001652:	4323      	orrs	r3, r4
10001654:	6852      	ldr	r2, [r2, #4]
10001656:	4011      	ands	r1, r2
10001658:	430b      	orrs	r3, r1
1000165a:	4a04      	ldr	r2, [pc, #16]	; (1000166c <read6502+0x238>)
1000165c:	7013      	strb	r3, [r2, #0]
1000165e:	e741      	b.n	100014e4 <read6502+0xb0>
10001660:	2400      	movs	r4, #0
10001662:	e6f4      	b.n	1000144e <read6502+0x1a>
10001664:	0000e004 	.word	0x0000e004
10001668:	20008ff8 	.word	0x20008ff8
1000166c:	20008fe0 	.word	0x20008fe0
10001670:	00007001 	.word	0x00007001
10001674:	00007002 	.word	0x00007002
10001678:	00007003 	.word	0x00007003
1000167c:	00007004 	.word	0x00007004
10001680:	00007005 	.word	0x00007005
10001684:	00007006 	.word	0x00007006
10001688:	00007007 	.word	0x00007007
1000168c:	00007008 	.word	0x00007008
10001690:	00007009 	.word	0x00007009
10001694:	0000700a 	.word	0x0000700a
10001698:	0000700b 	.word	0x0000700b
1000169c:	0000700c 	.word	0x0000700c
100016a0:	0000700d 	.word	0x0000700d
100016a4:	0000700e 	.word	0x0000700e
100016a8:	0000700f 	.word	0x0000700f
100016ac:	20008610 	.word	0x20008610
100016b0:	fffffdff 	.word	0xfffffdff
100016b4:	20019010 	.word	0x20019010

100016b8 <pull16>:
100016b8:	b570      	push	{r4, r5, r6, lr}
100016ba:	4e0c      	ldr	r6, [pc, #48]	; (100016ec <pull16+0x34>)
100016bc:	7830      	ldrb	r0, [r6, #0]
100016be:	3001      	adds	r0, #1
100016c0:	25ff      	movs	r5, #255	; 0xff
100016c2:	4028      	ands	r0, r5
100016c4:	3001      	adds	r0, #1
100016c6:	30ff      	adds	r0, #255	; 0xff
100016c8:	f7ff feb4 	bl	10001434 <read6502>
100016cc:	b204      	sxth	r4, r0
100016ce:	7830      	ldrb	r0, [r6, #0]
100016d0:	3002      	adds	r0, #2
100016d2:	4028      	ands	r0, r5
100016d4:	3001      	adds	r0, #1
100016d6:	30ff      	adds	r0, #255	; 0xff
100016d8:	f7ff feac 	bl	10001434 <read6502>
100016dc:	0200      	lsls	r0, r0, #8
100016de:	4320      	orrs	r0, r4
100016e0:	b280      	uxth	r0, r0
100016e2:	7833      	ldrb	r3, [r6, #0]
100016e4:	3302      	adds	r3, #2
100016e6:	7033      	strb	r3, [r6, #0]
100016e8:	bd70      	pop	{r4, r5, r6, pc}
100016ea:	46c0      	nop			; (mov r8, r8)
100016ec:	20019009 	.word	0x20019009

100016f0 <rts>:
100016f0:	b510      	push	{r4, lr}
100016f2:	f7ff ffe1 	bl	100016b8 <pull16>
100016f6:	4b03      	ldr	r3, [pc, #12]	; (10001704 <rts+0x14>)
100016f8:	8018      	strh	r0, [r3, #0]
100016fa:	3001      	adds	r0, #1
100016fc:	4b02      	ldr	r3, [pc, #8]	; (10001708 <rts+0x18>)
100016fe:	8018      	strh	r0, [r3, #0]
10001700:	bd10      	pop	{r4, pc}
10001702:	46c0      	nop			; (mov r8, r8)
10001704:	20019050 	.word	0x20019050
10001708:	2001900c 	.word	0x2001900c

1000170c <pull8>:
1000170c:	b510      	push	{r4, lr}
1000170e:	4b05      	ldr	r3, [pc, #20]	; (10001724 <pull8+0x18>)
10001710:	7818      	ldrb	r0, [r3, #0]
10001712:	3001      	adds	r0, #1
10001714:	b2c0      	uxtb	r0, r0
10001716:	7018      	strb	r0, [r3, #0]
10001718:	3001      	adds	r0, #1
1000171a:	30ff      	adds	r0, #255	; 0xff
1000171c:	f7ff fe8a 	bl	10001434 <read6502>
10001720:	bd10      	pop	{r4, pc}
10001722:	46c0      	nop			; (mov r8, r8)
10001724:	20019009 	.word	0x20019009

10001728 <plx>:
10001728:	b510      	push	{r4, lr}
1000172a:	f7ff ffef 	bl	1000170c <pull8>
1000172e:	4b0f      	ldr	r3, [pc, #60]	; (1000176c <plx+0x44>)
10001730:	7018      	strb	r0, [r3, #0]
10001732:	2800      	cmp	r0, #0
10001734:	d00c      	beq.n	10001750 <plx+0x28>
10001736:	4a0e      	ldr	r2, [pc, #56]	; (10001770 <plx+0x48>)
10001738:	7813      	ldrb	r3, [r2, #0]
1000173a:	2102      	movs	r1, #2
1000173c:	438b      	bics	r3, r1
1000173e:	7013      	strb	r3, [r2, #0]
10001740:	0603      	lsls	r3, r0, #24
10001742:	d40b      	bmi.n	1000175c <plx+0x34>
10001744:	4a0a      	ldr	r2, [pc, #40]	; (10001770 <plx+0x48>)
10001746:	7811      	ldrb	r1, [r2, #0]
10001748:	237f      	movs	r3, #127	; 0x7f
1000174a:	400b      	ands	r3, r1
1000174c:	7013      	strb	r3, [r2, #0]
1000174e:	bd10      	pop	{r4, pc}
10001750:	4a07      	ldr	r2, [pc, #28]	; (10001770 <plx+0x48>)
10001752:	7813      	ldrb	r3, [r2, #0]
10001754:	2102      	movs	r1, #2
10001756:	430b      	orrs	r3, r1
10001758:	7013      	strb	r3, [r2, #0]
1000175a:	e7f1      	b.n	10001740 <plx+0x18>
1000175c:	4a04      	ldr	r2, [pc, #16]	; (10001770 <plx+0x48>)
1000175e:	7811      	ldrb	r1, [r2, #0]
10001760:	2380      	movs	r3, #128	; 0x80
10001762:	425b      	negs	r3, r3
10001764:	430b      	orrs	r3, r1
10001766:	7013      	strb	r3, [r2, #0]
10001768:	e7f1      	b.n	1000174e <plx+0x26>
1000176a:	46c0      	nop			; (mov r8, r8)
1000176c:	20008fea 	.word	0x20008fea
10001770:	20008409 	.word	0x20008409

10001774 <ply>:
10001774:	b510      	push	{r4, lr}
10001776:	f7ff ffc9 	bl	1000170c <pull8>
1000177a:	4b0f      	ldr	r3, [pc, #60]	; (100017b8 <ply+0x44>)
1000177c:	7018      	strb	r0, [r3, #0]
1000177e:	2800      	cmp	r0, #0
10001780:	d00c      	beq.n	1000179c <ply+0x28>
10001782:	4a0e      	ldr	r2, [pc, #56]	; (100017bc <ply+0x48>)
10001784:	7813      	ldrb	r3, [r2, #0]
10001786:	2102      	movs	r1, #2
10001788:	438b      	bics	r3, r1
1000178a:	7013      	strb	r3, [r2, #0]
1000178c:	0603      	lsls	r3, r0, #24
1000178e:	d40b      	bmi.n	100017a8 <ply+0x34>
10001790:	4a0a      	ldr	r2, [pc, #40]	; (100017bc <ply+0x48>)
10001792:	7811      	ldrb	r1, [r2, #0]
10001794:	237f      	movs	r3, #127	; 0x7f
10001796:	400b      	ands	r3, r1
10001798:	7013      	strb	r3, [r2, #0]
1000179a:	bd10      	pop	{r4, pc}
1000179c:	4a07      	ldr	r2, [pc, #28]	; (100017bc <ply+0x48>)
1000179e:	7813      	ldrb	r3, [r2, #0]
100017a0:	2102      	movs	r1, #2
100017a2:	430b      	orrs	r3, r1
100017a4:	7013      	strb	r3, [r2, #0]
100017a6:	e7f1      	b.n	1000178c <ply+0x18>
100017a8:	4a04      	ldr	r2, [pc, #16]	; (100017bc <ply+0x48>)
100017aa:	7811      	ldrb	r1, [r2, #0]
100017ac:	2380      	movs	r3, #128	; 0x80
100017ae:	425b      	negs	r3, r3
100017b0:	430b      	orrs	r3, r1
100017b2:	7013      	strb	r3, [r2, #0]
100017b4:	e7f1      	b.n	1000179a <ply+0x26>
100017b6:	46c0      	nop			; (mov r8, r8)
100017b8:	20019004 	.word	0x20019004
100017bc:	20008409 	.word	0x20008409

100017c0 <pla>:
100017c0:	b510      	push	{r4, lr}
100017c2:	f7ff ffa3 	bl	1000170c <pull8>
100017c6:	4b0f      	ldr	r3, [pc, #60]	; (10001804 <pla+0x44>)
100017c8:	7018      	strb	r0, [r3, #0]
100017ca:	2800      	cmp	r0, #0
100017cc:	d00c      	beq.n	100017e8 <pla+0x28>
100017ce:	4a0e      	ldr	r2, [pc, #56]	; (10001808 <pla+0x48>)
100017d0:	7813      	ldrb	r3, [r2, #0]
100017d2:	2102      	movs	r1, #2
100017d4:	438b      	bics	r3, r1
100017d6:	7013      	strb	r3, [r2, #0]
100017d8:	0603      	lsls	r3, r0, #24
100017da:	d40b      	bmi.n	100017f4 <pla+0x34>
100017dc:	4a0a      	ldr	r2, [pc, #40]	; (10001808 <pla+0x48>)
100017de:	7811      	ldrb	r1, [r2, #0]
100017e0:	237f      	movs	r3, #127	; 0x7f
100017e2:	400b      	ands	r3, r1
100017e4:	7013      	strb	r3, [r2, #0]
100017e6:	bd10      	pop	{r4, pc}
100017e8:	4a07      	ldr	r2, [pc, #28]	; (10001808 <pla+0x48>)
100017ea:	7813      	ldrb	r3, [r2, #0]
100017ec:	2102      	movs	r1, #2
100017ee:	430b      	orrs	r3, r1
100017f0:	7013      	strb	r3, [r2, #0]
100017f2:	e7f1      	b.n	100017d8 <pla+0x18>
100017f4:	4a04      	ldr	r2, [pc, #16]	; (10001808 <pla+0x48>)
100017f6:	7811      	ldrb	r1, [r2, #0]
100017f8:	2380      	movs	r3, #128	; 0x80
100017fa:	425b      	negs	r3, r3
100017fc:	430b      	orrs	r3, r1
100017fe:	7013      	strb	r3, [r2, #0]
10001800:	e7f1      	b.n	100017e6 <pla+0x26>
10001802:	46c0      	nop			; (mov r8, r8)
10001804:	2001900e 	.word	0x2001900e
10001808:	20008409 	.word	0x20008409

1000180c <rti>:
1000180c:	b510      	push	{r4, lr}
1000180e:	f7ff ff7d 	bl	1000170c <pull8>
10001812:	4b04      	ldr	r3, [pc, #16]	; (10001824 <rti+0x18>)
10001814:	7018      	strb	r0, [r3, #0]
10001816:	f7ff ff4f 	bl	100016b8 <pull16>
1000181a:	4b03      	ldr	r3, [pc, #12]	; (10001828 <rti+0x1c>)
1000181c:	8018      	strh	r0, [r3, #0]
1000181e:	4b03      	ldr	r3, [pc, #12]	; (1000182c <rti+0x20>)
10001820:	8018      	strh	r0, [r3, #0]
10001822:	bd10      	pop	{r4, pc}
10001824:	20008409 	.word	0x20008409
10001828:	20019050 	.word	0x20019050
1000182c:	2001900c 	.word	0x2001900c

10001830 <plp>:
10001830:	b510      	push	{r4, lr}
10001832:	f7ff ff6b 	bl	1000170c <pull8>
10001836:	2320      	movs	r3, #32
10001838:	4318      	orrs	r0, r3
1000183a:	4b01      	ldr	r3, [pc, #4]	; (10001840 <plp+0x10>)
1000183c:	7018      	strb	r0, [r3, #0]
1000183e:	bd10      	pop	{r4, pc}
10001840:	20008409 	.word	0x20008409

10001844 <reset6502>:
10001844:	b510      	push	{r4, lr}
10001846:	480d      	ldr	r0, [pc, #52]	; (1000187c <reset6502+0x38>)
10001848:	f7ff fdf4 	bl	10001434 <read6502>
1000184c:	b204      	sxth	r4, r0
1000184e:	480c      	ldr	r0, [pc, #48]	; (10001880 <reset6502+0x3c>)
10001850:	f7ff fdf0 	bl	10001434 <read6502>
10001854:	0200      	lsls	r0, r0, #8
10001856:	4304      	orrs	r4, r0
10001858:	4b0a      	ldr	r3, [pc, #40]	; (10001884 <reset6502+0x40>)
1000185a:	801c      	strh	r4, [r3, #0]
1000185c:	2300      	movs	r3, #0
1000185e:	4a0a      	ldr	r2, [pc, #40]	; (10001888 <reset6502+0x44>)
10001860:	7013      	strb	r3, [r2, #0]
10001862:	4a0a      	ldr	r2, [pc, #40]	; (1000188c <reset6502+0x48>)
10001864:	7013      	strb	r3, [r2, #0]
10001866:	4a0a      	ldr	r2, [pc, #40]	; (10001890 <reset6502+0x4c>)
10001868:	7013      	strb	r3, [r2, #0]
1000186a:	4b0a      	ldr	r3, [pc, #40]	; (10001894 <reset6502+0x50>)
1000186c:	22fd      	movs	r2, #253	; 0xfd
1000186e:	701a      	strb	r2, [r3, #0]
10001870:	4a09      	ldr	r2, [pc, #36]	; (10001898 <reset6502+0x54>)
10001872:	7813      	ldrb	r3, [r2, #0]
10001874:	2120      	movs	r1, #32
10001876:	430b      	orrs	r3, r1
10001878:	7013      	strb	r3, [r2, #0]
1000187a:	bd10      	pop	{r4, pc}
1000187c:	0000fffc 	.word	0x0000fffc
10001880:	0000fffd 	.word	0x0000fffd
10001884:	2001900c 	.word	0x2001900c
10001888:	2001900e 	.word	0x2001900e
1000188c:	20008fea 	.word	0x20008fea
10001890:	20019004 	.word	0x20019004
10001894:	20019009 	.word	0x20019009
10001898:	20008409 	.word	0x20008409

1000189c <bbs>:
1000189c:	b570      	push	{r4, r5, r6, lr}
1000189e:	0005      	movs	r5, r0
100018a0:	4c14      	ldr	r4, [pc, #80]	; (100018f4 <bbs+0x58>)
100018a2:	8820      	ldrh	r0, [r4, #0]
100018a4:	1c43      	adds	r3, r0, #1
100018a6:	8023      	strh	r3, [r4, #0]
100018a8:	f7ff fdc4 	bl	10001434 <read6502>
100018ac:	b280      	uxth	r0, r0
100018ae:	f7ff fdc1 	bl	10001434 <read6502>
100018b2:	b280      	uxth	r0, r0
100018b4:	4b10      	ldr	r3, [pc, #64]	; (100018f8 <bbs+0x5c>)
100018b6:	8018      	strh	r0, [r3, #0]
100018b8:	8823      	ldrh	r3, [r4, #0]
100018ba:	3301      	adds	r3, #1
100018bc:	b29b      	uxth	r3, r3
100018be:	8023      	strh	r3, [r4, #0]
100018c0:	4a0e      	ldr	r2, [pc, #56]	; (100018fc <bbs+0x60>)
100018c2:	8013      	strh	r3, [r2, #0]
100018c4:	4128      	asrs	r0, r5
100018c6:	07c2      	lsls	r2, r0, #31
100018c8:	d504      	bpl.n	100018d4 <bbs+0x38>
100018ca:	4a0d      	ldr	r2, [pc, #52]	; (10001900 <bbs+0x64>)
100018cc:	8812      	ldrh	r2, [r2, #0]
100018ce:	189a      	adds	r2, r3, r2
100018d0:	4908      	ldr	r1, [pc, #32]	; (100018f4 <bbs+0x58>)
100018d2:	800a      	strh	r2, [r1, #0]
100018d4:	4a07      	ldr	r2, [pc, #28]	; (100018f4 <bbs+0x58>)
100018d6:	8812      	ldrh	r2, [r2, #0]
100018d8:	4053      	eors	r3, r2
100018da:	22ff      	movs	r2, #255	; 0xff
100018dc:	4393      	bics	r3, r2
100018de:	d004      	beq.n	100018ea <bbs+0x4e>
100018e0:	4a08      	ldr	r2, [pc, #32]	; (10001904 <bbs+0x68>)
100018e2:	6813      	ldr	r3, [r2, #0]
100018e4:	3302      	adds	r3, #2
100018e6:	6013      	str	r3, [r2, #0]
100018e8:	bd70      	pop	{r4, r5, r6, pc}
100018ea:	4a06      	ldr	r2, [pc, #24]	; (10001904 <bbs+0x68>)
100018ec:	6813      	ldr	r3, [r2, #0]
100018ee:	3301      	adds	r3, #1
100018f0:	6013      	str	r3, [r2, #0]
100018f2:	e7f9      	b.n	100018e8 <bbs+0x4c>
100018f4:	2001900c 	.word	0x2001900c
100018f8:	20019050 	.word	0x20019050
100018fc:	20018ffc 	.word	0x20018ffc
10001900:	20008fec 	.word	0x20008fec
10001904:	20008ae0 	.word	0x20008ae0

10001908 <bbs7>:
10001908:	b510      	push	{r4, lr}
1000190a:	2007      	movs	r0, #7
1000190c:	f7ff ffc6 	bl	1000189c <bbs>
10001910:	bd10      	pop	{r4, pc}

10001912 <bbs6>:
10001912:	b510      	push	{r4, lr}
10001914:	2006      	movs	r0, #6
10001916:	f7ff ffc1 	bl	1000189c <bbs>
1000191a:	bd10      	pop	{r4, pc}

1000191c <bbs5>:
1000191c:	b510      	push	{r4, lr}
1000191e:	2005      	movs	r0, #5
10001920:	f7ff ffbc 	bl	1000189c <bbs>
10001924:	bd10      	pop	{r4, pc}

10001926 <bbs4>:
10001926:	b510      	push	{r4, lr}
10001928:	2004      	movs	r0, #4
1000192a:	f7ff ffb7 	bl	1000189c <bbs>
1000192e:	bd10      	pop	{r4, pc}

10001930 <bbs3>:
10001930:	b510      	push	{r4, lr}
10001932:	2003      	movs	r0, #3
10001934:	f7ff ffb2 	bl	1000189c <bbs>
10001938:	bd10      	pop	{r4, pc}

1000193a <bbs2>:
1000193a:	b510      	push	{r4, lr}
1000193c:	2002      	movs	r0, #2
1000193e:	f7ff ffad 	bl	1000189c <bbs>
10001942:	bd10      	pop	{r4, pc}

10001944 <bbs1>:
10001944:	b510      	push	{r4, lr}
10001946:	2001      	movs	r0, #1
10001948:	f7ff ffa8 	bl	1000189c <bbs>
1000194c:	bd10      	pop	{r4, pc}

1000194e <bbs0>:
1000194e:	b510      	push	{r4, lr}
10001950:	2000      	movs	r0, #0
10001952:	f7ff ffa3 	bl	1000189c <bbs>
10001956:	bd10      	pop	{r4, pc}

10001958 <getvalue>:
10001958:	b510      	push	{r4, lr}
1000195a:	4b08      	ldr	r3, [pc, #32]	; (1000197c <getvalue+0x24>)
1000195c:	781b      	ldrb	r3, [r3, #0]
1000195e:	009b      	lsls	r3, r3, #2
10001960:	4a07      	ldr	r2, [pc, #28]	; (10001980 <getvalue+0x28>)
10001962:	589a      	ldr	r2, [r3, r2]
10001964:	4b07      	ldr	r3, [pc, #28]	; (10001984 <getvalue+0x2c>)
10001966:	429a      	cmp	r2, r3
10001968:	d005      	beq.n	10001976 <getvalue+0x1e>
1000196a:	4b07      	ldr	r3, [pc, #28]	; (10001988 <getvalue+0x30>)
1000196c:	8818      	ldrh	r0, [r3, #0]
1000196e:	f7ff fd61 	bl	10001434 <read6502>
10001972:	b280      	uxth	r0, r0
10001974:	bd10      	pop	{r4, pc}
10001976:	4b05      	ldr	r3, [pc, #20]	; (1000198c <getvalue+0x34>)
10001978:	7818      	ldrb	r0, [r3, #0]
1000197a:	e7fb      	b.n	10001974 <getvalue+0x1c>
1000197c:	2001900a 	.word	0x2001900a
10001980:	10009e48 	.word	0x10009e48
10001984:	1000035f 	.word	0x1000035f
10001988:	20008fe8 	.word	0x20008fe8
1000198c:	2001900e 	.word	0x2001900e

10001990 <sbc>:
10001990:	b5f8      	push	{r3, r4, r5, r6, r7, lr}
10001992:	4b4f      	ldr	r3, [pc, #316]	; (10001ad0 <sbc+0x140>)
10001994:	2201      	movs	r2, #1
10001996:	701a      	strb	r2, [r3, #0]
10001998:	4b4e      	ldr	r3, [pc, #312]	; (10001ad4 <sbc+0x144>)
1000199a:	781b      	ldrb	r3, [r3, #0]
1000199c:	071b      	lsls	r3, r3, #28
1000199e:	d55a      	bpl.n	10001a56 <sbc+0xc6>
100019a0:	f7ff ffda 	bl	10001958 <getvalue>
100019a4:	4b4c      	ldr	r3, [pc, #304]	; (10001ad8 <sbc+0x148>)
100019a6:	8018      	strh	r0, [r3, #0]
100019a8:	4b4a      	ldr	r3, [pc, #296]	; (10001ad4 <sbc+0x144>)
100019aa:	781c      	ldrb	r4, [r3, #0]
100019ac:	2301      	movs	r3, #1
100019ae:	4063      	eors	r3, r4
100019b0:	2501      	movs	r5, #1
100019b2:	401d      	ands	r5, r3
100019b4:	b2a9      	uxth	r1, r5
100019b6:	4b49      	ldr	r3, [pc, #292]	; (10001adc <sbc+0x14c>)
100019b8:	781e      	ldrb	r6, [r3, #0]
100019ba:	270f      	movs	r7, #15
100019bc:	4037      	ands	r7, r6
100019be:	b2ba      	uxth	r2, r7
100019c0:	230f      	movs	r3, #15
100019c2:	4003      	ands	r3, r0
100019c4:	195d      	adds	r5, r3, r5
100019c6:	42af      	cmp	r7, r5
100019c8:	db31      	blt.n	10001a2e <sbc+0x9e>
100019ca:	18cb      	adds	r3, r1, r3
100019cc:	1ad3      	subs	r3, r2, r3
100019ce:	b299      	uxth	r1, r3
100019d0:	2200      	movs	r2, #0
100019d2:	0935      	lsrs	r5, r6, #4
100019d4:	b2ab      	uxth	r3, r5
100019d6:	0900      	lsrs	r0, r0, #4
100019d8:	b280      	uxth	r0, r0
100019da:	1886      	adds	r6, r0, r2
100019dc:	42b5      	cmp	r5, r6
100019de:	db2d      	blt.n	10001a3c <sbc+0xac>
100019e0:	b2b0      	uxth	r0, r6
100019e2:	1a1b      	subs	r3, r3, r0
100019e4:	b29b      	uxth	r3, r3
100019e6:	2201      	movs	r2, #1
100019e8:	011b      	lsls	r3, r3, #4
100019ea:	430b      	orrs	r3, r1
100019ec:	493c      	ldr	r1, [pc, #240]	; (10001ae0 <sbc+0x150>)
100019ee:	800b      	strh	r3, [r1, #0]
100019f0:	2a00      	cmp	r2, #0
100019f2:	d02b      	beq.n	10001a4c <sbc+0xbc>
100019f4:	2301      	movs	r3, #1
100019f6:	431c      	orrs	r4, r3
100019f8:	4b36      	ldr	r3, [pc, #216]	; (10001ad4 <sbc+0x144>)
100019fa:	701c      	strb	r4, [r3, #0]
100019fc:	4a39      	ldr	r2, [pc, #228]	; (10001ae4 <sbc+0x154>)
100019fe:	6813      	ldr	r3, [r2, #0]
10001a00:	3301      	adds	r3, #1
10001a02:	6013      	str	r3, [r2, #0]
10001a04:	4b36      	ldr	r3, [pc, #216]	; (10001ae0 <sbc+0x150>)
10001a06:	881b      	ldrh	r3, [r3, #0]
10001a08:	4a34      	ldr	r2, [pc, #208]	; (10001adc <sbc+0x14c>)
10001a0a:	7013      	strb	r3, [r2, #0]
10001a0c:	22ff      	movs	r2, #255	; 0xff
10001a0e:	421a      	tst	r2, r3
10001a10:	d052      	beq.n	10001ab8 <sbc+0x128>
10001a12:	4930      	ldr	r1, [pc, #192]	; (10001ad4 <sbc+0x144>)
10001a14:	780a      	ldrb	r2, [r1, #0]
10001a16:	2002      	movs	r0, #2
10001a18:	4382      	bics	r2, r0
10001a1a:	700a      	strb	r2, [r1, #0]
10001a1c:	061b      	lsls	r3, r3, #24
10001a1e:	d551      	bpl.n	10001ac4 <sbc+0x134>
10001a20:	4a2c      	ldr	r2, [pc, #176]	; (10001ad4 <sbc+0x144>)
10001a22:	7811      	ldrb	r1, [r2, #0]
10001a24:	2380      	movs	r3, #128	; 0x80
10001a26:	425b      	negs	r3, r3
10001a28:	430b      	orrs	r3, r1
10001a2a:	7013      	strb	r3, [r2, #0]
10001a2c:	bdf8      	pop	{r3, r4, r5, r6, r7, pc}
10001a2e:	18cb      	adds	r3, r1, r3
10001a30:	1ad3      	subs	r3, r2, r3
10001a32:	b29b      	uxth	r3, r3
10001a34:	330a      	adds	r3, #10
10001a36:	b299      	uxth	r1, r3
10001a38:	2201      	movs	r2, #1
10001a3a:	e7ca      	b.n	100019d2 <sbc+0x42>
10001a3c:	1810      	adds	r0, r2, r0
10001a3e:	b280      	uxth	r0, r0
10001a40:	1a1b      	subs	r3, r3, r0
10001a42:	b29b      	uxth	r3, r3
10001a44:	330a      	adds	r3, #10
10001a46:	b29b      	uxth	r3, r3
10001a48:	2200      	movs	r2, #0
10001a4a:	e7cd      	b.n	100019e8 <sbc+0x58>
10001a4c:	2301      	movs	r3, #1
10001a4e:	439c      	bics	r4, r3
10001a50:	4b20      	ldr	r3, [pc, #128]	; (10001ad4 <sbc+0x144>)
10001a52:	701c      	strb	r4, [r3, #0]
10001a54:	e7d2      	b.n	100019fc <sbc+0x6c>
10001a56:	f7ff ff7f 	bl	10001958 <getvalue>
10001a5a:	23ff      	movs	r3, #255	; 0xff
10001a5c:	4058      	eors	r0, r3
10001a5e:	b280      	uxth	r0, r0
10001a60:	4b1d      	ldr	r3, [pc, #116]	; (10001ad8 <sbc+0x148>)
10001a62:	8018      	strh	r0, [r3, #0]
10001a64:	4b1d      	ldr	r3, [pc, #116]	; (10001adc <sbc+0x14c>)
10001a66:	781a      	ldrb	r2, [r3, #0]
10001a68:	1883      	adds	r3, r0, r2
10001a6a:	b29b      	uxth	r3, r3
10001a6c:	4919      	ldr	r1, [pc, #100]	; (10001ad4 <sbc+0x144>)
10001a6e:	7809      	ldrb	r1, [r1, #0]
10001a70:	2401      	movs	r4, #1
10001a72:	400c      	ands	r4, r1
10001a74:	191b      	adds	r3, r3, r4
10001a76:	b29b      	uxth	r3, r3
10001a78:	4c19      	ldr	r4, [pc, #100]	; (10001ae0 <sbc+0x150>)
10001a7a:	8023      	strh	r3, [r4, #0]
10001a7c:	24ff      	movs	r4, #255	; 0xff
10001a7e:	001d      	movs	r5, r3
10001a80:	43a5      	bics	r5, r4
10001a82:	d00e      	beq.n	10001aa2 <sbc+0x112>
10001a84:	2401      	movs	r4, #1
10001a86:	4321      	orrs	r1, r4
10001a88:	4c12      	ldr	r4, [pc, #72]	; (10001ad4 <sbc+0x144>)
10001a8a:	7021      	strb	r1, [r4, #0]
10001a8c:	405a      	eors	r2, r3
10001a8e:	4058      	eors	r0, r3
10001a90:	4010      	ands	r0, r2
10001a92:	0603      	lsls	r3, r0, #24
10001a94:	d50a      	bpl.n	10001aac <sbc+0x11c>
10001a96:	4a0f      	ldr	r2, [pc, #60]	; (10001ad4 <sbc+0x144>)
10001a98:	7813      	ldrb	r3, [r2, #0]
10001a9a:	2140      	movs	r1, #64	; 0x40
10001a9c:	430b      	orrs	r3, r1
10001a9e:	7013      	strb	r3, [r2, #0]
10001aa0:	e7b0      	b.n	10001a04 <sbc+0x74>
10001aa2:	2401      	movs	r4, #1
10001aa4:	43a1      	bics	r1, r4
10001aa6:	4c0b      	ldr	r4, [pc, #44]	; (10001ad4 <sbc+0x144>)
10001aa8:	7021      	strb	r1, [r4, #0]
10001aaa:	e7ef      	b.n	10001a8c <sbc+0xfc>
10001aac:	4a09      	ldr	r2, [pc, #36]	; (10001ad4 <sbc+0x144>)
10001aae:	7813      	ldrb	r3, [r2, #0]
10001ab0:	2140      	movs	r1, #64	; 0x40
10001ab2:	438b      	bics	r3, r1
10001ab4:	7013      	strb	r3, [r2, #0]
10001ab6:	e7a5      	b.n	10001a04 <sbc+0x74>
10001ab8:	4906      	ldr	r1, [pc, #24]	; (10001ad4 <sbc+0x144>)
10001aba:	780a      	ldrb	r2, [r1, #0]
10001abc:	2002      	movs	r0, #2
10001abe:	4302      	orrs	r2, r0
10001ac0:	700a      	strb	r2, [r1, #0]
10001ac2:	e7ab      	b.n	10001a1c <sbc+0x8c>
10001ac4:	4a03      	ldr	r2, [pc, #12]	; (10001ad4 <sbc+0x144>)
10001ac6:	7811      	ldrb	r1, [r2, #0]
10001ac8:	237f      	movs	r3, #127	; 0x7f
10001aca:	400b      	ands	r3, r1
10001acc:	7013      	strb	r3, [r2, #0]
10001ace:	e7ad      	b.n	10001a2c <sbc+0x9c>
10001ad0:	20008ff4 	.word	0x20008ff4
10001ad4:	20008409 	.word	0x20008409
10001ad8:	20019050 	.word	0x20019050
10001adc:	2001900e 	.word	0x2001900e
10001ae0:	20019006 	.word	0x20019006
10001ae4:	20008ae0 	.word	0x20008ae0

10001ae8 <cpx>:
10001ae8:	b510      	push	{r4, lr}
10001aea:	f7ff ff35 	bl	10001958 <getvalue>
10001aee:	4b19      	ldr	r3, [pc, #100]	; (10001b54 <cpx+0x6c>)
10001af0:	8018      	strh	r0, [r3, #0]
10001af2:	4b19      	ldr	r3, [pc, #100]	; (10001b58 <cpx+0x70>)
10001af4:	781b      	ldrb	r3, [r3, #0]
10001af6:	1a19      	subs	r1, r3, r0
10001af8:	4a18      	ldr	r2, [pc, #96]	; (10001b5c <cpx+0x74>)
10001afa:	8011      	strh	r1, [r2, #0]
10001afc:	b2c0      	uxtb	r0, r0
10001afe:	4283      	cmp	r3, r0
10001b00:	d316      	bcc.n	10001b30 <cpx+0x48>
10001b02:	4917      	ldr	r1, [pc, #92]	; (10001b60 <cpx+0x78>)
10001b04:	780a      	ldrb	r2, [r1, #0]
10001b06:	2401      	movs	r4, #1
10001b08:	4322      	orrs	r2, r4
10001b0a:	700a      	strb	r2, [r1, #0]
10001b0c:	4283      	cmp	r3, r0
10001b0e:	d015      	beq.n	10001b3c <cpx+0x54>
10001b10:	4a13      	ldr	r2, [pc, #76]	; (10001b60 <cpx+0x78>)
10001b12:	7813      	ldrb	r3, [r2, #0]
10001b14:	2102      	movs	r1, #2
10001b16:	438b      	bics	r3, r1
10001b18:	7013      	strb	r3, [r2, #0]
10001b1a:	4b10      	ldr	r3, [pc, #64]	; (10001b5c <cpx+0x74>)
10001b1c:	881b      	ldrh	r3, [r3, #0]
10001b1e:	061b      	lsls	r3, r3, #24
10001b20:	d512      	bpl.n	10001b48 <cpx+0x60>
10001b22:	4a0f      	ldr	r2, [pc, #60]	; (10001b60 <cpx+0x78>)
10001b24:	7811      	ldrb	r1, [r2, #0]
10001b26:	2380      	movs	r3, #128	; 0x80
10001b28:	425b      	negs	r3, r3
10001b2a:	430b      	orrs	r3, r1
10001b2c:	7013      	strb	r3, [r2, #0]
10001b2e:	bd10      	pop	{r4, pc}
10001b30:	490b      	ldr	r1, [pc, #44]	; (10001b60 <cpx+0x78>)
10001b32:	780a      	ldrb	r2, [r1, #0]
10001b34:	2401      	movs	r4, #1
10001b36:	43a2      	bics	r2, r4
10001b38:	700a      	strb	r2, [r1, #0]
10001b3a:	e7e7      	b.n	10001b0c <cpx+0x24>
10001b3c:	4a08      	ldr	r2, [pc, #32]	; (10001b60 <cpx+0x78>)
10001b3e:	7813      	ldrb	r3, [r2, #0]
10001b40:	2102      	movs	r1, #2
10001b42:	430b      	orrs	r3, r1
10001b44:	7013      	strb	r3, [r2, #0]
10001b46:	e7e8      	b.n	10001b1a <cpx+0x32>
10001b48:	4a05      	ldr	r2, [pc, #20]	; (10001b60 <cpx+0x78>)
10001b4a:	7811      	ldrb	r1, [r2, #0]
10001b4c:	237f      	movs	r3, #127	; 0x7f
10001b4e:	400b      	ands	r3, r1
10001b50:	7013      	strb	r3, [r2, #0]
10001b52:	e7ec      	b.n	10001b2e <cpx+0x46>
10001b54:	20019050 	.word	0x20019050
10001b58:	20008fea 	.word	0x20008fea
10001b5c:	20019006 	.word	0x20019006
10001b60:	20008409 	.word	0x20008409

10001b64 <cmp>:
10001b64:	b510      	push	{r4, lr}
10001b66:	4b1c      	ldr	r3, [pc, #112]	; (10001bd8 <cmp+0x74>)
10001b68:	2201      	movs	r2, #1
10001b6a:	701a      	strb	r2, [r3, #0]
10001b6c:	f7ff fef4 	bl	10001958 <getvalue>
10001b70:	4b1a      	ldr	r3, [pc, #104]	; (10001bdc <cmp+0x78>)
10001b72:	8018      	strh	r0, [r3, #0]
10001b74:	4b1a      	ldr	r3, [pc, #104]	; (10001be0 <cmp+0x7c>)
10001b76:	781b      	ldrb	r3, [r3, #0]
10001b78:	1a19      	subs	r1, r3, r0
10001b7a:	4a1a      	ldr	r2, [pc, #104]	; (10001be4 <cmp+0x80>)
10001b7c:	8011      	strh	r1, [r2, #0]
10001b7e:	b2c0      	uxtb	r0, r0
10001b80:	4283      	cmp	r3, r0
10001b82:	d316      	bcc.n	10001bb2 <cmp+0x4e>
10001b84:	4918      	ldr	r1, [pc, #96]	; (10001be8 <cmp+0x84>)
10001b86:	780a      	ldrb	r2, [r1, #0]
10001b88:	2401      	movs	r4, #1
10001b8a:	4322      	orrs	r2, r4
10001b8c:	700a      	strb	r2, [r1, #0]
10001b8e:	4283      	cmp	r3, r0
10001b90:	d015      	beq.n	10001bbe <cmp+0x5a>
10001b92:	4a15      	ldr	r2, [pc, #84]	; (10001be8 <cmp+0x84>)
10001b94:	7813      	ldrb	r3, [r2, #0]
10001b96:	2102      	movs	r1, #2
10001b98:	438b      	bics	r3, r1
10001b9a:	7013      	strb	r3, [r2, #0]
10001b9c:	4b11      	ldr	r3, [pc, #68]	; (10001be4 <cmp+0x80>)
10001b9e:	881b      	ldrh	r3, [r3, #0]
10001ba0:	061b      	lsls	r3, r3, #24
10001ba2:	d512      	bpl.n	10001bca <cmp+0x66>
10001ba4:	4a10      	ldr	r2, [pc, #64]	; (10001be8 <cmp+0x84>)
10001ba6:	7811      	ldrb	r1, [r2, #0]
10001ba8:	2380      	movs	r3, #128	; 0x80
10001baa:	425b      	negs	r3, r3
10001bac:	430b      	orrs	r3, r1
10001bae:	7013      	strb	r3, [r2, #0]
10001bb0:	bd10      	pop	{r4, pc}
10001bb2:	490d      	ldr	r1, [pc, #52]	; (10001be8 <cmp+0x84>)
10001bb4:	780a      	ldrb	r2, [r1, #0]
10001bb6:	2401      	movs	r4, #1
10001bb8:	43a2      	bics	r2, r4
10001bba:	700a      	strb	r2, [r1, #0]
10001bbc:	e7e7      	b.n	10001b8e <cmp+0x2a>
10001bbe:	4a0a      	ldr	r2, [pc, #40]	; (10001be8 <cmp+0x84>)
10001bc0:	7813      	ldrb	r3, [r2, #0]
10001bc2:	2102      	movs	r1, #2
10001bc4:	430b      	orrs	r3, r1
10001bc6:	7013      	strb	r3, [r2, #0]
10001bc8:	e7e8      	b.n	10001b9c <cmp+0x38>
10001bca:	4a07      	ldr	r2, [pc, #28]	; (10001be8 <cmp+0x84>)
10001bcc:	7811      	ldrb	r1, [r2, #0]
10001bce:	237f      	movs	r3, #127	; 0x7f
10001bd0:	400b      	ands	r3, r1
10001bd2:	7013      	strb	r3, [r2, #0]
10001bd4:	e7ec      	b.n	10001bb0 <cmp+0x4c>
10001bd6:	46c0      	nop			; (mov r8, r8)
10001bd8:	20008ff4 	.word	0x20008ff4
10001bdc:	20019050 	.word	0x20019050
10001be0:	2001900e 	.word	0x2001900e
10001be4:	20019006 	.word	0x20019006
10001be8:	20008409 	.word	0x20008409

10001bec <cpy>:
10001bec:	b510      	push	{r4, lr}
10001bee:	f7ff feb3 	bl	10001958 <getvalue>
10001bf2:	4b19      	ldr	r3, [pc, #100]	; (10001c58 <cpy+0x6c>)
10001bf4:	8018      	strh	r0, [r3, #0]
10001bf6:	4b19      	ldr	r3, [pc, #100]	; (10001c5c <cpy+0x70>)
10001bf8:	781b      	ldrb	r3, [r3, #0]
10001bfa:	1a19      	subs	r1, r3, r0
10001bfc:	4a18      	ldr	r2, [pc, #96]	; (10001c60 <cpy+0x74>)
10001bfe:	8011      	strh	r1, [r2, #0]
10001c00:	b2c0      	uxtb	r0, r0
10001c02:	4283      	cmp	r3, r0
10001c04:	d316      	bcc.n	10001c34 <cpy+0x48>
10001c06:	4917      	ldr	r1, [pc, #92]	; (10001c64 <cpy+0x78>)
10001c08:	780a      	ldrb	r2, [r1, #0]
10001c0a:	2401      	movs	r4, #1
10001c0c:	4322      	orrs	r2, r4
10001c0e:	700a      	strb	r2, [r1, #0]
10001c10:	4283      	cmp	r3, r0
10001c12:	d015      	beq.n	10001c40 <cpy+0x54>
10001c14:	4a13      	ldr	r2, [pc, #76]	; (10001c64 <cpy+0x78>)
10001c16:	7813      	ldrb	r3, [r2, #0]
10001c18:	2102      	movs	r1, #2
10001c1a:	438b      	bics	r3, r1
10001c1c:	7013      	strb	r3, [r2, #0]
10001c1e:	4b10      	ldr	r3, [pc, #64]	; (10001c60 <cpy+0x74>)
10001c20:	881b      	ldrh	r3, [r3, #0]
10001c22:	061b      	lsls	r3, r3, #24
10001c24:	d512      	bpl.n	10001c4c <cpy+0x60>
10001c26:	4a0f      	ldr	r2, [pc, #60]	; (10001c64 <cpy+0x78>)
10001c28:	7811      	ldrb	r1, [r2, #0]
10001c2a:	2380      	movs	r3, #128	; 0x80
10001c2c:	425b      	negs	r3, r3
10001c2e:	430b      	orrs	r3, r1
10001c30:	7013      	strb	r3, [r2, #0]
10001c32:	bd10      	pop	{r4, pc}
10001c34:	490b      	ldr	r1, [pc, #44]	; (10001c64 <cpy+0x78>)
10001c36:	780a      	ldrb	r2, [r1, #0]
10001c38:	2401      	movs	r4, #1
10001c3a:	43a2      	bics	r2, r4
10001c3c:	700a      	strb	r2, [r1, #0]
10001c3e:	e7e7      	b.n	10001c10 <cpy+0x24>
10001c40:	4a08      	ldr	r2, [pc, #32]	; (10001c64 <cpy+0x78>)
10001c42:	7813      	ldrb	r3, [r2, #0]
10001c44:	2102      	movs	r1, #2
10001c46:	430b      	orrs	r3, r1
10001c48:	7013      	strb	r3, [r2, #0]
10001c4a:	e7e8      	b.n	10001c1e <cpy+0x32>
10001c4c:	4a05      	ldr	r2, [pc, #20]	; (10001c64 <cpy+0x78>)
10001c4e:	7811      	ldrb	r1, [r2, #0]
10001c50:	237f      	movs	r3, #127	; 0x7f
10001c52:	400b      	ands	r3, r1
10001c54:	7013      	strb	r3, [r2, #0]
10001c56:	e7ec      	b.n	10001c32 <cpy+0x46>
10001c58:	20019050 	.word	0x20019050
10001c5c:	20019004 	.word	0x20019004
10001c60:	20019006 	.word	0x20019006
10001c64:	20008409 	.word	0x20008409

10001c68 <ldx>:
10001c68:	b510      	push	{r4, lr}
10001c6a:	4b13      	ldr	r3, [pc, #76]	; (10001cb8 <ldx+0x50>)
10001c6c:	2201      	movs	r2, #1
10001c6e:	701a      	strb	r2, [r3, #0]
10001c70:	f7ff fe72 	bl	10001958 <getvalue>
10001c74:	4b11      	ldr	r3, [pc, #68]	; (10001cbc <ldx+0x54>)
10001c76:	8018      	strh	r0, [r3, #0]
10001c78:	b2c0      	uxtb	r0, r0
10001c7a:	4b11      	ldr	r3, [pc, #68]	; (10001cc0 <ldx+0x58>)
10001c7c:	7018      	strb	r0, [r3, #0]
10001c7e:	2800      	cmp	r0, #0
10001c80:	d00d      	beq.n	10001c9e <ldx+0x36>
10001c82:	4a10      	ldr	r2, [pc, #64]	; (10001cc4 <ldx+0x5c>)
10001c84:	7813      	ldrb	r3, [r2, #0]
10001c86:	2102      	movs	r1, #2
10001c88:	438b      	bics	r3, r1
10001c8a:	7013      	strb	r3, [r2, #0]
10001c8c:	b240      	sxtb	r0, r0
10001c8e:	2800      	cmp	r0, #0
10001c90:	db0b      	blt.n	10001caa <ldx+0x42>
10001c92:	4a0c      	ldr	r2, [pc, #48]	; (10001cc4 <ldx+0x5c>)
10001c94:	7811      	ldrb	r1, [r2, #0]
10001c96:	237f      	movs	r3, #127	; 0x7f
10001c98:	400b      	ands	r3, r1
10001c9a:	7013      	strb	r3, [r2, #0]
10001c9c:	bd10      	pop	{r4, pc}
10001c9e:	4a09      	ldr	r2, [pc, #36]	; (10001cc4 <ldx+0x5c>)
10001ca0:	7813      	ldrb	r3, [r2, #0]
10001ca2:	2102      	movs	r1, #2
10001ca4:	430b      	orrs	r3, r1
10001ca6:	7013      	strb	r3, [r2, #0]
10001ca8:	e7f0      	b.n	10001c8c <ldx+0x24>
10001caa:	4a06      	ldr	r2, [pc, #24]	; (10001cc4 <ldx+0x5c>)
10001cac:	7811      	ldrb	r1, [r2, #0]
10001cae:	2380      	movs	r3, #128	; 0x80
10001cb0:	425b      	negs	r3, r3
10001cb2:	430b      	orrs	r3, r1
10001cb4:	7013      	strb	r3, [r2, #0]
10001cb6:	e7f1      	b.n	10001c9c <ldx+0x34>
10001cb8:	20008ff4 	.word	0x20008ff4
10001cbc:	20019050 	.word	0x20019050
10001cc0:	20008fea 	.word	0x20008fea
10001cc4:	20008409 	.word	0x20008409

10001cc8 <lda>:
10001cc8:	b510      	push	{r4, lr}
10001cca:	4b13      	ldr	r3, [pc, #76]	; (10001d18 <lda+0x50>)
10001ccc:	2201      	movs	r2, #1
10001cce:	701a      	strb	r2, [r3, #0]
10001cd0:	f7ff fe42 	bl	10001958 <getvalue>
10001cd4:	4b11      	ldr	r3, [pc, #68]	; (10001d1c <lda+0x54>)
10001cd6:	8018      	strh	r0, [r3, #0]
10001cd8:	b2c0      	uxtb	r0, r0
10001cda:	4b11      	ldr	r3, [pc, #68]	; (10001d20 <lda+0x58>)
10001cdc:	7018      	strb	r0, [r3, #0]
10001cde:	2800      	cmp	r0, #0
10001ce0:	d00d      	beq.n	10001cfe <lda+0x36>
10001ce2:	4a10      	ldr	r2, [pc, #64]	; (10001d24 <lda+0x5c>)
10001ce4:	7813      	ldrb	r3, [r2, #0]
10001ce6:	2102      	movs	r1, #2
10001ce8:	438b      	bics	r3, r1
10001cea:	7013      	strb	r3, [r2, #0]
10001cec:	b240      	sxtb	r0, r0
10001cee:	2800      	cmp	r0, #0
10001cf0:	db0b      	blt.n	10001d0a <lda+0x42>
10001cf2:	4a0c      	ldr	r2, [pc, #48]	; (10001d24 <lda+0x5c>)
10001cf4:	7811      	ldrb	r1, [r2, #0]
10001cf6:	237f      	movs	r3, #127	; 0x7f
10001cf8:	400b      	ands	r3, r1
10001cfa:	7013      	strb	r3, [r2, #0]
10001cfc:	bd10      	pop	{r4, pc}
10001cfe:	4a09      	ldr	r2, [pc, #36]	; (10001d24 <lda+0x5c>)
10001d00:	7813      	ldrb	r3, [r2, #0]
10001d02:	2102      	movs	r1, #2
10001d04:	430b      	orrs	r3, r1
10001d06:	7013      	strb	r3, [r2, #0]
10001d08:	e7f0      	b.n	10001cec <lda+0x24>
10001d0a:	4a06      	ldr	r2, [pc, #24]	; (10001d24 <lda+0x5c>)
10001d0c:	7811      	ldrb	r1, [r2, #0]
10001d0e:	2380      	movs	r3, #128	; 0x80
10001d10:	425b      	negs	r3, r3
10001d12:	430b      	orrs	r3, r1
10001d14:	7013      	strb	r3, [r2, #0]
10001d16:	e7f1      	b.n	10001cfc <lda+0x34>
10001d18:	20008ff4 	.word	0x20008ff4
10001d1c:	20019050 	.word	0x20019050
10001d20:	2001900e 	.word	0x2001900e
10001d24:	20008409 	.word	0x20008409

10001d28 <ldy>:
10001d28:	b510      	push	{r4, lr}
10001d2a:	4b13      	ldr	r3, [pc, #76]	; (10001d78 <ldy+0x50>)
10001d2c:	2201      	movs	r2, #1
10001d2e:	701a      	strb	r2, [r3, #0]
10001d30:	f7ff fe12 	bl	10001958 <getvalue>
10001d34:	4b11      	ldr	r3, [pc, #68]	; (10001d7c <ldy+0x54>)
10001d36:	8018      	strh	r0, [r3, #0]
10001d38:	b2c0      	uxtb	r0, r0
10001d3a:	4b11      	ldr	r3, [pc, #68]	; (10001d80 <ldy+0x58>)
10001d3c:	7018      	strb	r0, [r3, #0]
10001d3e:	2800      	cmp	r0, #0
10001d40:	d00d      	beq.n	10001d5e <ldy+0x36>
10001d42:	4a10      	ldr	r2, [pc, #64]	; (10001d84 <ldy+0x5c>)
10001d44:	7813      	ldrb	r3, [r2, #0]
10001d46:	2102      	movs	r1, #2
10001d48:	438b      	bics	r3, r1
10001d4a:	7013      	strb	r3, [r2, #0]
10001d4c:	b240      	sxtb	r0, r0
10001d4e:	2800      	cmp	r0, #0
10001d50:	db0b      	blt.n	10001d6a <ldy+0x42>
10001d52:	4a0c      	ldr	r2, [pc, #48]	; (10001d84 <ldy+0x5c>)
10001d54:	7811      	ldrb	r1, [r2, #0]
10001d56:	237f      	movs	r3, #127	; 0x7f
10001d58:	400b      	ands	r3, r1
10001d5a:	7013      	strb	r3, [r2, #0]
10001d5c:	bd10      	pop	{r4, pc}
10001d5e:	4a09      	ldr	r2, [pc, #36]	; (10001d84 <ldy+0x5c>)
10001d60:	7813      	ldrb	r3, [r2, #0]
10001d62:	2102      	movs	r1, #2
10001d64:	430b      	orrs	r3, r1
10001d66:	7013      	strb	r3, [r2, #0]
10001d68:	e7f0      	b.n	10001d4c <ldy+0x24>
10001d6a:	4a06      	ldr	r2, [pc, #24]	; (10001d84 <ldy+0x5c>)
10001d6c:	7811      	ldrb	r1, [r2, #0]
10001d6e:	2380      	movs	r3, #128	; 0x80
10001d70:	425b      	negs	r3, r3
10001d72:	430b      	orrs	r3, r1
10001d74:	7013      	strb	r3, [r2, #0]
10001d76:	e7f1      	b.n	10001d5c <ldy+0x34>
10001d78:	20008ff4 	.word	0x20008ff4
10001d7c:	20019050 	.word	0x20019050
10001d80:	20019004 	.word	0x20019004
10001d84:	20008409 	.word	0x20008409

10001d88 <adc>:
10001d88:	b510      	push	{r4, lr}
10001d8a:	4b56      	ldr	r3, [pc, #344]	; (10001ee4 <adc+0x15c>)
10001d8c:	2201      	movs	r2, #1
10001d8e:	701a      	strb	r2, [r3, #0]
10001d90:	f7ff fde2 	bl	10001958 <getvalue>
10001d94:	4b54      	ldr	r3, [pc, #336]	; (10001ee8 <adc+0x160>)
10001d96:	8018      	strh	r0, [r3, #0]
10001d98:	4b54      	ldr	r3, [pc, #336]	; (10001eec <adc+0x164>)
10001d9a:	7819      	ldrb	r1, [r3, #0]
10001d9c:	070b      	lsls	r3, r1, #28
10001d9e:	d551      	bpl.n	10001e44 <adc+0xbc>
10001da0:	4b53      	ldr	r3, [pc, #332]	; (10001ef0 <adc+0x168>)
10001da2:	781b      	ldrb	r3, [r3, #0]
10001da4:	220f      	movs	r2, #15
10001da6:	401a      	ands	r2, r3
10001da8:	240f      	movs	r4, #15
10001daa:	4004      	ands	r4, r0
10001dac:	1912      	adds	r2, r2, r4
10001dae:	2401      	movs	r4, #1
10001db0:	400c      	ands	r4, r1
10001db2:	1912      	adds	r2, r2, r4
10001db4:	2a09      	cmp	r2, #9
10001db6:	d904      	bls.n	10001dc2 <adc+0x3a>
10001db8:	3206      	adds	r2, #6
10001dba:	240f      	movs	r4, #15
10001dbc:	4014      	ands	r4, r2
10001dbe:	2210      	movs	r2, #16
10001dc0:	4322      	orrs	r2, r4
10001dc2:	240f      	movs	r4, #15
10001dc4:	43a3      	bics	r3, r4
10001dc6:	34e1      	adds	r4, #225	; 0xe1
10001dc8:	4020      	ands	r0, r4
10001dca:	1818      	adds	r0, r3, r0
10001dcc:	1810      	adds	r0, r2, r0
10001dce:	289f      	cmp	r0, #159	; 0x9f
10001dd0:	d928      	bls.n	10001e24 <adc+0x9c>
10001dd2:	2301      	movs	r3, #1
10001dd4:	4319      	orrs	r1, r3
10001dd6:	4b45      	ldr	r3, [pc, #276]	; (10001eec <adc+0x164>)
10001dd8:	7019      	strb	r1, [r3, #0]
10001dda:	064b      	lsls	r3, r1, #25
10001ddc:	d506      	bpl.n	10001dec <adc+0x64>
10001dde:	2380      	movs	r3, #128	; 0x80
10001de0:	33ff      	adds	r3, #255	; 0xff
10001de2:	4298      	cmp	r0, r3
10001de4:	d902      	bls.n	10001dec <adc+0x64>
10001de6:	4b41      	ldr	r3, [pc, #260]	; (10001eec <adc+0x164>)
10001de8:	2200      	movs	r2, #0
10001dea:	701a      	strb	r2, [r3, #0]
10001dec:	3060      	adds	r0, #96	; 0x60
10001dee:	b280      	uxth	r0, r0
10001df0:	23ff      	movs	r3, #255	; 0xff
10001df2:	4003      	ands	r3, r0
10001df4:	4a3f      	ldr	r2, [pc, #252]	; (10001ef4 <adc+0x16c>)
10001df6:	8013      	strh	r3, [r2, #0]
10001df8:	4a3d      	ldr	r2, [pc, #244]	; (10001ef0 <adc+0x168>)
10001dfa:	7010      	strb	r0, [r2, #0]
10001dfc:	d016      	beq.n	10001e2c <adc+0xa4>
10001dfe:	493b      	ldr	r1, [pc, #236]	; (10001eec <adc+0x164>)
10001e00:	780a      	ldrb	r2, [r1, #0]
10001e02:	2002      	movs	r0, #2
10001e04:	4382      	bics	r2, r0
10001e06:	700a      	strb	r2, [r1, #0]
10001e08:	2280      	movs	r2, #128	; 0x80
10001e0a:	421a      	tst	r2, r3
10001e0c:	d014      	beq.n	10001e38 <adc+0xb0>
10001e0e:	4a37      	ldr	r2, [pc, #220]	; (10001eec <adc+0x164>)
10001e10:	7811      	ldrb	r1, [r2, #0]
10001e12:	2380      	movs	r3, #128	; 0x80
10001e14:	425b      	negs	r3, r3
10001e16:	430b      	orrs	r3, r1
10001e18:	7013      	strb	r3, [r2, #0]
10001e1a:	4a37      	ldr	r2, [pc, #220]	; (10001ef8 <adc+0x170>)
10001e1c:	6813      	ldr	r3, [r2, #0]
10001e1e:	3301      	adds	r3, #1
10001e20:	6013      	str	r3, [r2, #0]
10001e22:	bd10      	pop	{r4, pc}
10001e24:	4b31      	ldr	r3, [pc, #196]	; (10001eec <adc+0x164>)
10001e26:	2200      	movs	r2, #0
10001e28:	701a      	strb	r2, [r3, #0]
10001e2a:	e7e1      	b.n	10001df0 <adc+0x68>
10001e2c:	492f      	ldr	r1, [pc, #188]	; (10001eec <adc+0x164>)
10001e2e:	780a      	ldrb	r2, [r1, #0]
10001e30:	2002      	movs	r0, #2
10001e32:	4302      	orrs	r2, r0
10001e34:	700a      	strb	r2, [r1, #0]
10001e36:	e7e7      	b.n	10001e08 <adc+0x80>
10001e38:	4a2c      	ldr	r2, [pc, #176]	; (10001eec <adc+0x164>)
10001e3a:	7811      	ldrb	r1, [r2, #0]
10001e3c:	237f      	movs	r3, #127	; 0x7f
10001e3e:	400b      	ands	r3, r1
10001e40:	7013      	strb	r3, [r2, #0]
10001e42:	e7ea      	b.n	10001e1a <adc+0x92>
10001e44:	4b2a      	ldr	r3, [pc, #168]	; (10001ef0 <adc+0x168>)
10001e46:	781b      	ldrb	r3, [r3, #0]
10001e48:	18c3      	adds	r3, r0, r3
10001e4a:	b29b      	uxth	r3, r3
10001e4c:	2001      	movs	r0, #1
10001e4e:	4008      	ands	r0, r1
10001e50:	181b      	adds	r3, r3, r0
10001e52:	b29b      	uxth	r3, r3
10001e54:	4a27      	ldr	r2, [pc, #156]	; (10001ef4 <adc+0x16c>)
10001e56:	8013      	strh	r3, [r2, #0]
10001e58:	22ff      	movs	r2, #255	; 0xff
10001e5a:	0018      	movs	r0, r3
10001e5c:	4390      	bics	r0, r2
10001e5e:	d02a      	beq.n	10001eb6 <adc+0x12e>
10001e60:	2201      	movs	r2, #1
10001e62:	4311      	orrs	r1, r2
10001e64:	4a21      	ldr	r2, [pc, #132]	; (10001eec <adc+0x164>)
10001e66:	7011      	strb	r1, [r2, #0]
10001e68:	22ff      	movs	r2, #255	; 0xff
10001e6a:	421a      	tst	r2, r3
10001e6c:	d028      	beq.n	10001ec0 <adc+0x138>
10001e6e:	4a1f      	ldr	r2, [pc, #124]	; (10001eec <adc+0x164>)
10001e70:	7813      	ldrb	r3, [r2, #0]
10001e72:	2102      	movs	r1, #2
10001e74:	438b      	bics	r3, r1
10001e76:	7013      	strb	r3, [r2, #0]
10001e78:	4b1e      	ldr	r3, [pc, #120]	; (10001ef4 <adc+0x16c>)
10001e7a:	881b      	ldrh	r3, [r3, #0]
10001e7c:	061b      	lsls	r3, r3, #24
10001e7e:	d525      	bpl.n	10001ecc <adc+0x144>
10001e80:	4a1a      	ldr	r2, [pc, #104]	; (10001eec <adc+0x164>)
10001e82:	7811      	ldrb	r1, [r2, #0]
10001e84:	2380      	movs	r3, #128	; 0x80
10001e86:	425b      	negs	r3, r3
10001e88:	430b      	orrs	r3, r1
10001e8a:	7013      	strb	r3, [r2, #0]
10001e8c:	4b19      	ldr	r3, [pc, #100]	; (10001ef4 <adc+0x16c>)
10001e8e:	881b      	ldrh	r3, [r3, #0]
10001e90:	4a17      	ldr	r2, [pc, #92]	; (10001ef0 <adc+0x168>)
10001e92:	7812      	ldrb	r2, [r2, #0]
10001e94:	405a      	eors	r2, r3
10001e96:	4914      	ldr	r1, [pc, #80]	; (10001ee8 <adc+0x160>)
10001e98:	8809      	ldrh	r1, [r1, #0]
10001e9a:	404b      	eors	r3, r1
10001e9c:	4013      	ands	r3, r2
10001e9e:	061b      	lsls	r3, r3, #24
10001ea0:	d51a      	bpl.n	10001ed8 <adc+0x150>
10001ea2:	4a12      	ldr	r2, [pc, #72]	; (10001eec <adc+0x164>)
10001ea4:	7813      	ldrb	r3, [r2, #0]
10001ea6:	2140      	movs	r1, #64	; 0x40
10001ea8:	430b      	orrs	r3, r1
10001eaa:	7013      	strb	r3, [r2, #0]
10001eac:	4b11      	ldr	r3, [pc, #68]	; (10001ef4 <adc+0x16c>)
10001eae:	781a      	ldrb	r2, [r3, #0]
10001eb0:	4b0f      	ldr	r3, [pc, #60]	; (10001ef0 <adc+0x168>)
10001eb2:	701a      	strb	r2, [r3, #0]
10001eb4:	e7b5      	b.n	10001e22 <adc+0x9a>
10001eb6:	2201      	movs	r2, #1
10001eb8:	4391      	bics	r1, r2
10001eba:	4a0c      	ldr	r2, [pc, #48]	; (10001eec <adc+0x164>)
10001ebc:	7011      	strb	r1, [r2, #0]
10001ebe:	e7d3      	b.n	10001e68 <adc+0xe0>
10001ec0:	4a0a      	ldr	r2, [pc, #40]	; (10001eec <adc+0x164>)
10001ec2:	7813      	ldrb	r3, [r2, #0]
10001ec4:	2102      	movs	r1, #2
10001ec6:	430b      	orrs	r3, r1
10001ec8:	7013      	strb	r3, [r2, #0]
10001eca:	e7d5      	b.n	10001e78 <adc+0xf0>
10001ecc:	4a07      	ldr	r2, [pc, #28]	; (10001eec <adc+0x164>)
10001ece:	7811      	ldrb	r1, [r2, #0]
10001ed0:	237f      	movs	r3, #127	; 0x7f
10001ed2:	400b      	ands	r3, r1
10001ed4:	7013      	strb	r3, [r2, #0]
10001ed6:	e7d9      	b.n	10001e8c <adc+0x104>
10001ed8:	4a04      	ldr	r2, [pc, #16]	; (10001eec <adc+0x164>)
10001eda:	7813      	ldrb	r3, [r2, #0]
10001edc:	2140      	movs	r1, #64	; 0x40
10001ede:	438b      	bics	r3, r1
10001ee0:	7013      	strb	r3, [r2, #0]
10001ee2:	e7e3      	b.n	10001eac <adc+0x124>
10001ee4:	20008ff4 	.word	0x20008ff4
10001ee8:	20019050 	.word	0x20019050
10001eec:	20008409 	.word	0x20008409
10001ef0:	2001900e 	.word	0x2001900e
10001ef4:	20019006 	.word	0x20019006
10001ef8:	20008ae0 	.word	0x20008ae0

10001efc <eor>:
10001efc:	b510      	push	{r4, lr}
10001efe:	4b16      	ldr	r3, [pc, #88]	; (10001f58 <eor+0x5c>)
10001f00:	2201      	movs	r2, #1
10001f02:	701a      	strb	r2, [r3, #0]
10001f04:	f7ff fd28 	bl	10001958 <getvalue>
10001f08:	4b14      	ldr	r3, [pc, #80]	; (10001f5c <eor+0x60>)
10001f0a:	8018      	strh	r0, [r3, #0]
10001f0c:	4b14      	ldr	r3, [pc, #80]	; (10001f60 <eor+0x64>)
10001f0e:	781b      	ldrb	r3, [r3, #0]
10001f10:	4058      	eors	r0, r3
10001f12:	4b14      	ldr	r3, [pc, #80]	; (10001f64 <eor+0x68>)
10001f14:	8018      	strh	r0, [r3, #0]
10001f16:	23ff      	movs	r3, #255	; 0xff
10001f18:	4203      	tst	r3, r0
10001f1a:	d011      	beq.n	10001f40 <eor+0x44>
10001f1c:	4a12      	ldr	r2, [pc, #72]	; (10001f68 <eor+0x6c>)
10001f1e:	7813      	ldrb	r3, [r2, #0]
10001f20:	2102      	movs	r1, #2
10001f22:	438b      	bics	r3, r1
10001f24:	7013      	strb	r3, [r2, #0]
10001f26:	0603      	lsls	r3, r0, #24
10001f28:	d510      	bpl.n	10001f4c <eor+0x50>
10001f2a:	4a0f      	ldr	r2, [pc, #60]	; (10001f68 <eor+0x6c>)
10001f2c:	7811      	ldrb	r1, [r2, #0]
10001f2e:	2380      	movs	r3, #128	; 0x80
10001f30:	425b      	negs	r3, r3
10001f32:	430b      	orrs	r3, r1
10001f34:	7013      	strb	r3, [r2, #0]
10001f36:	4b0b      	ldr	r3, [pc, #44]	; (10001f64 <eor+0x68>)
10001f38:	781a      	ldrb	r2, [r3, #0]
10001f3a:	4b09      	ldr	r3, [pc, #36]	; (10001f60 <eor+0x64>)
10001f3c:	701a      	strb	r2, [r3, #0]
10001f3e:	bd10      	pop	{r4, pc}
10001f40:	4a09      	ldr	r2, [pc, #36]	; (10001f68 <eor+0x6c>)
10001f42:	7813      	ldrb	r3, [r2, #0]
10001f44:	2102      	movs	r1, #2
10001f46:	430b      	orrs	r3, r1
10001f48:	7013      	strb	r3, [r2, #0]
10001f4a:	e7ec      	b.n	10001f26 <eor+0x2a>
10001f4c:	4a06      	ldr	r2, [pc, #24]	; (10001f68 <eor+0x6c>)
10001f4e:	7811      	ldrb	r1, [r2, #0]
10001f50:	237f      	movs	r3, #127	; 0x7f
10001f52:	400b      	ands	r3, r1
10001f54:	7013      	strb	r3, [r2, #0]
10001f56:	e7ee      	b.n	10001f36 <eor+0x3a>
10001f58:	20008ff4 	.word	0x20008ff4
10001f5c:	20019050 	.word	0x20019050
10001f60:	2001900e 	.word	0x2001900e
10001f64:	20019006 	.word	0x20019006
10001f68:	20008409 	.word	0x20008409

10001f6c <bit>:
10001f6c:	b510      	push	{r4, lr}
10001f6e:	f7ff fcf3 	bl	10001958 <getvalue>
10001f72:	4b12      	ldr	r3, [pc, #72]	; (10001fbc <bit+0x50>)
10001f74:	8018      	strh	r0, [r3, #0]
10001f76:	4b12      	ldr	r3, [pc, #72]	; (10001fc0 <bit+0x54>)
10001f78:	781b      	ldrb	r3, [r3, #0]
10001f7a:	4003      	ands	r3, r0
10001f7c:	4a11      	ldr	r2, [pc, #68]	; (10001fc4 <bit+0x58>)
10001f7e:	8013      	strh	r3, [r2, #0]
10001f80:	d016      	beq.n	10001fb0 <bit+0x44>
10001f82:	4a11      	ldr	r2, [pc, #68]	; (10001fc8 <bit+0x5c>)
10001f84:	7813      	ldrb	r3, [r2, #0]
10001f86:	2102      	movs	r1, #2
10001f88:	438b      	bics	r3, r1
10001f8a:	7013      	strb	r3, [r2, #0]
10001f8c:	4b0f      	ldr	r3, [pc, #60]	; (10001fcc <bit+0x60>)
10001f8e:	781b      	ldrb	r3, [r3, #0]
10001f90:	009b      	lsls	r3, r3, #2
10001f92:	4a0f      	ldr	r2, [pc, #60]	; (10001fd0 <bit+0x64>)
10001f94:	589a      	ldr	r2, [r3, r2]
10001f96:	4b0f      	ldr	r3, [pc, #60]	; (10001fd4 <bit+0x68>)
10001f98:	429a      	cmp	r2, r3
10001f9a:	d008      	beq.n	10001fae <bit+0x42>
10001f9c:	4a0a      	ldr	r2, [pc, #40]	; (10001fc8 <bit+0x5c>)
10001f9e:	7811      	ldrb	r1, [r2, #0]
10001fa0:	233f      	movs	r3, #63	; 0x3f
10001fa2:	400b      	ands	r3, r1
10001fa4:	b240      	sxtb	r0, r0
10001fa6:	213f      	movs	r1, #63	; 0x3f
10001fa8:	4388      	bics	r0, r1
10001faa:	4318      	orrs	r0, r3
10001fac:	7010      	strb	r0, [r2, #0]
10001fae:	bd10      	pop	{r4, pc}
10001fb0:	4a05      	ldr	r2, [pc, #20]	; (10001fc8 <bit+0x5c>)
10001fb2:	7813      	ldrb	r3, [r2, #0]
10001fb4:	2102      	movs	r1, #2
10001fb6:	430b      	orrs	r3, r1
10001fb8:	7013      	strb	r3, [r2, #0]
10001fba:	e7e7      	b.n	10001f8c <bit+0x20>
10001fbc:	20019050 	.word	0x20019050
10001fc0:	2001900e 	.word	0x2001900e
10001fc4:	20019006 	.word	0x20019006
10001fc8:	20008409 	.word	0x20008409
10001fcc:	2001900a 	.word	0x2001900a
10001fd0:	10009e48 	.word	0x10009e48
10001fd4:	10000361 	.word	0x10000361

10001fd8 <and>:
10001fd8:	b510      	push	{r4, lr}
10001fda:	4b16      	ldr	r3, [pc, #88]	; (10002034 <and+0x5c>)
10001fdc:	2201      	movs	r2, #1
10001fde:	701a      	strb	r2, [r3, #0]
10001fe0:	f7ff fcba 	bl	10001958 <getvalue>
10001fe4:	4b14      	ldr	r3, [pc, #80]	; (10002038 <and+0x60>)
10001fe6:	8018      	strh	r0, [r3, #0]
10001fe8:	4b14      	ldr	r3, [pc, #80]	; (1000203c <and+0x64>)
10001fea:	781b      	ldrb	r3, [r3, #0]
10001fec:	4018      	ands	r0, r3
10001fee:	4b14      	ldr	r3, [pc, #80]	; (10002040 <and+0x68>)
10001ff0:	8018      	strh	r0, [r3, #0]
10001ff2:	d012      	beq.n	1000201a <and+0x42>
10001ff4:	4a13      	ldr	r2, [pc, #76]	; (10002044 <and+0x6c>)
10001ff6:	7813      	ldrb	r3, [r2, #0]
10001ff8:	2102      	movs	r1, #2
10001ffa:	438b      	bics	r3, r1
10001ffc:	7013      	strb	r3, [r2, #0]
10001ffe:	2380      	movs	r3, #128	; 0x80
10002000:	4203      	tst	r3, r0
10002002:	d010      	beq.n	10002026 <and+0x4e>
10002004:	4a0f      	ldr	r2, [pc, #60]	; (10002044 <and+0x6c>)
10002006:	7811      	ldrb	r1, [r2, #0]
10002008:	3b01      	subs	r3, #1
1000200a:	3bff      	subs	r3, #255	; 0xff
1000200c:	430b      	orrs	r3, r1
1000200e:	7013      	strb	r3, [r2, #0]
10002010:	4b0b      	ldr	r3, [pc, #44]	; (10002040 <and+0x68>)
10002012:	781a      	ldrb	r2, [r3, #0]
10002014:	4b09      	ldr	r3, [pc, #36]	; (1000203c <and+0x64>)
10002016:	701a      	strb	r2, [r3, #0]
10002018:	bd10      	pop	{r4, pc}
1000201a:	4a0a      	ldr	r2, [pc, #40]	; (10002044 <and+0x6c>)
1000201c:	7813      	ldrb	r3, [r2, #0]
1000201e:	2102      	movs	r1, #2
10002020:	430b      	orrs	r3, r1
10002022:	7013      	strb	r3, [r2, #0]
10002024:	e7eb      	b.n	10001ffe <and+0x26>
10002026:	4a07      	ldr	r2, [pc, #28]	; (10002044 <and+0x6c>)
10002028:	7811      	ldrb	r1, [r2, #0]
1000202a:	237f      	movs	r3, #127	; 0x7f
1000202c:	400b      	ands	r3, r1
1000202e:	7013      	strb	r3, [r2, #0]
10002030:	e7ee      	b.n	10002010 <and+0x38>
10002032:	46c0      	nop			; (mov r8, r8)
10002034:	20008ff4 	.word	0x20008ff4
10002038:	20019050 	.word	0x20019050
1000203c:	2001900e 	.word	0x2001900e
10002040:	20019006 	.word	0x20019006
10002044:	20008409 	.word	0x20008409

10002048 <ora>:
10002048:	b510      	push	{r4, lr}
1000204a:	4b16      	ldr	r3, [pc, #88]	; (100020a4 <ora+0x5c>)
1000204c:	2201      	movs	r2, #1
1000204e:	701a      	strb	r2, [r3, #0]
10002050:	f7ff fc82 	bl	10001958 <getvalue>
10002054:	4b14      	ldr	r3, [pc, #80]	; (100020a8 <ora+0x60>)
10002056:	8018      	strh	r0, [r3, #0]
10002058:	4b14      	ldr	r3, [pc, #80]	; (100020ac <ora+0x64>)
1000205a:	781b      	ldrb	r3, [r3, #0]
1000205c:	4318      	orrs	r0, r3
1000205e:	4b14      	ldr	r3, [pc, #80]	; (100020b0 <ora+0x68>)
10002060:	8018      	strh	r0, [r3, #0]
10002062:	23ff      	movs	r3, #255	; 0xff
10002064:	4203      	tst	r3, r0
10002066:	d011      	beq.n	1000208c <ora+0x44>
10002068:	4a12      	ldr	r2, [pc, #72]	; (100020b4 <ora+0x6c>)
1000206a:	7813      	ldrb	r3, [r2, #0]
1000206c:	2102      	movs	r1, #2
1000206e:	438b      	bics	r3, r1
10002070:	7013      	strb	r3, [r2, #0]
10002072:	0603      	lsls	r3, r0, #24
10002074:	d510      	bpl.n	10002098 <ora+0x50>
10002076:	4a0f      	ldr	r2, [pc, #60]	; (100020b4 <ora+0x6c>)
10002078:	7811      	ldrb	r1, [r2, #0]
1000207a:	2380      	movs	r3, #128	; 0x80
1000207c:	425b      	negs	r3, r3
1000207e:	430b      	orrs	r3, r1
10002080:	7013      	strb	r3, [r2, #0]
10002082:	4b0b      	ldr	r3, [pc, #44]	; (100020b0 <ora+0x68>)
10002084:	781a      	ldrb	r2, [r3, #0]
10002086:	4b09      	ldr	r3, [pc, #36]	; (100020ac <ora+0x64>)
10002088:	701a      	strb	r2, [r3, #0]
1000208a:	bd10      	pop	{r4, pc}
1000208c:	4a09      	ldr	r2, [pc, #36]	; (100020b4 <ora+0x6c>)
1000208e:	7813      	ldrb	r3, [r2, #0]
10002090:	2102      	movs	r1, #2
10002092:	430b      	orrs	r3, r1
10002094:	7013      	strb	r3, [r2, #0]
10002096:	e7ec      	b.n	10002072 <ora+0x2a>
10002098:	4a06      	ldr	r2, [pc, #24]	; (100020b4 <ora+0x6c>)
1000209a:	7811      	ldrb	r1, [r2, #0]
1000209c:	237f      	movs	r3, #127	; 0x7f
1000209e:	400b      	ands	r3, r1
100020a0:	7013      	strb	r3, [r2, #0]
100020a2:	e7ee      	b.n	10002082 <ora+0x3a>
100020a4:	20008ff4 	.word	0x20008ff4
100020a8:	20019050 	.word	0x20019050
100020ac:	2001900e 	.word	0x2001900e
100020b0:	20019006 	.word	0x20019006
100020b4:	20008409 	.word	0x20008409

100020b8 <bbr>:
100020b8:	b570      	push	{r4, r5, r6, lr}
100020ba:	0005      	movs	r5, r0
100020bc:	4c14      	ldr	r4, [pc, #80]	; (10002110 <bbr+0x58>)
100020be:	8820      	ldrh	r0, [r4, #0]
100020c0:	1c43      	adds	r3, r0, #1
100020c2:	8023      	strh	r3, [r4, #0]
100020c4:	f7ff f9b6 	bl	10001434 <read6502>
100020c8:	b280      	uxth	r0, r0
100020ca:	f7ff f9b3 	bl	10001434 <read6502>
100020ce:	b280      	uxth	r0, r0
100020d0:	4b10      	ldr	r3, [pc, #64]	; (10002114 <bbr+0x5c>)
100020d2:	8018      	strh	r0, [r3, #0]
100020d4:	8823      	ldrh	r3, [r4, #0]
100020d6:	3301      	adds	r3, #1
100020d8:	b29b      	uxth	r3, r3
100020da:	8023      	strh	r3, [r4, #0]
100020dc:	4a0e      	ldr	r2, [pc, #56]	; (10002118 <bbr+0x60>)
100020de:	8013      	strh	r3, [r2, #0]
100020e0:	4128      	asrs	r0, r5
100020e2:	07c2      	lsls	r2, r0, #31
100020e4:	d404      	bmi.n	100020f0 <bbr+0x38>
100020e6:	4a0d      	ldr	r2, [pc, #52]	; (1000211c <bbr+0x64>)
100020e8:	8812      	ldrh	r2, [r2, #0]
100020ea:	189a      	adds	r2, r3, r2
100020ec:	4908      	ldr	r1, [pc, #32]	; (10002110 <bbr+0x58>)
100020ee:	800a      	strh	r2, [r1, #0]
100020f0:	4a07      	ldr	r2, [pc, #28]	; (10002110 <bbr+0x58>)
100020f2:	8812      	ldrh	r2, [r2, #0]
100020f4:	4053      	eors	r3, r2
100020f6:	22ff      	movs	r2, #255	; 0xff
100020f8:	4393      	bics	r3, r2
100020fa:	d004      	beq.n	10002106 <bbr+0x4e>
100020fc:	4a08      	ldr	r2, [pc, #32]	; (10002120 <bbr+0x68>)
100020fe:	6813      	ldr	r3, [r2, #0]
10002100:	3302      	adds	r3, #2
10002102:	6013      	str	r3, [r2, #0]
10002104:	bd70      	pop	{r4, r5, r6, pc}
10002106:	4a06      	ldr	r2, [pc, #24]	; (10002120 <bbr+0x68>)
10002108:	6813      	ldr	r3, [r2, #0]
1000210a:	3301      	adds	r3, #1
1000210c:	6013      	str	r3, [r2, #0]
1000210e:	e7f9      	b.n	10002104 <bbr+0x4c>
10002110:	2001900c 	.word	0x2001900c
10002114:	20019050 	.word	0x20019050
10002118:	20018ffc 	.word	0x20018ffc
1000211c:	20008fec 	.word	0x20008fec
10002120:	20008ae0 	.word	0x20008ae0

10002124 <bbr7>:
10002124:	b510      	push	{r4, lr}
10002126:	2007      	movs	r0, #7
10002128:	f7ff ffc6 	bl	100020b8 <bbr>
1000212c:	bd10      	pop	{r4, pc}

1000212e <bbr6>:
1000212e:	b510      	push	{r4, lr}
10002130:	2006      	movs	r0, #6
10002132:	f7ff ffc1 	bl	100020b8 <bbr>
10002136:	bd10      	pop	{r4, pc}

10002138 <bbr5>:
10002138:	b510      	push	{r4, lr}
1000213a:	2005      	movs	r0, #5
1000213c:	f7ff ffbc 	bl	100020b8 <bbr>
10002140:	bd10      	pop	{r4, pc}

10002142 <bbr4>:
10002142:	b510      	push	{r4, lr}
10002144:	2004      	movs	r0, #4
10002146:	f7ff ffb7 	bl	100020b8 <bbr>
1000214a:	bd10      	pop	{r4, pc}

1000214c <bbr3>:
1000214c:	b510      	push	{r4, lr}
1000214e:	2003      	movs	r0, #3
10002150:	f7ff ffb2 	bl	100020b8 <bbr>
10002154:	bd10      	pop	{r4, pc}

10002156 <bbr2>:
10002156:	b510      	push	{r4, lr}
10002158:	2002      	movs	r0, #2
1000215a:	f7ff ffad 	bl	100020b8 <bbr>
1000215e:	bd10      	pop	{r4, pc}

10002160 <bbr1>:
10002160:	b510      	push	{r4, lr}
10002162:	2001      	movs	r0, #1
10002164:	f7ff ffa8 	bl	100020b8 <bbr>
10002168:	bd10      	pop	{r4, pc}

1000216a <bbr0>:
1000216a:	b510      	push	{r4, lr}
1000216c:	2000      	movs	r0, #0
1000216e:	f7ff ffa3 	bl	100020b8 <bbr>
10002172:	bd10      	pop	{r4, pc}

10002174 <zpy>:
10002174:	b510      	push	{r4, lr}
10002176:	4b06      	ldr	r3, [pc, #24]	; (10002190 <zpy+0x1c>)
10002178:	8818      	ldrh	r0, [r3, #0]
1000217a:	1c42      	adds	r2, r0, #1
1000217c:	801a      	strh	r2, [r3, #0]
1000217e:	f7ff f959 	bl	10001434 <read6502>
10002182:	4b04      	ldr	r3, [pc, #16]	; (10002194 <zpy+0x20>)
10002184:	781b      	ldrb	r3, [r3, #0]
10002186:	18c0      	adds	r0, r0, r3
10002188:	b2c0      	uxtb	r0, r0
1000218a:	4b03      	ldr	r3, [pc, #12]	; (10002198 <zpy+0x24>)
1000218c:	8018      	strh	r0, [r3, #0]
1000218e:	bd10      	pop	{r4, pc}
10002190:	2001900c 	.word	0x2001900c
10002194:	20019004 	.word	0x20019004
10002198:	20008fe8 	.word	0x20008fe8

1000219c <aindx>:
1000219c:	b5f8      	push	{r3, r4, r5, r6, r7, lr}
1000219e:	4d12      	ldr	r5, [pc, #72]	; (100021e8 <aindx+0x4c>)
100021a0:	8828      	ldrh	r0, [r5, #0]
100021a2:	f7ff f947 	bl	10001434 <read6502>
100021a6:	b286      	uxth	r6, r0
100021a8:	8828      	ldrh	r0, [r5, #0]
100021aa:	3001      	adds	r0, #1
100021ac:	b280      	uxth	r0, r0
100021ae:	f7ff f941 	bl	10001434 <read6502>
100021b2:	b280      	uxth	r0, r0
100021b4:	0200      	lsls	r0, r0, #8
100021b6:	b284      	uxth	r4, r0
100021b8:	4334      	orrs	r4, r6
100021ba:	4f0c      	ldr	r7, [pc, #48]	; (100021ec <aindx+0x50>)
100021bc:	7838      	ldrb	r0, [r7, #0]
100021be:	1820      	adds	r0, r4, r0
100021c0:	b280      	uxth	r0, r0
100021c2:	f7ff f937 	bl	10001434 <read6502>
100021c6:	b206      	sxth	r6, r0
100021c8:	7838      	ldrb	r0, [r7, #0]
100021ca:	1820      	adds	r0, r4, r0
100021cc:	b280      	uxth	r0, r0
100021ce:	3001      	adds	r0, #1
100021d0:	b280      	uxth	r0, r0
100021d2:	f7ff f92f 	bl	10001434 <read6502>
100021d6:	0200      	lsls	r0, r0, #8
100021d8:	4306      	orrs	r6, r0
100021da:	4b05      	ldr	r3, [pc, #20]	; (100021f0 <aindx+0x54>)
100021dc:	801e      	strh	r6, [r3, #0]
100021de:	882b      	ldrh	r3, [r5, #0]
100021e0:	3302      	adds	r3, #2
100021e2:	802b      	strh	r3, [r5, #0]
100021e4:	bdf8      	pop	{r3, r4, r5, r6, r7, pc}
100021e6:	46c0      	nop			; (mov r8, r8)
100021e8:	2001900c 	.word	0x2001900c
100021ec:	20008fea 	.word	0x20008fea
100021f0:	20008fe8 	.word	0x20008fe8

100021f4 <ind>:
100021f4:	b570      	push	{r4, r5, r6, lr}
100021f6:	4d0f      	ldr	r5, [pc, #60]	; (10002234 <ind+0x40>)
100021f8:	8828      	ldrh	r0, [r5, #0]
100021fa:	f7ff f91b 	bl	10001434 <read6502>
100021fe:	b284      	uxth	r4, r0
10002200:	8828      	ldrh	r0, [r5, #0]
10002202:	3001      	adds	r0, #1
10002204:	b280      	uxth	r0, r0
10002206:	f7ff f915 	bl	10001434 <read6502>
1000220a:	b280      	uxth	r0, r0
1000220c:	0200      	lsls	r0, r0, #8
1000220e:	b280      	uxth	r0, r0
10002210:	4304      	orrs	r4, r0
10002212:	0020      	movs	r0, r4
10002214:	f7ff f90e 	bl	10001434 <read6502>
10002218:	b206      	sxth	r6, r0
1000221a:	3401      	adds	r4, #1
1000221c:	b2a0      	uxth	r0, r4
1000221e:	f7ff f909 	bl	10001434 <read6502>
10002222:	0200      	lsls	r0, r0, #8
10002224:	4306      	orrs	r6, r0
10002226:	4b04      	ldr	r3, [pc, #16]	; (10002238 <ind+0x44>)
10002228:	801e      	strh	r6, [r3, #0]
1000222a:	882b      	ldrh	r3, [r5, #0]
1000222c:	3302      	adds	r3, #2
1000222e:	802b      	strh	r3, [r5, #0]
10002230:	bd70      	pop	{r4, r5, r6, pc}
10002232:	46c0      	nop			; (mov r8, r8)
10002234:	2001900c 	.word	0x2001900c
10002238:	20008fe8 	.word	0x20008fe8

1000223c <absx>:
1000223c:	b570      	push	{r4, r5, r6, lr}
1000223e:	4d10      	ldr	r5, [pc, #64]	; (10002280 <absx+0x44>)
10002240:	8828      	ldrh	r0, [r5, #0]
10002242:	f7ff f8f7 	bl	10001434 <read6502>
10002246:	b204      	sxth	r4, r0
10002248:	8828      	ldrh	r0, [r5, #0]
1000224a:	3001      	adds	r0, #1
1000224c:	b280      	uxth	r0, r0
1000224e:	f7ff f8f1 	bl	10001434 <read6502>
10002252:	0203      	lsls	r3, r0, #8
10002254:	4323      	orrs	r3, r4
10002256:	b29b      	uxth	r3, r3
10002258:	22ff      	movs	r2, #255	; 0xff
1000225a:	0019      	movs	r1, r3
1000225c:	4391      	bics	r1, r2
1000225e:	4809      	ldr	r0, [pc, #36]	; (10002284 <absx+0x48>)
10002260:	7800      	ldrb	r0, [r0, #0]
10002262:	181b      	adds	r3, r3, r0
10002264:	b29b      	uxth	r3, r3
10002266:	4808      	ldr	r0, [pc, #32]	; (10002288 <absx+0x4c>)
10002268:	8003      	strh	r3, [r0, #0]
1000226a:	4393      	bics	r3, r2
1000226c:	4299      	cmp	r1, r3
1000226e:	d002      	beq.n	10002276 <absx+0x3a>
10002270:	4b06      	ldr	r3, [pc, #24]	; (1000228c <absx+0x50>)
10002272:	3afe      	subs	r2, #254	; 0xfe
10002274:	701a      	strb	r2, [r3, #0]
10002276:	4a02      	ldr	r2, [pc, #8]	; (10002280 <absx+0x44>)
10002278:	8813      	ldrh	r3, [r2, #0]
1000227a:	3302      	adds	r3, #2
1000227c:	8013      	strh	r3, [r2, #0]
1000227e:	bd70      	pop	{r4, r5, r6, pc}
10002280:	2001900c 	.word	0x2001900c
10002284:	20008fea 	.word	0x20008fea
10002288:	20008fe8 	.word	0x20008fe8
1000228c:	20008ff5 	.word	0x20008ff5

10002290 <absy>:
10002290:	b570      	push	{r4, r5, r6, lr}
10002292:	4d10      	ldr	r5, [pc, #64]	; (100022d4 <absy+0x44>)
10002294:	8828      	ldrh	r0, [r5, #0]
10002296:	f7ff f8cd 	bl	10001434 <read6502>
1000229a:	b204      	sxth	r4, r0
1000229c:	8828      	ldrh	r0, [r5, #0]
1000229e:	3001      	adds	r0, #1
100022a0:	b280      	uxth	r0, r0
100022a2:	f7ff f8c7 	bl	10001434 <read6502>
100022a6:	0203      	lsls	r3, r0, #8
100022a8:	4323      	orrs	r3, r4
100022aa:	b29b      	uxth	r3, r3
100022ac:	22ff      	movs	r2, #255	; 0xff
100022ae:	0019      	movs	r1, r3
100022b0:	4391      	bics	r1, r2
100022b2:	4809      	ldr	r0, [pc, #36]	; (100022d8 <absy+0x48>)
100022b4:	7800      	ldrb	r0, [r0, #0]
100022b6:	181b      	adds	r3, r3, r0
100022b8:	b29b      	uxth	r3, r3
100022ba:	4808      	ldr	r0, [pc, #32]	; (100022dc <absy+0x4c>)
100022bc:	8003      	strh	r3, [r0, #0]
100022be:	4393      	bics	r3, r2
100022c0:	4299      	cmp	r1, r3
100022c2:	d002      	beq.n	100022ca <absy+0x3a>
100022c4:	4b06      	ldr	r3, [pc, #24]	; (100022e0 <absy+0x50>)
100022c6:	3afe      	subs	r2, #254	; 0xfe
100022c8:	701a      	strb	r2, [r3, #0]
100022ca:	4a02      	ldr	r2, [pc, #8]	; (100022d4 <absy+0x44>)
100022cc:	8813      	ldrh	r3, [r2, #0]
100022ce:	3302      	adds	r3, #2
100022d0:	8013      	strh	r3, [r2, #0]
100022d2:	bd70      	pop	{r4, r5, r6, pc}
100022d4:	2001900c 	.word	0x2001900c
100022d8:	20019004 	.word	0x20019004
100022dc:	20008fe8 	.word	0x20008fe8
100022e0:	20008ff5 	.word	0x20008ff5

100022e4 <zpx>:
100022e4:	b510      	push	{r4, lr}
100022e6:	4b06      	ldr	r3, [pc, #24]	; (10002300 <zpx+0x1c>)
100022e8:	8818      	ldrh	r0, [r3, #0]
100022ea:	1c42      	adds	r2, r0, #1
100022ec:	801a      	strh	r2, [r3, #0]
100022ee:	f7ff f8a1 	bl	10001434 <read6502>
100022f2:	4b04      	ldr	r3, [pc, #16]	; (10002304 <zpx+0x20>)
100022f4:	781b      	ldrb	r3, [r3, #0]
100022f6:	18c0      	adds	r0, r0, r3
100022f8:	b2c0      	uxtb	r0, r0
100022fa:	4b03      	ldr	r3, [pc, #12]	; (10002308 <zpx+0x24>)
100022fc:	8018      	strh	r0, [r3, #0]
100022fe:	bd10      	pop	{r4, pc}
10002300:	2001900c 	.word	0x2001900c
10002304:	20008fea 	.word	0x20008fea
10002308:	20008fe8 	.word	0x20008fe8

1000230c <indzp>:
1000230c:	b570      	push	{r4, r5, r6, lr}
1000230e:	4b0a      	ldr	r3, [pc, #40]	; (10002338 <indzp+0x2c>)
10002310:	8818      	ldrh	r0, [r3, #0]
10002312:	1c42      	adds	r2, r0, #1
10002314:	801a      	strh	r2, [r3, #0]
10002316:	f7ff f88d 	bl	10001434 <read6502>
1000231a:	b284      	uxth	r4, r0
1000231c:	0020      	movs	r0, r4
1000231e:	f7ff f889 	bl	10001434 <read6502>
10002322:	b205      	sxth	r5, r0
10002324:	1c60      	adds	r0, r4, #1
10002326:	24ff      	movs	r4, #255	; 0xff
10002328:	4020      	ands	r0, r4
1000232a:	f7ff f883 	bl	10001434 <read6502>
1000232e:	0200      	lsls	r0, r0, #8
10002330:	4305      	orrs	r5, r0
10002332:	4b02      	ldr	r3, [pc, #8]	; (1000233c <indzp+0x30>)
10002334:	801d      	strh	r5, [r3, #0]
10002336:	bd70      	pop	{r4, r5, r6, pc}
10002338:	2001900c 	.word	0x2001900c
1000233c:	20008fe8 	.word	0x20008fe8

10002340 <indy>:
10002340:	b570      	push	{r4, r5, r6, lr}
10002342:	4b14      	ldr	r3, [pc, #80]	; (10002394 <indy+0x54>)
10002344:	8818      	ldrh	r0, [r3, #0]
10002346:	1c42      	adds	r2, r0, #1
10002348:	801a      	strh	r2, [r3, #0]
1000234a:	f7ff f873 	bl	10001434 <read6502>
1000234e:	0003      	movs	r3, r0
10002350:	b280      	uxth	r0, r0
10002352:	25ff      	movs	r5, #255	; 0xff
10002354:	43ab      	bics	r3, r5
10002356:	b21e      	sxth	r6, r3
10002358:	1c42      	adds	r2, r0, #1
1000235a:	b212      	sxth	r2, r2
1000235c:	23ff      	movs	r3, #255	; 0xff
1000235e:	4013      	ands	r3, r2
10002360:	431e      	orrs	r6, r3
10002362:	b2b6      	uxth	r6, r6
10002364:	f7ff f866 	bl	10001434 <read6502>
10002368:	b204      	sxth	r4, r0
1000236a:	0030      	movs	r0, r6
1000236c:	f7ff f862 	bl	10001434 <read6502>
10002370:	0203      	lsls	r3, r0, #8
10002372:	4323      	orrs	r3, r4
10002374:	b29b      	uxth	r3, r3
10002376:	001a      	movs	r2, r3
10002378:	43aa      	bics	r2, r5
1000237a:	4907      	ldr	r1, [pc, #28]	; (10002398 <indy+0x58>)
1000237c:	7808      	ldrb	r0, [r1, #0]
1000237e:	181b      	adds	r3, r3, r0
10002380:	b29b      	uxth	r3, r3
10002382:	4906      	ldr	r1, [pc, #24]	; (1000239c <indy+0x5c>)
10002384:	800b      	strh	r3, [r1, #0]
10002386:	43ab      	bics	r3, r5
10002388:	4293      	cmp	r3, r2
1000238a:	d002      	beq.n	10002392 <indy+0x52>
1000238c:	4b04      	ldr	r3, [pc, #16]	; (100023a0 <indy+0x60>)
1000238e:	2201      	movs	r2, #1
10002390:	701a      	strb	r2, [r3, #0]
10002392:	bd70      	pop	{r4, r5, r6, pc}
10002394:	2001900c 	.word	0x2001900c
10002398:	20019004 	.word	0x20019004
1000239c:	20008fe8 	.word	0x20008fe8
100023a0:	20008ff5 	.word	0x20008ff5

100023a4 <rel>:
100023a4:	b510      	push	{r4, lr}
100023a6:	4b08      	ldr	r3, [pc, #32]	; (100023c8 <rel+0x24>)
100023a8:	8818      	ldrh	r0, [r3, #0]
100023aa:	1c42      	adds	r2, r0, #1
100023ac:	801a      	strh	r2, [r3, #0]
100023ae:	f7ff f841 	bl	10001434 <read6502>
100023b2:	b280      	uxth	r0, r0
100023b4:	4b05      	ldr	r3, [pc, #20]	; (100023cc <rel+0x28>)
100023b6:	8018      	strh	r0, [r3, #0]
100023b8:	0603      	lsls	r3, r0, #24
100023ba:	d503      	bpl.n	100023c4 <rel+0x20>
100023bc:	4b04      	ldr	r3, [pc, #16]	; (100023d0 <rel+0x2c>)
100023be:	4318      	orrs	r0, r3
100023c0:	4b02      	ldr	r3, [pc, #8]	; (100023cc <rel+0x28>)
100023c2:	8018      	strh	r0, [r3, #0]
100023c4:	bd10      	pop	{r4, pc}
100023c6:	46c0      	nop			; (mov r8, r8)
100023c8:	2001900c 	.word	0x2001900c
100023cc:	20008fec 	.word	0x20008fec
100023d0:	ffffff00 	.word	0xffffff00

100023d4 <rel2>:
100023d4:	b510      	push	{r4, lr}
100023d6:	4b08      	ldr	r3, [pc, #32]	; (100023f8 <rel2+0x24>)
100023d8:	8818      	ldrh	r0, [r3, #0]
100023da:	3001      	adds	r0, #1
100023dc:	b280      	uxth	r0, r0
100023de:	f7ff f829 	bl	10001434 <read6502>
100023e2:	b280      	uxth	r0, r0
100023e4:	4b05      	ldr	r3, [pc, #20]	; (100023fc <rel2+0x28>)
100023e6:	8018      	strh	r0, [r3, #0]
100023e8:	0603      	lsls	r3, r0, #24
100023ea:	d503      	bpl.n	100023f4 <rel2+0x20>
100023ec:	4b04      	ldr	r3, [pc, #16]	; (10002400 <rel2+0x2c>)
100023ee:	4318      	orrs	r0, r3
100023f0:	4b02      	ldr	r3, [pc, #8]	; (100023fc <rel2+0x28>)
100023f2:	8018      	strh	r0, [r3, #0]
100023f4:	bd10      	pop	{r4, pc}
100023f6:	46c0      	nop			; (mov r8, r8)
100023f8:	2001900c 	.word	0x2001900c
100023fc:	20008fec 	.word	0x20008fec
10002400:	ffffff00 	.word	0xffffff00

10002404 <abso>:
10002404:	b570      	push	{r4, r5, r6, lr}
10002406:	4d09      	ldr	r5, [pc, #36]	; (1000242c <abso+0x28>)
10002408:	8828      	ldrh	r0, [r5, #0]
1000240a:	f7ff f813 	bl	10001434 <read6502>
1000240e:	b204      	sxth	r4, r0
10002410:	8828      	ldrh	r0, [r5, #0]
10002412:	3001      	adds	r0, #1
10002414:	b280      	uxth	r0, r0
10002416:	f7ff f80d 	bl	10001434 <read6502>
1000241a:	0200      	lsls	r0, r0, #8
1000241c:	4304      	orrs	r4, r0
1000241e:	4b04      	ldr	r3, [pc, #16]	; (10002430 <abso+0x2c>)
10002420:	801c      	strh	r4, [r3, #0]
10002422:	882b      	ldrh	r3, [r5, #0]
10002424:	3302      	adds	r3, #2
10002426:	802b      	strh	r3, [r5, #0]
10002428:	bd70      	pop	{r4, r5, r6, pc}
1000242a:	46c0      	nop			; (mov r8, r8)
1000242c:	2001900c 	.word	0x2001900c
10002430:	20008fe8 	.word	0x20008fe8

10002434 <zp>:
10002434:	b510      	push	{r4, lr}
10002436:	4b04      	ldr	r3, [pc, #16]	; (10002448 <zp+0x14>)
10002438:	8818      	ldrh	r0, [r3, #0]
1000243a:	1c42      	adds	r2, r0, #1
1000243c:	801a      	strh	r2, [r3, #0]
1000243e:	f7fe fff9 	bl	10001434 <read6502>
10002442:	4b02      	ldr	r3, [pc, #8]	; (1000244c <zp+0x18>)
10002444:	8018      	strh	r0, [r3, #0]
10002446:	bd10      	pop	{r4, pc}
10002448:	2001900c 	.word	0x2001900c
1000244c:	20008fe8 	.word	0x20008fe8

10002450 <indx>:
10002450:	b570      	push	{r4, r5, r6, lr}
10002452:	4b0c      	ldr	r3, [pc, #48]	; (10002484 <indx+0x34>)
10002454:	8818      	ldrh	r0, [r3, #0]
10002456:	1c42      	adds	r2, r0, #1
10002458:	801a      	strh	r2, [r3, #0]
1000245a:	f7fe ffeb 	bl	10001434 <read6502>
1000245e:	4b0a      	ldr	r3, [pc, #40]	; (10002488 <indx+0x38>)
10002460:	781c      	ldrb	r4, [r3, #0]
10002462:	1904      	adds	r4, r0, r4
10002464:	b2e4      	uxtb	r4, r4
10002466:	0020      	movs	r0, r4
10002468:	f7fe ffe4 	bl	10001434 <read6502>
1000246c:	b205      	sxth	r5, r0
1000246e:	3401      	adds	r4, #1
10002470:	20ff      	movs	r0, #255	; 0xff
10002472:	4020      	ands	r0, r4
10002474:	f7fe ffde 	bl	10001434 <read6502>
10002478:	0200      	lsls	r0, r0, #8
1000247a:	4305      	orrs	r5, r0
1000247c:	4b03      	ldr	r3, [pc, #12]	; (1000248c <indx+0x3c>)
1000247e:	801d      	strh	r5, [r3, #0]
10002480:	bd70      	pop	{r4, r5, r6, pc}
10002482:	46c0      	nop			; (mov r8, r8)
10002484:	2001900c 	.word	0x2001900c
10002488:	20008fea 	.word	0x20008fea
1000248c:	20008fe8 	.word	0x20008fe8

10002490 <step6502>:
10002490:	b570      	push	{r4, r5, r6, lr}
10002492:	4b1f      	ldr	r3, [pc, #124]	; (10002510 <step6502+0x80>)
10002494:	8818      	ldrh	r0, [r3, #0]
10002496:	1c42      	adds	r2, r0, #1
10002498:	801a      	strh	r2, [r3, #0]
1000249a:	f7fe ffcb 	bl	10001434 <read6502>
1000249e:	4c1d      	ldr	r4, [pc, #116]	; (10002514 <step6502+0x84>)
100024a0:	7020      	strb	r0, [r4, #0]
100024a2:	4d1d      	ldr	r5, [pc, #116]	; (10002518 <step6502+0x88>)
100024a4:	2300      	movs	r3, #0
100024a6:	702b      	strb	r3, [r5, #0]
100024a8:	4a1c      	ldr	r2, [pc, #112]	; (1000251c <step6502+0x8c>)
100024aa:	7013      	strb	r3, [r2, #0]
100024ac:	0080      	lsls	r0, r0, #2
100024ae:	4b1c      	ldr	r3, [pc, #112]	; (10002520 <step6502+0x90>)
100024b0:	58c3      	ldr	r3, [r0, r3]
100024b2:	4798      	blx	r3
100024b4:	7823      	ldrb	r3, [r4, #0]
100024b6:	009b      	lsls	r3, r3, #2
100024b8:	4a1a      	ldr	r2, [pc, #104]	; (10002524 <step6502+0x94>)
100024ba:	589b      	ldr	r3, [r3, r2]
100024bc:	4798      	blx	r3
100024be:	7823      	ldrb	r3, [r4, #0]
100024c0:	009b      	lsls	r3, r3, #2
100024c2:	4a19      	ldr	r2, [pc, #100]	; (10002528 <step6502+0x98>)
100024c4:	589b      	ldr	r3, [r3, r2]
100024c6:	4a19      	ldr	r2, [pc, #100]	; (1000252c <step6502+0x9c>)
100024c8:	6811      	ldr	r1, [r2, #0]
100024ca:	468c      	mov	ip, r1
100024cc:	4463      	add	r3, ip
100024ce:	6013      	str	r3, [r2, #0]
100024d0:	782a      	ldrb	r2, [r5, #0]
100024d2:	2a00      	cmp	r2, #0
100024d4:	d006      	beq.n	100024e4 <step6502+0x54>
100024d6:	4a11      	ldr	r2, [pc, #68]	; (1000251c <step6502+0x8c>)
100024d8:	7812      	ldrb	r2, [r2, #0]
100024da:	2a00      	cmp	r2, #0
100024dc:	d002      	beq.n	100024e4 <step6502+0x54>
100024de:	3301      	adds	r3, #1
100024e0:	4a12      	ldr	r2, [pc, #72]	; (1000252c <step6502+0x9c>)
100024e2:	6013      	str	r3, [r2, #0]
100024e4:	4b11      	ldr	r3, [pc, #68]	; (1000252c <step6502+0x9c>)
100024e6:	681a      	ldr	r2, [r3, #0]
100024e8:	4b11      	ldr	r3, [pc, #68]	; (10002530 <step6502+0xa0>)
100024ea:	601a      	str	r2, [r3, #0]
100024ec:	4911      	ldr	r1, [pc, #68]	; (10002534 <step6502+0xa4>)
100024ee:	2201      	movs	r2, #1
100024f0:	2300      	movs	r3, #0
100024f2:	680c      	ldr	r4, [r1, #0]
100024f4:	684d      	ldr	r5, [r1, #4]
100024f6:	1912      	adds	r2, r2, r4
100024f8:	416b      	adcs	r3, r5
100024fa:	600a      	str	r2, [r1, #0]
100024fc:	604b      	str	r3, [r1, #4]
100024fe:	4b0e      	ldr	r3, [pc, #56]	; (10002538 <step6502+0xa8>)
10002500:	781b      	ldrb	r3, [r3, #0]
10002502:	2b00      	cmp	r3, #0
10002504:	d002      	beq.n	1000250c <step6502+0x7c>
10002506:	4b0d      	ldr	r3, [pc, #52]	; (1000253c <step6502+0xac>)
10002508:	681b      	ldr	r3, [r3, #0]
1000250a:	4798      	blx	r3
1000250c:	bd70      	pop	{r4, r5, r6, pc}
1000250e:	46c0      	nop			; (mov r8, r8)
10002510:	2001900c 	.word	0x2001900c
10002514:	2001900a 	.word	0x2001900a
10002518:	20008ff4 	.word	0x20008ff4
1000251c:	20008ff5 	.word	0x20008ff5
10002520:	10009e48 	.word	0x10009e48
10002524:	1000a330 	.word	0x1000a330
10002528:	1000a730 	.word	0x1000a730
1000252c:	20008ae0 	.word	0x20008ae0
10002530:	20008adc 	.word	0x20008adc
10002534:	20008600 	.word	0x20008600
10002538:	20008fd9 	.word	0x20008fd9
1000253c:	20018ff8 	.word	0x20018ff8

10002540 <callback>:
10002540:	b570      	push	{r4, r5, r6, lr}
10002542:	2400      	movs	r4, #0
10002544:	4b0c      	ldr	r3, [pc, #48]	; (10002578 <callback+0x38>)
10002546:	681b      	ldr	r3, [r3, #0]
10002548:	4a0c      	ldr	r2, [pc, #48]	; (1000257c <callback+0x3c>)
1000254a:	6812      	ldr	r2, [r2, #0]
1000254c:	1a9b      	subs	r3, r3, r2
1000254e:	429c      	cmp	r4, r3
10002550:	d20a      	bcs.n	10002568 <callback+0x28>
10002552:	4d0b      	ldr	r5, [pc, #44]	; (10002580 <callback+0x40>)
10002554:	682a      	ldr	r2, [r5, #0]
10002556:	686b      	ldr	r3, [r5, #4]
10002558:	480a      	ldr	r0, [pc, #40]	; (10002584 <callback+0x44>)
1000255a:	f7fe fe5d 	bl	10001218 <m6522_tick>
1000255e:	6028      	str	r0, [r5, #0]
10002560:	6069      	str	r1, [r5, #4]
10002562:	3401      	adds	r4, #1
10002564:	b2a4      	uxth	r4, r4
10002566:	e7ed      	b.n	10002544 <callback+0x4>
10002568:	f7fe ff58 	bl	1000141c <via_update>
1000256c:	4b02      	ldr	r3, [pc, #8]	; (10002578 <callback+0x38>)
1000256e:	681a      	ldr	r2, [r3, #0]
10002570:	4b02      	ldr	r3, [pc, #8]	; (1000257c <callback+0x3c>)
10002572:	601a      	str	r2, [r3, #0]
10002574:	bd70      	pop	{r4, r5, r6, pc}
10002576:	46c0      	nop			; (mov r8, r8)
10002578:	20008ae0 	.word	0x20008ae0
1000257c:	20008f84 	.word	0x20008f84
10002580:	20008610 	.word	0x20008610
10002584:	20019010 	.word	0x20019010

10002588 <phx>:
10002588:	b510      	push	{r4, lr}
1000258a:	4b02      	ldr	r3, [pc, #8]	; (10002594 <phx+0xc>)
1000258c:	7818      	ldrb	r0, [r3, #0]
1000258e:	f7fe ff11 	bl	100013b4 <push8>
10002592:	bd10      	pop	{r4, pc}
10002594:	20008fea 	.word	0x20008fea

10002598 <phy>:
10002598:	b510      	push	{r4, lr}
1000259a:	4b02      	ldr	r3, [pc, #8]	; (100025a4 <phy+0xc>)
1000259c:	7818      	ldrb	r0, [r3, #0]
1000259e:	f7fe ff09 	bl	100013b4 <push8>
100025a2:	bd10      	pop	{r4, pc}
100025a4:	20019004 	.word	0x20019004

100025a8 <pha>:
100025a8:	b510      	push	{r4, lr}
100025aa:	4b02      	ldr	r3, [pc, #8]	; (100025b4 <pha+0xc>)
100025ac:	7818      	ldrb	r0, [r3, #0]
100025ae:	f7fe ff01 	bl	100013b4 <push8>
100025b2:	bd10      	pop	{r4, pc}
100025b4:	2001900e 	.word	0x2001900e

100025b8 <php>:
100025b8:	b510      	push	{r4, lr}
100025ba:	4b03      	ldr	r3, [pc, #12]	; (100025c8 <php+0x10>)
100025bc:	7818      	ldrb	r0, [r3, #0]
100025be:	2310      	movs	r3, #16
100025c0:	4318      	orrs	r0, r3
100025c2:	f7fe fef7 	bl	100013b4 <push8>
100025c6:	bd10      	pop	{r4, pc}
100025c8:	20008409 	.word	0x20008409

100025cc <brk>:
100025cc:	b570      	push	{r4, r5, r6, lr}
100025ce:	4d0f      	ldr	r5, [pc, #60]	; (1000260c <brk+0x40>)
100025d0:	8828      	ldrh	r0, [r5, #0]
100025d2:	3001      	adds	r0, #1
100025d4:	b280      	uxth	r0, r0
100025d6:	8028      	strh	r0, [r5, #0]
100025d8:	f7fe fec4 	bl	10001364 <push16>
100025dc:	4c0c      	ldr	r4, [pc, #48]	; (10002610 <brk+0x44>)
100025de:	7820      	ldrb	r0, [r4, #0]
100025e0:	2310      	movs	r3, #16
100025e2:	4318      	orrs	r0, r3
100025e4:	f7fe fee6 	bl	100013b4 <push8>
100025e8:	7823      	ldrb	r3, [r4, #0]
100025ea:	2204      	movs	r2, #4
100025ec:	4313      	orrs	r3, r2
100025ee:	2208      	movs	r2, #8
100025f0:	4393      	bics	r3, r2
100025f2:	7023      	strb	r3, [r4, #0]
100025f4:	4807      	ldr	r0, [pc, #28]	; (10002614 <brk+0x48>)
100025f6:	f7fe ff1d 	bl	10001434 <read6502>
100025fa:	b204      	sxth	r4, r0
100025fc:	4806      	ldr	r0, [pc, #24]	; (10002618 <brk+0x4c>)
100025fe:	f7fe ff19 	bl	10001434 <read6502>
10002602:	0200      	lsls	r0, r0, #8
10002604:	4304      	orrs	r4, r0
10002606:	802c      	strh	r4, [r5, #0]
10002608:	bd70      	pop	{r4, r5, r6, pc}
1000260a:	46c0      	nop			; (mov r8, r8)
1000260c:	2001900c 	.word	0x2001900c
10002610:	20008409 	.word	0x20008409
10002614:	0000fffe 	.word	0x0000fffe
10002618:	0000ffff 	.word	0x0000ffff

1000261c <putvalue>:
1000261c:	b510      	push	{r4, lr}
1000261e:	4b08      	ldr	r3, [pc, #32]	; (10002640 <putvalue+0x24>)
10002620:	781b      	ldrb	r3, [r3, #0]
10002622:	009b      	lsls	r3, r3, #2
10002624:	4a07      	ldr	r2, [pc, #28]	; (10002644 <putvalue+0x28>)
10002626:	589a      	ldr	r2, [r3, r2]
10002628:	4b07      	ldr	r3, [pc, #28]	; (10002648 <putvalue+0x2c>)
1000262a:	429a      	cmp	r2, r3
1000262c:	d005      	beq.n	1000263a <putvalue+0x1e>
1000262e:	b2c1      	uxtb	r1, r0
10002630:	4b06      	ldr	r3, [pc, #24]	; (1000264c <putvalue+0x30>)
10002632:	8818      	ldrh	r0, [r3, #0]
10002634:	f7fe fe18 	bl	10001268 <write6502>
10002638:	bd10      	pop	{r4, pc}
1000263a:	4b05      	ldr	r3, [pc, #20]	; (10002650 <putvalue+0x34>)
1000263c:	7018      	strb	r0, [r3, #0]
1000263e:	e7fb      	b.n	10002638 <putvalue+0x1c>
10002640:	2001900a 	.word	0x2001900a
10002644:	10009e48 	.word	0x10009e48
10002648:	1000035f 	.word	0x1000035f
1000264c:	20008fe8 	.word	0x20008fe8
10002650:	2001900e 	.word	0x2001900e

10002654 <smb>:
10002654:	b510      	push	{r4, lr}
10002656:	0004      	movs	r4, r0
10002658:	f7ff f97e 	bl	10001958 <getvalue>
1000265c:	4b04      	ldr	r3, [pc, #16]	; (10002670 <smb+0x1c>)
1000265e:	8018      	strh	r0, [r3, #0]
10002660:	2301      	movs	r3, #1
10002662:	40a3      	lsls	r3, r4
10002664:	4318      	orrs	r0, r3
10002666:	b280      	uxth	r0, r0
10002668:	f7ff ffd8 	bl	1000261c <putvalue>
1000266c:	bd10      	pop	{r4, pc}
1000266e:	46c0      	nop			; (mov r8, r8)
10002670:	20019050 	.word	0x20019050

10002674 <smb7>:
10002674:	b510      	push	{r4, lr}
10002676:	2007      	movs	r0, #7
10002678:	f7ff ffec 	bl	10002654 <smb>
1000267c:	bd10      	pop	{r4, pc}

1000267e <smb6>:
1000267e:	b510      	push	{r4, lr}
10002680:	2006      	movs	r0, #6
10002682:	f7ff ffe7 	bl	10002654 <smb>
10002686:	bd10      	pop	{r4, pc}

10002688 <smb5>:
10002688:	b510      	push	{r4, lr}
1000268a:	2005      	movs	r0, #5
1000268c:	f7ff ffe2 	bl	10002654 <smb>
10002690:	bd10      	pop	{r4, pc}

10002692 <smb4>:
10002692:	b510      	push	{r4, lr}
10002694:	2004      	movs	r0, #4
10002696:	f7ff ffdd 	bl	10002654 <smb>
1000269a:	bd10      	pop	{r4, pc}

1000269c <smb3>:
1000269c:	b510      	push	{r4, lr}
1000269e:	2003      	movs	r0, #3
100026a0:	f7ff ffd8 	bl	10002654 <smb>
100026a4:	bd10      	pop	{r4, pc}

100026a6 <smb2>:
100026a6:	b510      	push	{r4, lr}
100026a8:	2002      	movs	r0, #2
100026aa:	f7ff ffd3 	bl	10002654 <smb>
100026ae:	bd10      	pop	{r4, pc}

100026b0 <smb1>:
100026b0:	b510      	push	{r4, lr}
100026b2:	2001      	movs	r0, #1
100026b4:	f7ff ffce 	bl	10002654 <smb>
100026b8:	bd10      	pop	{r4, pc}

100026ba <smb0>:
100026ba:	b510      	push	{r4, lr}
100026bc:	2000      	movs	r0, #0
100026be:	f7ff ffc9 	bl	10002654 <smb>
100026c2:	bd10      	pop	{r4, pc}

100026c4 <stx>:
100026c4:	b510      	push	{r4, lr}
100026c6:	4b02      	ldr	r3, [pc, #8]	; (100026d0 <stx+0xc>)
100026c8:	7818      	ldrb	r0, [r3, #0]
100026ca:	f7ff ffa7 	bl	1000261c <putvalue>
100026ce:	bd10      	pop	{r4, pc}
100026d0:	20008fea 	.word	0x20008fea

100026d4 <sty>:
100026d4:	b510      	push	{r4, lr}
100026d6:	4b02      	ldr	r3, [pc, #8]	; (100026e0 <sty+0xc>)
100026d8:	7818      	ldrb	r0, [r3, #0]
100026da:	f7ff ff9f 	bl	1000261c <putvalue>
100026de:	bd10      	pop	{r4, pc}
100026e0:	20019004 	.word	0x20019004

100026e4 <sta>:
100026e4:	b510      	push	{r4, lr}
100026e6:	4b02      	ldr	r3, [pc, #8]	; (100026f0 <sta+0xc>)
100026e8:	7818      	ldrb	r0, [r3, #0]
100026ea:	f7ff ff97 	bl	1000261c <putvalue>
100026ee:	bd10      	pop	{r4, pc}
100026f0:	2001900e 	.word	0x2001900e

100026f4 <rmb>:
100026f4:	b510      	push	{r4, lr}
100026f6:	0004      	movs	r4, r0
100026f8:	f7ff f92e 	bl	10001958 <getvalue>
100026fc:	4b05      	ldr	r3, [pc, #20]	; (10002714 <rmb+0x20>)
100026fe:	8018      	strh	r0, [r3, #0]
10002700:	2201      	movs	r2, #1
10002702:	40a2      	lsls	r2, r4
10002704:	23ff      	movs	r3, #255	; 0xff
10002706:	405a      	eors	r2, r3
10002708:	b212      	sxth	r2, r2
1000270a:	4010      	ands	r0, r2
1000270c:	f7ff ff86 	bl	1000261c <putvalue>
10002710:	bd10      	pop	{r4, pc}
10002712:	46c0      	nop			; (mov r8, r8)
10002714:	20019050 	.word	0x20019050

10002718 <rmb7>:
10002718:	b510      	push	{r4, lr}
1000271a:	2007      	movs	r0, #7
1000271c:	f7ff ffea 	bl	100026f4 <rmb>
10002720:	bd10      	pop	{r4, pc}

10002722 <rmb6>:
10002722:	b510      	push	{r4, lr}
10002724:	2006      	movs	r0, #6
10002726:	f7ff ffe5 	bl	100026f4 <rmb>
1000272a:	bd10      	pop	{r4, pc}

1000272c <rmb5>:
1000272c:	b510      	push	{r4, lr}
1000272e:	2005      	movs	r0, #5
10002730:	f7ff ffe0 	bl	100026f4 <rmb>
10002734:	bd10      	pop	{r4, pc}

10002736 <rmb4>:
10002736:	b510      	push	{r4, lr}
10002738:	2004      	movs	r0, #4
1000273a:	f7ff ffdb 	bl	100026f4 <rmb>
1000273e:	bd10      	pop	{r4, pc}

10002740 <rmb3>:
10002740:	b510      	push	{r4, lr}
10002742:	2003      	movs	r0, #3
10002744:	f7ff ffd6 	bl	100026f4 <rmb>
10002748:	bd10      	pop	{r4, pc}

1000274a <rmb2>:
1000274a:	b510      	push	{r4, lr}
1000274c:	2002      	movs	r0, #2
1000274e:	f7ff ffd1 	bl	100026f4 <rmb>
10002752:	bd10      	pop	{r4, pc}

10002754 <rmb1>:
10002754:	b510      	push	{r4, lr}
10002756:	2001      	movs	r0, #1
10002758:	f7ff ffcc 	bl	100026f4 <rmb>
1000275c:	bd10      	pop	{r4, pc}

1000275e <rmb0>:
1000275e:	b510      	push	{r4, lr}
10002760:	2000      	movs	r0, #0
10002762:	f7ff ffc7 	bl	100026f4 <rmb>
10002766:	bd10      	pop	{r4, pc}

10002768 <ror>:
10002768:	b510      	push	{r4, lr}
1000276a:	f7ff f8f5 	bl	10001958 <getvalue>
1000276e:	4b1c      	ldr	r3, [pc, #112]	; (100027e0 <ror+0x78>)
10002770:	8018      	strh	r0, [r3, #0]
10002772:	4b1c      	ldr	r3, [pc, #112]	; (100027e4 <ror+0x7c>)
10002774:	781a      	ldrb	r2, [r3, #0]
10002776:	01d1      	lsls	r1, r2, #7
10002778:	23ff      	movs	r3, #255	; 0xff
1000277a:	400b      	ands	r3, r1
1000277c:	0841      	lsrs	r1, r0, #1
1000277e:	430b      	orrs	r3, r1
10002780:	4919      	ldr	r1, [pc, #100]	; (100027e8 <ror+0x80>)
10002782:	800b      	strh	r3, [r1, #0]
10002784:	07c1      	lsls	r1, r0, #31
10002786:	d51a      	bpl.n	100027be <ror+0x56>
10002788:	2101      	movs	r1, #1
1000278a:	430a      	orrs	r2, r1
1000278c:	4915      	ldr	r1, [pc, #84]	; (100027e4 <ror+0x7c>)
1000278e:	700a      	strb	r2, [r1, #0]
10002790:	22ff      	movs	r2, #255	; 0xff
10002792:	421a      	tst	r2, r3
10002794:	d018      	beq.n	100027c8 <ror+0x60>
10002796:	4a13      	ldr	r2, [pc, #76]	; (100027e4 <ror+0x7c>)
10002798:	7813      	ldrb	r3, [r2, #0]
1000279a:	2102      	movs	r1, #2
1000279c:	438b      	bics	r3, r1
1000279e:	7013      	strb	r3, [r2, #0]
100027a0:	4b11      	ldr	r3, [pc, #68]	; (100027e8 <ror+0x80>)
100027a2:	881b      	ldrh	r3, [r3, #0]
100027a4:	061b      	lsls	r3, r3, #24
100027a6:	d515      	bpl.n	100027d4 <ror+0x6c>
100027a8:	4a0e      	ldr	r2, [pc, #56]	; (100027e4 <ror+0x7c>)
100027aa:	7811      	ldrb	r1, [r2, #0]
100027ac:	2380      	movs	r3, #128	; 0x80
100027ae:	425b      	negs	r3, r3
100027b0:	430b      	orrs	r3, r1
100027b2:	7013      	strb	r3, [r2, #0]
100027b4:	4b0c      	ldr	r3, [pc, #48]	; (100027e8 <ror+0x80>)
100027b6:	8818      	ldrh	r0, [r3, #0]
100027b8:	f7ff ff30 	bl	1000261c <putvalue>
100027bc:	bd10      	pop	{r4, pc}
100027be:	2101      	movs	r1, #1
100027c0:	438a      	bics	r2, r1
100027c2:	4908      	ldr	r1, [pc, #32]	; (100027e4 <ror+0x7c>)
100027c4:	700a      	strb	r2, [r1, #0]
100027c6:	e7e3      	b.n	10002790 <ror+0x28>
100027c8:	4a06      	ldr	r2, [pc, #24]	; (100027e4 <ror+0x7c>)
100027ca:	7813      	ldrb	r3, [r2, #0]
100027cc:	2102      	movs	r1, #2
100027ce:	430b      	orrs	r3, r1
100027d0:	7013      	strb	r3, [r2, #0]
100027d2:	e7e5      	b.n	100027a0 <ror+0x38>
100027d4:	4a03      	ldr	r2, [pc, #12]	; (100027e4 <ror+0x7c>)
100027d6:	7811      	ldrb	r1, [r2, #0]
100027d8:	237f      	movs	r3, #127	; 0x7f
100027da:	400b      	ands	r3, r1
100027dc:	7013      	strb	r3, [r2, #0]
100027de:	e7e9      	b.n	100027b4 <ror+0x4c>
100027e0:	20019050 	.word	0x20019050
100027e4:	20008409 	.word	0x20008409
100027e8:	20019006 	.word	0x20019006

100027ec <stz>:
100027ec:	b510      	push	{r4, lr}
100027ee:	2000      	movs	r0, #0
100027f0:	f7ff ff14 	bl	1000261c <putvalue>
100027f4:	bd10      	pop	{r4, pc}
	...

100027f8 <lsr>:
100027f8:	b510      	push	{r4, lr}
100027fa:	f7ff f8ad 	bl	10001958 <getvalue>
100027fe:	4b1a      	ldr	r3, [pc, #104]	; (10002868 <lsr+0x70>)
10002800:	8018      	strh	r0, [r3, #0]
10002802:	0843      	lsrs	r3, r0, #1
10002804:	4a19      	ldr	r2, [pc, #100]	; (1000286c <lsr+0x74>)
10002806:	8013      	strh	r3, [r2, #0]
10002808:	07c2      	lsls	r2, r0, #31
1000280a:	d51b      	bpl.n	10002844 <lsr+0x4c>
1000280c:	4918      	ldr	r1, [pc, #96]	; (10002870 <lsr+0x78>)
1000280e:	780a      	ldrb	r2, [r1, #0]
10002810:	2001      	movs	r0, #1
10002812:	4302      	orrs	r2, r0
10002814:	700a      	strb	r2, [r1, #0]
10002816:	22ff      	movs	r2, #255	; 0xff
10002818:	421a      	tst	r2, r3
1000281a:	d019      	beq.n	10002850 <lsr+0x58>
1000281c:	4a14      	ldr	r2, [pc, #80]	; (10002870 <lsr+0x78>)
1000281e:	7813      	ldrb	r3, [r2, #0]
10002820:	2102      	movs	r1, #2
10002822:	438b      	bics	r3, r1
10002824:	7013      	strb	r3, [r2, #0]
10002826:	4b11      	ldr	r3, [pc, #68]	; (1000286c <lsr+0x74>)
10002828:	881b      	ldrh	r3, [r3, #0]
1000282a:	061b      	lsls	r3, r3, #24
1000282c:	d516      	bpl.n	1000285c <lsr+0x64>
1000282e:	4a10      	ldr	r2, [pc, #64]	; (10002870 <lsr+0x78>)
10002830:	7811      	ldrb	r1, [r2, #0]
10002832:	2380      	movs	r3, #128	; 0x80
10002834:	425b      	negs	r3, r3
10002836:	430b      	orrs	r3, r1
10002838:	7013      	strb	r3, [r2, #0]
1000283a:	4b0c      	ldr	r3, [pc, #48]	; (1000286c <lsr+0x74>)
1000283c:	8818      	ldrh	r0, [r3, #0]
1000283e:	f7ff feed 	bl	1000261c <putvalue>
10002842:	bd10      	pop	{r4, pc}
10002844:	490a      	ldr	r1, [pc, #40]	; (10002870 <lsr+0x78>)
10002846:	780a      	ldrb	r2, [r1, #0]
10002848:	2001      	movs	r0, #1
1000284a:	4382      	bics	r2, r0
1000284c:	700a      	strb	r2, [r1, #0]
1000284e:	e7e2      	b.n	10002816 <lsr+0x1e>
10002850:	4a07      	ldr	r2, [pc, #28]	; (10002870 <lsr+0x78>)
10002852:	7813      	ldrb	r3, [r2, #0]
10002854:	2102      	movs	r1, #2
10002856:	430b      	orrs	r3, r1
10002858:	7013      	strb	r3, [r2, #0]
1000285a:	e7e4      	b.n	10002826 <lsr+0x2e>
1000285c:	4a04      	ldr	r2, [pc, #16]	; (10002870 <lsr+0x78>)
1000285e:	7811      	ldrb	r1, [r2, #0]
10002860:	237f      	movs	r3, #127	; 0x7f
10002862:	400b      	ands	r3, r1
10002864:	7013      	strb	r3, [r2, #0]
10002866:	e7e8      	b.n	1000283a <lsr+0x42>
10002868:	20019050 	.word	0x20019050
1000286c:	20019006 	.word	0x20019006
10002870:	20008409 	.word	0x20008409

10002874 <dec>:
10002874:	b510      	push	{r4, lr}
10002876:	f7ff f86f 	bl	10001958 <getvalue>
1000287a:	4b13      	ldr	r3, [pc, #76]	; (100028c8 <dec+0x54>)
1000287c:	8018      	strh	r0, [r3, #0]
1000287e:	3801      	subs	r0, #1
10002880:	b280      	uxth	r0, r0
10002882:	4b12      	ldr	r3, [pc, #72]	; (100028cc <dec+0x58>)
10002884:	8018      	strh	r0, [r3, #0]
10002886:	23ff      	movs	r3, #255	; 0xff
10002888:	4203      	tst	r3, r0
1000288a:	d011      	beq.n	100028b0 <dec+0x3c>
1000288c:	4a10      	ldr	r2, [pc, #64]	; (100028d0 <dec+0x5c>)
1000288e:	7813      	ldrb	r3, [r2, #0]
10002890:	2102      	movs	r1, #2
10002892:	438b      	bics	r3, r1
10002894:	7013      	strb	r3, [r2, #0]
10002896:	0603      	lsls	r3, r0, #24
10002898:	d510      	bpl.n	100028bc <dec+0x48>
1000289a:	4a0d      	ldr	r2, [pc, #52]	; (100028d0 <dec+0x5c>)
1000289c:	7811      	ldrb	r1, [r2, #0]
1000289e:	2380      	movs	r3, #128	; 0x80
100028a0:	425b      	negs	r3, r3
100028a2:	430b      	orrs	r3, r1
100028a4:	7013      	strb	r3, [r2, #0]
100028a6:	4b09      	ldr	r3, [pc, #36]	; (100028cc <dec+0x58>)
100028a8:	8818      	ldrh	r0, [r3, #0]
100028aa:	f7ff feb7 	bl	1000261c <putvalue>
100028ae:	bd10      	pop	{r4, pc}
100028b0:	4a07      	ldr	r2, [pc, #28]	; (100028d0 <dec+0x5c>)
100028b2:	7813      	ldrb	r3, [r2, #0]
100028b4:	2102      	movs	r1, #2
100028b6:	430b      	orrs	r3, r1
100028b8:	7013      	strb	r3, [r2, #0]
100028ba:	e7ec      	b.n	10002896 <dec+0x22>
100028bc:	4a04      	ldr	r2, [pc, #16]	; (100028d0 <dec+0x5c>)
100028be:	7811      	ldrb	r1, [r2, #0]
100028c0:	237f      	movs	r3, #127	; 0x7f
100028c2:	400b      	ands	r3, r1
100028c4:	7013      	strb	r3, [r2, #0]
100028c6:	e7ee      	b.n	100028a6 <dec+0x32>
100028c8:	20019050 	.word	0x20019050
100028cc:	20019006 	.word	0x20019006
100028d0:	20008409 	.word	0x20008409

100028d4 <rol>:
100028d4:	b510      	push	{r4, lr}
100028d6:	f7ff f83f 	bl	10001958 <getvalue>
100028da:	4b1d      	ldr	r3, [pc, #116]	; (10002950 <rol+0x7c>)
100028dc:	8018      	strh	r0, [r3, #0]
100028de:	0042      	lsls	r2, r0, #1
100028e0:	4b1c      	ldr	r3, [pc, #112]	; (10002954 <rol+0x80>)
100028e2:	781b      	ldrb	r3, [r3, #0]
100028e4:	2001      	movs	r0, #1
100028e6:	4018      	ands	r0, r3
100028e8:	4310      	orrs	r0, r2
100028ea:	b280      	uxth	r0, r0
100028ec:	4a1a      	ldr	r2, [pc, #104]	; (10002958 <rol+0x84>)
100028ee:	8010      	strh	r0, [r2, #0]
100028f0:	22ff      	movs	r2, #255	; 0xff
100028f2:	0001      	movs	r1, r0
100028f4:	4391      	bics	r1, r2
100028f6:	d01a      	beq.n	1000292e <rol+0x5a>
100028f8:	2201      	movs	r2, #1
100028fa:	4313      	orrs	r3, r2
100028fc:	4a15      	ldr	r2, [pc, #84]	; (10002954 <rol+0x80>)
100028fe:	7013      	strb	r3, [r2, #0]
10002900:	23ff      	movs	r3, #255	; 0xff
10002902:	4203      	tst	r3, r0
10002904:	d018      	beq.n	10002938 <rol+0x64>
10002906:	4a13      	ldr	r2, [pc, #76]	; (10002954 <rol+0x80>)
10002908:	7813      	ldrb	r3, [r2, #0]
1000290a:	2102      	movs	r1, #2
1000290c:	438b      	bics	r3, r1
1000290e:	7013      	strb	r3, [r2, #0]
10002910:	4b11      	ldr	r3, [pc, #68]	; (10002958 <rol+0x84>)
10002912:	881b      	ldrh	r3, [r3, #0]
10002914:	061b      	lsls	r3, r3, #24
10002916:	d515      	bpl.n	10002944 <rol+0x70>
10002918:	4a0e      	ldr	r2, [pc, #56]	; (10002954 <rol+0x80>)
1000291a:	7811      	ldrb	r1, [r2, #0]
1000291c:	2380      	movs	r3, #128	; 0x80
1000291e:	425b      	negs	r3, r3
10002920:	430b      	orrs	r3, r1
10002922:	7013      	strb	r3, [r2, #0]
10002924:	4b0c      	ldr	r3, [pc, #48]	; (10002958 <rol+0x84>)
10002926:	8818      	ldrh	r0, [r3, #0]
10002928:	f7ff fe78 	bl	1000261c <putvalue>
1000292c:	bd10      	pop	{r4, pc}
1000292e:	2201      	movs	r2, #1
10002930:	4393      	bics	r3, r2
10002932:	4a08      	ldr	r2, [pc, #32]	; (10002954 <rol+0x80>)
10002934:	7013      	strb	r3, [r2, #0]
10002936:	e7e3      	b.n	10002900 <rol+0x2c>
10002938:	4a06      	ldr	r2, [pc, #24]	; (10002954 <rol+0x80>)
1000293a:	7813      	ldrb	r3, [r2, #0]
1000293c:	2102      	movs	r1, #2
1000293e:	430b      	orrs	r3, r1
10002940:	7013      	strb	r3, [r2, #0]
10002942:	e7e5      	b.n	10002910 <rol+0x3c>
10002944:	4a03      	ldr	r2, [pc, #12]	; (10002954 <rol+0x80>)
10002946:	7811      	ldrb	r1, [r2, #0]
10002948:	237f      	movs	r3, #127	; 0x7f
1000294a:	400b      	ands	r3, r1
1000294c:	7013      	strb	r3, [r2, #0]
1000294e:	e7e9      	b.n	10002924 <rol+0x50>
10002950:	20019050 	.word	0x20019050
10002954:	20008409 	.word	0x20008409
10002958:	20019006 	.word	0x20019006

1000295c <inc>:
1000295c:	b510      	push	{r4, lr}
1000295e:	f7fe fffb 	bl	10001958 <getvalue>
10002962:	4b13      	ldr	r3, [pc, #76]	; (100029b0 <inc+0x54>)
10002964:	8018      	strh	r0, [r3, #0]
10002966:	3001      	adds	r0, #1
10002968:	b280      	uxth	r0, r0
1000296a:	4b12      	ldr	r3, [pc, #72]	; (100029b4 <inc+0x58>)
1000296c:	8018      	strh	r0, [r3, #0]
1000296e:	23ff      	movs	r3, #255	; 0xff
10002970:	4203      	tst	r3, r0
10002972:	d011      	beq.n	10002998 <inc+0x3c>
10002974:	4a10      	ldr	r2, [pc, #64]	; (100029b8 <inc+0x5c>)
10002976:	7813      	ldrb	r3, [r2, #0]
10002978:	2102      	movs	r1, #2
1000297a:	438b      	bics	r3, r1
1000297c:	7013      	strb	r3, [r2, #0]
1000297e:	0603      	lsls	r3, r0, #24
10002980:	d510      	bpl.n	100029a4 <inc+0x48>
10002982:	4a0d      	ldr	r2, [pc, #52]	; (100029b8 <inc+0x5c>)
10002984:	7811      	ldrb	r1, [r2, #0]
10002986:	2380      	movs	r3, #128	; 0x80
10002988:	425b      	negs	r3, r3
1000298a:	430b      	orrs	r3, r1
1000298c:	7013      	strb	r3, [r2, #0]
1000298e:	4b09      	ldr	r3, [pc, #36]	; (100029b4 <inc+0x58>)
10002990:	8818      	ldrh	r0, [r3, #0]
10002992:	f7ff fe43 	bl	1000261c <putvalue>
10002996:	bd10      	pop	{r4, pc}
10002998:	4a07      	ldr	r2, [pc, #28]	; (100029b8 <inc+0x5c>)
1000299a:	7813      	ldrb	r3, [r2, #0]
1000299c:	2102      	movs	r1, #2
1000299e:	430b      	orrs	r3, r1
100029a0:	7013      	strb	r3, [r2, #0]
100029a2:	e7ec      	b.n	1000297e <inc+0x22>
100029a4:	4a04      	ldr	r2, [pc, #16]	; (100029b8 <inc+0x5c>)
100029a6:	7811      	ldrb	r1, [r2, #0]
100029a8:	237f      	movs	r3, #127	; 0x7f
100029aa:	400b      	ands	r3, r1
100029ac:	7013      	strb	r3, [r2, #0]
100029ae:	e7ee      	b.n	1000298e <inc+0x32>
100029b0:	20019050 	.word	0x20019050
100029b4:	20019006 	.word	0x20019006
100029b8:	20008409 	.word	0x20008409

100029bc <trb>:
100029bc:	b570      	push	{r4, r5, r6, lr}
100029be:	f7fe ffcb 	bl	10001958 <getvalue>
100029c2:	4d0c      	ldr	r5, [pc, #48]	; (100029f4 <trb+0x38>)
100029c4:	8028      	strh	r0, [r5, #0]
100029c6:	4c0c      	ldr	r4, [pc, #48]	; (100029f8 <trb+0x3c>)
100029c8:	7823      	ldrb	r3, [r4, #0]
100029ca:	4398      	bics	r0, r3
100029cc:	b2c0      	uxtb	r0, r0
100029ce:	f7ff fe25 	bl	1000261c <putvalue>
100029d2:	882b      	ldrh	r3, [r5, #0]
100029d4:	7822      	ldrb	r2, [r4, #0]
100029d6:	421a      	tst	r2, r3
100029d8:	d005      	beq.n	100029e6 <trb+0x2a>
100029da:	4a08      	ldr	r2, [pc, #32]	; (100029fc <trb+0x40>)
100029dc:	7813      	ldrb	r3, [r2, #0]
100029de:	2102      	movs	r1, #2
100029e0:	438b      	bics	r3, r1
100029e2:	7013      	strb	r3, [r2, #0]
100029e4:	bd70      	pop	{r4, r5, r6, pc}
100029e6:	4a05      	ldr	r2, [pc, #20]	; (100029fc <trb+0x40>)
100029e8:	7813      	ldrb	r3, [r2, #0]
100029ea:	2102      	movs	r1, #2
100029ec:	430b      	orrs	r3, r1
100029ee:	7013      	strb	r3, [r2, #0]
100029f0:	e7f8      	b.n	100029e4 <trb+0x28>
100029f2:	46c0      	nop			; (mov r8, r8)
100029f4:	20019050 	.word	0x20019050
100029f8:	2001900e 	.word	0x2001900e
100029fc:	20008409 	.word	0x20008409

10002a00 <asl>:
10002a00:	b510      	push	{r4, lr}
10002a02:	f7fe ffa9 	bl	10001958 <getvalue>
10002a06:	4b1c      	ldr	r3, [pc, #112]	; (10002a78 <asl+0x78>)
10002a08:	8018      	strh	r0, [r3, #0]
10002a0a:	0040      	lsls	r0, r0, #1
10002a0c:	b280      	uxth	r0, r0
10002a0e:	4b1b      	ldr	r3, [pc, #108]	; (10002a7c <asl+0x7c>)
10002a10:	8018      	strh	r0, [r3, #0]
10002a12:	23ff      	movs	r3, #255	; 0xff
10002a14:	0002      	movs	r2, r0
10002a16:	439a      	bics	r2, r3
10002a18:	d01b      	beq.n	10002a52 <asl+0x52>
10002a1a:	4a19      	ldr	r2, [pc, #100]	; (10002a80 <asl+0x80>)
10002a1c:	7813      	ldrb	r3, [r2, #0]
10002a1e:	2101      	movs	r1, #1
10002a20:	430b      	orrs	r3, r1
10002a22:	7013      	strb	r3, [r2, #0]
10002a24:	23ff      	movs	r3, #255	; 0xff
10002a26:	4203      	tst	r3, r0
10002a28:	d019      	beq.n	10002a5e <asl+0x5e>
10002a2a:	4a15      	ldr	r2, [pc, #84]	; (10002a80 <asl+0x80>)
10002a2c:	7813      	ldrb	r3, [r2, #0]
10002a2e:	2102      	movs	r1, #2
10002a30:	438b      	bics	r3, r1
10002a32:	7013      	strb	r3, [r2, #0]
10002a34:	4b11      	ldr	r3, [pc, #68]	; (10002a7c <asl+0x7c>)
10002a36:	881b      	ldrh	r3, [r3, #0]
10002a38:	061b      	lsls	r3, r3, #24
10002a3a:	d516      	bpl.n	10002a6a <asl+0x6a>
10002a3c:	4a10      	ldr	r2, [pc, #64]	; (10002a80 <asl+0x80>)
10002a3e:	7811      	ldrb	r1, [r2, #0]
10002a40:	2380      	movs	r3, #128	; 0x80
10002a42:	425b      	negs	r3, r3
10002a44:	430b      	orrs	r3, r1
10002a46:	7013      	strb	r3, [r2, #0]
10002a48:	4b0c      	ldr	r3, [pc, #48]	; (10002a7c <asl+0x7c>)
10002a4a:	8818      	ldrh	r0, [r3, #0]
10002a4c:	f7ff fde6 	bl	1000261c <putvalue>
10002a50:	bd10      	pop	{r4, pc}
10002a52:	4a0b      	ldr	r2, [pc, #44]	; (10002a80 <asl+0x80>)
10002a54:	7813      	ldrb	r3, [r2, #0]
10002a56:	2101      	movs	r1, #1
10002a58:	438b      	bics	r3, r1
10002a5a:	7013      	strb	r3, [r2, #0]
10002a5c:	e7e2      	b.n	10002a24 <asl+0x24>
10002a5e:	4a08      	ldr	r2, [pc, #32]	; (10002a80 <asl+0x80>)
10002a60:	7813      	ldrb	r3, [r2, #0]
10002a62:	2102      	movs	r1, #2
10002a64:	430b      	orrs	r3, r1
10002a66:	7013      	strb	r3, [r2, #0]
10002a68:	e7e4      	b.n	10002a34 <asl+0x34>
10002a6a:	4a05      	ldr	r2, [pc, #20]	; (10002a80 <asl+0x80>)
10002a6c:	7811      	ldrb	r1, [r2, #0]
10002a6e:	237f      	movs	r3, #127	; 0x7f
10002a70:	400b      	ands	r3, r1
10002a72:	7013      	strb	r3, [r2, #0]
10002a74:	e7e8      	b.n	10002a48 <asl+0x48>
10002a76:	46c0      	nop			; (mov r8, r8)
10002a78:	20019050 	.word	0x20019050
10002a7c:	20019006 	.word	0x20019006
10002a80:	20008409 	.word	0x20008409

10002a84 <tsb>:
10002a84:	b570      	push	{r4, r5, r6, lr}
10002a86:	f7fe ff67 	bl	10001958 <getvalue>
10002a8a:	4d0b      	ldr	r5, [pc, #44]	; (10002ab8 <tsb+0x34>)
10002a8c:	8028      	strh	r0, [r5, #0]
10002a8e:	4c0b      	ldr	r4, [pc, #44]	; (10002abc <tsb+0x38>)
10002a90:	7823      	ldrb	r3, [r4, #0]
10002a92:	4318      	orrs	r0, r3
10002a94:	f7ff fdc2 	bl	1000261c <putvalue>
10002a98:	882b      	ldrh	r3, [r5, #0]
10002a9a:	7822      	ldrb	r2, [r4, #0]
10002a9c:	421a      	tst	r2, r3
10002a9e:	d005      	beq.n	10002aac <tsb+0x28>
10002aa0:	4a07      	ldr	r2, [pc, #28]	; (10002ac0 <tsb+0x3c>)
10002aa2:	7813      	ldrb	r3, [r2, #0]
10002aa4:	2102      	movs	r1, #2
10002aa6:	438b      	bics	r3, r1
10002aa8:	7013      	strb	r3, [r2, #0]
10002aaa:	bd70      	pop	{r4, r5, r6, pc}
10002aac:	4a04      	ldr	r2, [pc, #16]	; (10002ac0 <tsb+0x3c>)
10002aae:	7813      	ldrb	r3, [r2, #0]
10002ab0:	2102      	movs	r1, #2
10002ab2:	430b      	orrs	r3, r1
10002ab4:	7013      	strb	r3, [r2, #0]
10002ab6:	e7f8      	b.n	10002aaa <tsb+0x26>
10002ab8:	20019050 	.word	0x20019050
10002abc:	2001900e 	.word	0x2001900e
10002ac0:	20008409 	.word	0x20008409

10002ac4 <main>:
10002ac4:	b510      	push	{r4, lr}
10002ac6:	b084      	sub	sp, #16
10002ac8:	200c      	movs	r0, #12
10002aca:	f002 f8b9 	bl	10004c40 <vreg_set_voltage>
10002ace:	ab03      	add	r3, sp, #12
10002ad0:	aa02      	add	r2, sp, #8
10002ad2:	a901      	add	r1, sp, #4
10002ad4:	482e      	ldr	r0, [pc, #184]	; (10002b90 <main+0xcc>)
10002ad6:	f000 f8bb 	bl	10002c50 <check_sys_clock_khz>
10002ada:	2800      	cmp	r0, #0
10002adc:	d103      	bne.n	10002ae6 <main+0x22>
10002ade:	492c      	ldr	r1, [pc, #176]	; (10002b90 <main+0xcc>)
10002ae0:	482c      	ldr	r0, [pc, #176]	; (10002b94 <main+0xd0>)
10002ae2:	f001 fef1 	bl	100048c8 <panic>
10002ae6:	9a03      	ldr	r2, [sp, #12]
10002ae8:	9902      	ldr	r1, [sp, #8]
10002aea:	9801      	ldr	r0, [sp, #4]
10002aec:	f000 f874 	bl	10002bd8 <set_sys_clock_pll>
10002af0:	f004 faa8 	bl	10007044 <stdio_init_all>
10002af4:	2406      	movs	r4, #6
10002af6:	e009      	b.n	10002b0c <main+0x48>
10002af8:	0021      	movs	r1, r4
10002afa:	4827      	ldr	r0, [pc, #156]	; (10002b98 <main+0xd4>)
10002afc:	f004 fa96 	bl	1000702c <__wrap_printf>
10002b00:	20fa      	movs	r0, #250	; 0xfa
10002b02:	0080      	lsls	r0, r0, #2
10002b04:	f001 fa44 	bl	10003f90 <sleep_ms>
10002b08:	3c01      	subs	r4, #1
10002b0a:	b2e4      	uxtb	r4, r4
10002b0c:	2c00      	cmp	r4, #0
10002b0e:	d1f3      	bne.n	10002af8 <main+0x34>
10002b10:	4822      	ldr	r0, [pc, #136]	; (10002b9c <main+0xd8>)
10002b12:	f004 fa59 	bl	10006fc8 <__wrap_puts>
10002b16:	2380      	movs	r3, #128	; 0x80
10002b18:	021b      	lsls	r3, r3, #8
10002b1a:	e006      	b.n	10002b2a <main+0x66>
10002b1c:	4a20      	ldr	r2, [pc, #128]	; (10002ba0 <main+0xdc>)
10002b1e:	189a      	adds	r2, r3, r2
10002b20:	4920      	ldr	r1, [pc, #128]	; (10002ba4 <main+0xe0>)
10002b22:	5c89      	ldrb	r1, [r1, r2]
10002b24:	4a20      	ldr	r2, [pc, #128]	; (10002ba8 <main+0xe4>)
10002b26:	54d1      	strb	r1, [r2, r3]
10002b28:	3301      	adds	r3, #1
10002b2a:	4a20      	ldr	r2, [pc, #128]	; (10002bac <main+0xe8>)
10002b2c:	4293      	cmp	r3, r2
10002b2e:	ddf5      	ble.n	10002b1c <main+0x58>
10002b30:	481f      	ldr	r0, [pc, #124]	; (10002bb0 <main+0xec>)
10002b32:	f7fe fb01 	bl	10001138 <hookexternal>
10002b36:	f7fe fe85 	bl	10001844 <reset6502>
10002b3a:	4c1e      	ldr	r4, [pc, #120]	; (10002bb4 <main+0xf0>)
10002b3c:	0020      	movs	r0, r4
10002b3e:	f7fe fb0b 	bl	10001158 <m6522_init>
10002b42:	0020      	movs	r0, r4
10002b44:	f7fe fb3a 	bl	100011bc <m6522_reset>
10002b48:	4c1b      	ldr	r4, [pc, #108]	; (10002bb8 <main+0xf4>)
10002b4a:	481c      	ldr	r0, [pc, #112]	; (10002bbc <main+0xf8>)
10002b4c:	6020      	str	r0, [r4, #0]
10002b4e:	4b1c      	ldr	r3, [pc, #112]	; (10002bc0 <main+0xfc>)
10002b50:	2200      	movs	r2, #0
10002b52:	601a      	str	r2, [r3, #0]
10002b54:	f000 f8f9 	bl	10002d4a <gpio_init_mask>
10002b58:	6822      	ldr	r2, [r4, #0]
10002b5a:	23d0      	movs	r3, #208	; 0xd0
10002b5c:	061b      	lsls	r3, r3, #24
10002b5e:	621a      	str	r2, [r3, #32]
10002b60:	f001 fab2 	bl	100040c8 <time_us_64>
10002b64:	2900      	cmp	r1, #0
10002b66:	db03      	blt.n	10002b70 <main+0xac>
10002b68:	4b16      	ldr	r3, [pc, #88]	; (10002bc4 <main+0x100>)
10002b6a:	6018      	str	r0, [r3, #0]
10002b6c:	6059      	str	r1, [r3, #4]
10002b6e:	e007      	b.n	10002b80 <main+0xbc>
10002b70:	4b15      	ldr	r3, [pc, #84]	; (10002bc8 <main+0x104>)
10002b72:	4a16      	ldr	r2, [pc, #88]	; (10002bcc <main+0x108>)
10002b74:	213f      	movs	r1, #63	; 0x3f
10002b76:	4816      	ldr	r0, [pc, #88]	; (10002bd0 <main+0x10c>)
10002b78:	f001 fe0c 	bl	10004794 <__assert_func>
10002b7c:	f7ff fc88 	bl	10002490 <step6502>
10002b80:	4b14      	ldr	r3, [pc, #80]	; (10002bd4 <main+0x110>)
10002b82:	781b      	ldrb	r3, [r3, #0]
10002b84:	2b00      	cmp	r3, #0
10002b86:	d1f9      	bne.n	10002b7c <main+0xb8>
10002b88:	2000      	movs	r0, #0
10002b8a:	b004      	add	sp, #16
10002b8c:	bd10      	pop	{r4, pc}
10002b8e:	46c0      	nop			; (mov r8, r8)
10002b90:	000445c0 	.word	0x000445c0
10002b94:	1000a274 	.word	0x1000a274
10002b98:	1000a2a8 	.word	0x1000a2a8
10002b9c:	1000a2bc 	.word	0x1000a2bc
10002ba0:	ffff8000 	.word	0xffff8000
10002ba4:	20000408 	.word	0x20000408
10002ba8:	20008ff8 	.word	0x20008ff8
10002bac:	0000ffff 	.word	0x0000ffff
10002bb0:	10002541 	.word	0x10002541
10002bb4:	20019010 	.word	0x20019010
10002bb8:	20008ff0 	.word	0x20008ff0
10002bbc:	007f80ff 	.word	0x007f80ff
10002bc0:	20019000 	.word	0x20019000
10002bc4:	20019048 	.word	0x20019048
10002bc8:	1000a2c8 	.word	0x1000a2c8
10002bcc:	10009e18 	.word	0x10009e18
10002bd0:	1000a2e4 	.word	0x1000a2e4
10002bd4:	20008408 	.word	0x20008408

10002bd8 <set_sys_clock_pll>:
10002bd8:	b5f0      	push	{r4, r5, r6, r7, lr}
10002bda:	b083      	sub	sp, #12
10002bdc:	0005      	movs	r5, r0
10002bde:	000e      	movs	r6, r1
10002be0:	0014      	movs	r4, r2
10002be2:	f000 f919 	bl	10002e18 <running_on_fpga>
10002be6:	2800      	cmp	r0, #0
10002be8:	d001      	beq.n	10002bee <set_sys_clock_pll+0x16>
10002bea:	b003      	add	sp, #12
10002bec:	bdf0      	pop	{r4, r5, r6, r7, pc}
10002bee:	4f15      	ldr	r7, [pc, #84]	; (10002c44 <set_sys_clock_pll+0x6c>)
10002bf0:	9700      	str	r7, [sp, #0]
10002bf2:	003b      	movs	r3, r7
10002bf4:	2201      	movs	r2, #1
10002bf6:	2101      	movs	r1, #1
10002bf8:	3005      	adds	r0, #5
10002bfa:	f001 fe7d 	bl	100048f8 <clock_configure>
10002bfe:	9400      	str	r4, [sp, #0]
10002c00:	0033      	movs	r3, r6
10002c02:	002a      	movs	r2, r5
10002c04:	2101      	movs	r1, #1
10002c06:	4810      	ldr	r0, [pc, #64]	; (10002c48 <set_sys_clock_pll+0x70>)
10002c08:	f001 ff7a 	bl	10004b00 <pll_init>
10002c0c:	0021      	movs	r1, r4
10002c0e:	4371      	muls	r1, r6
10002c10:	0028      	movs	r0, r5
10002c12:	f003 f979 	bl	10005f08 <__wrap___aeabi_uidiv>
10002c16:	0004      	movs	r4, r0
10002c18:	4b0c      	ldr	r3, [pc, #48]	; (10002c4c <set_sys_clock_pll+0x74>)
10002c1a:	9300      	str	r3, [sp, #0]
10002c1c:	2200      	movs	r2, #0
10002c1e:	2102      	movs	r1, #2
10002c20:	2004      	movs	r0, #4
10002c22:	f001 fe69 	bl	100048f8 <clock_configure>
10002c26:	9400      	str	r4, [sp, #0]
10002c28:	0023      	movs	r3, r4
10002c2a:	2200      	movs	r2, #0
10002c2c:	2101      	movs	r1, #1
10002c2e:	2005      	movs	r0, #5
10002c30:	f001 fe62 	bl	100048f8 <clock_configure>
10002c34:	9700      	str	r7, [sp, #0]
10002c36:	003b      	movs	r3, r7
10002c38:	2202      	movs	r2, #2
10002c3a:	2100      	movs	r1, #0
10002c3c:	2006      	movs	r0, #6
10002c3e:	f001 fe5b 	bl	100048f8 <clock_configure>
10002c42:	e7d2      	b.n	10002bea <set_sys_clock_pll+0x12>
10002c44:	02dc6c00 	.word	0x02dc6c00
10002c48:	40028000 	.word	0x40028000
10002c4c:	00b71b00 	.word	0x00b71b00

10002c50 <check_sys_clock_khz>:
10002c50:	b5f0      	push	{r4, r5, r6, r7, lr}
10002c52:	46de      	mov	lr, fp
10002c54:	4657      	mov	r7, sl
10002c56:	464e      	mov	r6, r9
10002c58:	4645      	mov	r5, r8
10002c5a:	b5e0      	push	{r5, r6, r7, lr}
10002c5c:	b083      	sub	sp, #12
10002c5e:	0006      	movs	r6, r0
10002c60:	468b      	mov	fp, r1
10002c62:	4690      	mov	r8, r2
10002c64:	9301      	str	r3, [sp, #4]
10002c66:	2004      	movs	r0, #4
10002c68:	f001 ff44 	bl	10004af4 <clock_get_hz>
10002c6c:	21fa      	movs	r1, #250	; 0xfa
10002c6e:	0089      	lsls	r1, r1, #2
10002c70:	f003 f94a 	bl	10005f08 <__wrap___aeabi_uidiv>
10002c74:	4682      	mov	sl, r0
10002c76:	23a0      	movs	r3, #160	; 0xa0
10002c78:	005b      	lsls	r3, r3, #1
10002c7a:	4699      	mov	r9, r3
10002c7c:	e02d      	b.n	10002cda <check_sys_clock_khz+0x8a>
10002c7e:	3c01      	subs	r4, #1
10002c80:	2c00      	cmp	r4, #0
10002c82:	d021      	beq.n	10002cc8 <check_sys_clock_khz+0x78>
10002c84:	0025      	movs	r5, r4
10002c86:	437d      	muls	r5, r7
10002c88:	0029      	movs	r1, r5
10002c8a:	9800      	ldr	r0, [sp, #0]
10002c8c:	f003 f93c 	bl	10005f08 <__wrap___aeabi_uidiv>
10002c90:	42b0      	cmp	r0, r6
10002c92:	d1f4      	bne.n	10002c7e <check_sys_clock_khz+0x2e>
10002c94:	0029      	movs	r1, r5
10002c96:	9800      	ldr	r0, [sp, #0]
10002c98:	f003 f936 	bl	10005f08 <__wrap___aeabi_uidiv>
10002c9c:	2900      	cmp	r1, #0
10002c9e:	d1ee      	bne.n	10002c7e <check_sys_clock_khz+0x2e>
10002ca0:	9a00      	ldr	r2, [sp, #0]
10002ca2:	0153      	lsls	r3, r2, #5
10002ca4:	1a9b      	subs	r3, r3, r2
10002ca6:	009b      	lsls	r3, r3, #2
10002ca8:	189e      	adds	r6, r3, r2
10002caa:	00f3      	lsls	r3, r6, #3
10002cac:	465a      	mov	r2, fp
10002cae:	6013      	str	r3, [r2, #0]
10002cb0:	4643      	mov	r3, r8
10002cb2:	601f      	str	r7, [r3, #0]
10002cb4:	9b01      	ldr	r3, [sp, #4]
10002cb6:	601c      	str	r4, [r3, #0]
10002cb8:	2001      	movs	r0, #1
10002cba:	b003      	add	sp, #12
10002cbc:	bc3c      	pop	{r2, r3, r4, r5}
10002cbe:	4690      	mov	r8, r2
10002cc0:	4699      	mov	r9, r3
10002cc2:	46a2      	mov	sl, r4
10002cc4:	46ab      	mov	fp, r5
10002cc6:	bdf0      	pop	{r4, r5, r6, r7, pc}
10002cc8:	3f01      	subs	r7, #1
10002cca:	2f00      	cmp	r7, #0
10002ccc:	d001      	beq.n	10002cd2 <check_sys_clock_khz+0x82>
10002cce:	003c      	movs	r4, r7
10002cd0:	e7d6      	b.n	10002c80 <check_sys_clock_khz+0x30>
10002cd2:	2301      	movs	r3, #1
10002cd4:	425b      	negs	r3, r3
10002cd6:	469c      	mov	ip, r3
10002cd8:	44e1      	add	r9, ip
10002cda:	464b      	mov	r3, r9
10002cdc:	2b0f      	cmp	r3, #15
10002cde:	d90b      	bls.n	10002cf8 <check_sys_clock_khz+0xa8>
10002ce0:	4653      	mov	r3, sl
10002ce2:	464a      	mov	r2, r9
10002ce4:	4353      	muls	r3, r2
10002ce6:	9300      	str	r3, [sp, #0]
10002ce8:	4a04      	ldr	r2, [pc, #16]	; (10002cfc <check_sys_clock_khz+0xac>)
10002cea:	469c      	mov	ip, r3
10002cec:	4462      	add	r2, ip
10002cee:	4b04      	ldr	r3, [pc, #16]	; (10002d00 <check_sys_clock_khz+0xb0>)
10002cf0:	429a      	cmp	r2, r3
10002cf2:	d8ee      	bhi.n	10002cd2 <check_sys_clock_khz+0x82>
10002cf4:	2707      	movs	r7, #7
10002cf6:	e7e8      	b.n	10002cca <check_sys_clock_khz+0x7a>
10002cf8:	2000      	movs	r0, #0
10002cfa:	e7de      	b.n	10002cba <check_sys_clock_khz+0x6a>
10002cfc:	fff48e50 	.word	0xfff48e50
10002d00:	000cf850 	.word	0x000cf850

10002d04 <gpio_set_function>:
10002d04:	b510      	push	{r4, lr}
10002d06:	0083      	lsls	r3, r0, #2
10002d08:	4a08      	ldr	r2, [pc, #32]	; (10002d2c <gpio_set_function+0x28>)
10002d0a:	4694      	mov	ip, r2
10002d0c:	4463      	add	r3, ip
10002d0e:	681c      	ldr	r4, [r3, #0]
10002d10:	2240      	movs	r2, #64	; 0x40
10002d12:	4062      	eors	r2, r4
10002d14:	24c0      	movs	r4, #192	; 0xc0
10002d16:	4014      	ands	r4, r2
10002d18:	2280      	movs	r2, #128	; 0x80
10002d1a:	0152      	lsls	r2, r2, #5
10002d1c:	4313      	orrs	r3, r2
10002d1e:	601c      	str	r4, [r3, #0]
10002d20:	00c0      	lsls	r0, r0, #3
10002d22:	4b03      	ldr	r3, [pc, #12]	; (10002d30 <gpio_set_function+0x2c>)
10002d24:	469c      	mov	ip, r3
10002d26:	4460      	add	r0, ip
10002d28:	6041      	str	r1, [r0, #4]
10002d2a:	bd10      	pop	{r4, pc}
10002d2c:	4001c004 	.word	0x4001c004
10002d30:	40014000 	.word	0x40014000

10002d34 <gpio_init>:
10002d34:	b510      	push	{r4, lr}
10002d36:	2301      	movs	r3, #1
10002d38:	4083      	lsls	r3, r0
10002d3a:	22d0      	movs	r2, #208	; 0xd0
10002d3c:	0612      	lsls	r2, r2, #24
10002d3e:	6293      	str	r3, [r2, #40]	; 0x28
10002d40:	6193      	str	r3, [r2, #24]
10002d42:	2105      	movs	r1, #5
10002d44:	f7ff ffde 	bl	10002d04 <gpio_set_function>
10002d48:	bd10      	pop	{r4, pc}

10002d4a <gpio_init_mask>:
10002d4a:	b570      	push	{r4, r5, r6, lr}
10002d4c:	0005      	movs	r5, r0
10002d4e:	2400      	movs	r4, #0
10002d50:	e004      	b.n	10002d5c <gpio_init_mask+0x12>
10002d52:	0020      	movs	r0, r4
10002d54:	f7ff ffee 	bl	10002d34 <gpio_init>
10002d58:	086d      	lsrs	r5, r5, #1
10002d5a:	3401      	adds	r4, #1
10002d5c:	2c1d      	cmp	r4, #29
10002d5e:	d802      	bhi.n	10002d66 <gpio_init_mask+0x1c>
10002d60:	07eb      	lsls	r3, r5, #31
10002d62:	d5f9      	bpl.n	10002d58 <gpio_init_mask+0xe>
10002d64:	e7f5      	b.n	10002d52 <gpio_init_mask+0x8>
10002d66:	bd70      	pop	{r4, r5, r6, pc}

10002d68 <hw_claim_lock>:
10002d68:	f3ef 8010 	mrs	r0, PRIMASK
10002d6c:	b672      	cpsid	i
10002d6e:	4b03      	ldr	r3, [pc, #12]	; (10002d7c <hw_claim_lock+0x14>)
10002d70:	681b      	ldr	r3, [r3, #0]
10002d72:	2b00      	cmp	r3, #0
10002d74:	d0fb      	beq.n	10002d6e <hw_claim_lock+0x6>
10002d76:	f3bf 8f5f 	dmb	sy
10002d7a:	4770      	bx	lr
10002d7c:	d000012c 	.word	0xd000012c

10002d80 <hw_claim_unlock>:
10002d80:	f3bf 8f5f 	dmb	sy
10002d84:	4b02      	ldr	r3, [pc, #8]	; (10002d90 <hw_claim_unlock+0x10>)
10002d86:	2200      	movs	r2, #0
10002d88:	601a      	str	r2, [r3, #0]
10002d8a:	f380 8810 	msr	PRIMASK, r0
10002d8e:	4770      	bx	lr
10002d90:	d000012c 	.word	0xd000012c

10002d94 <hw_claim_or_assert>:
10002d94:	b570      	push	{r4, r5, r6, lr}
10002d96:	0005      	movs	r5, r0
10002d98:	000e      	movs	r6, r1
10002d9a:	0014      	movs	r4, r2
10002d9c:	f7ff ffe4 	bl	10002d68 <hw_claim_lock>
10002da0:	08f2      	lsrs	r2, r6, #3
10002da2:	18aa      	adds	r2, r5, r2
10002da4:	7815      	ldrb	r5, [r2, #0]
10002da6:	2107      	movs	r1, #7
10002da8:	4031      	ands	r1, r6
10002daa:	2301      	movs	r3, #1
10002dac:	408b      	lsls	r3, r1
10002dae:	422b      	tst	r3, r5
10002db0:	d105      	bne.n	10002dbe <hw_claim_or_assert+0x2a>
10002db2:	b2db      	uxtb	r3, r3
10002db4:	432b      	orrs	r3, r5
10002db6:	7013      	strb	r3, [r2, #0]
10002db8:	f7ff ffe2 	bl	10002d80 <hw_claim_unlock>
10002dbc:	bd70      	pop	{r4, r5, r6, pc}
10002dbe:	0031      	movs	r1, r6
10002dc0:	0020      	movs	r0, r4
10002dc2:	f001 fd81 	bl	100048c8 <panic>

10002dc6 <hw_claim_unused_from_range>:
10002dc6:	b5f0      	push	{r4, r5, r6, r7, lr}
10002dc8:	b083      	sub	sp, #12
10002dca:	0007      	movs	r7, r0
10002dcc:	9101      	str	r1, [sp, #4]
10002dce:	0014      	movs	r4, r2
10002dd0:	001e      	movs	r6, r3
10002dd2:	f7ff ffc9 	bl	10002d68 <hw_claim_lock>
10002dd6:	42b4      	cmp	r4, r6
10002dd8:	d80e      	bhi.n	10002df8 <hw_claim_unused_from_range+0x32>
10002dda:	08e2      	lsrs	r2, r4, #3
10002ddc:	18ba      	adds	r2, r7, r2
10002dde:	7815      	ldrb	r5, [r2, #0]
10002de0:	2107      	movs	r1, #7
10002de2:	4021      	ands	r1, r4
10002de4:	2301      	movs	r3, #1
10002de6:	408b      	lsls	r3, r1
10002de8:	422b      	tst	r3, r5
10002dea:	d001      	beq.n	10002df0 <hw_claim_unused_from_range+0x2a>
10002dec:	3401      	adds	r4, #1
10002dee:	e7f2      	b.n	10002dd6 <hw_claim_unused_from_range+0x10>
10002df0:	b2db      	uxtb	r3, r3
10002df2:	432b      	orrs	r3, r5
10002df4:	7013      	strb	r3, [r2, #0]
10002df6:	e001      	b.n	10002dfc <hw_claim_unused_from_range+0x36>
10002df8:	2401      	movs	r4, #1
10002dfa:	4264      	negs	r4, r4
10002dfc:	f7ff ffc0 	bl	10002d80 <hw_claim_unlock>
10002e00:	2c00      	cmp	r4, #0
10002e02:	db02      	blt.n	10002e0a <hw_claim_unused_from_range+0x44>
10002e04:	0020      	movs	r0, r4
10002e06:	b003      	add	sp, #12
10002e08:	bdf0      	pop	{r4, r5, r6, r7, pc}
10002e0a:	9b01      	ldr	r3, [sp, #4]
10002e0c:	2b00      	cmp	r3, #0
10002e0e:	d0f9      	beq.n	10002e04 <hw_claim_unused_from_range+0x3e>
10002e10:	9808      	ldr	r0, [sp, #32]
10002e12:	f001 fd59 	bl	100048c8 <panic>
	...

10002e18 <running_on_fpga>:
10002e18:	4b03      	ldr	r3, [pc, #12]	; (10002e28 <running_on_fpga+0x10>)
10002e1a:	681b      	ldr	r3, [r3, #0]
10002e1c:	2002      	movs	r0, #2
10002e1e:	4018      	ands	r0, r3
10002e20:	1e43      	subs	r3, r0, #1
10002e22:	4198      	sbcs	r0, r3
10002e24:	b2c0      	uxtb	r0, r0
10002e26:	4770      	bx	lr
10002e28:	4006c000 	.word	0x4006c000

10002e2c <spin_locks_reset>:
10002e2c:	2300      	movs	r3, #0
10002e2e:	2b1f      	cmp	r3, #31
10002e30:	d808      	bhi.n	10002e44 <spin_locks_reset+0x18>
10002e32:	4a05      	ldr	r2, [pc, #20]	; (10002e48 <spin_locks_reset+0x1c>)
10002e34:	189a      	adds	r2, r3, r2
10002e36:	0092      	lsls	r2, r2, #2
10002e38:	f3bf 8f5f 	dmb	sy
10002e3c:	2100      	movs	r1, #0
10002e3e:	6011      	str	r1, [r2, #0]
10002e40:	3301      	adds	r3, #1
10002e42:	e7f4      	b.n	10002e2e <spin_locks_reset+0x2>
10002e44:	4770      	bx	lr
10002e46:	46c0      	nop			; (mov r8, r8)
10002e48:	34000040 	.word	0x34000040

10002e4c <next_striped_spin_lock_num>:
10002e4c:	4a05      	ldr	r2, [pc, #20]	; (10002e64 <next_striped_spin_lock_num+0x18>)
10002e4e:	7810      	ldrb	r0, [r2, #0]
10002e50:	1c43      	adds	r3, r0, #1
10002e52:	b2db      	uxtb	r3, r3
10002e54:	7013      	strb	r3, [r2, #0]
10002e56:	2b17      	cmp	r3, #23
10002e58:	d902      	bls.n	10002e60 <next_striped_spin_lock_num+0x14>
10002e5a:	0013      	movs	r3, r2
10002e5c:	2210      	movs	r2, #16
10002e5e:	701a      	strb	r2, [r3, #0]
10002e60:	4770      	bx	lr
10002e62:	46c0      	nop			; (mov r8, r8)
10002e64:	2000840a 	.word	0x2000840a

10002e68 <spin_lock_claim_unused>:
10002e68:	b500      	push	{lr}
10002e6a:	b083      	sub	sp, #12
10002e6c:	0001      	movs	r1, r0
10002e6e:	4b04      	ldr	r3, [pc, #16]	; (10002e80 <spin_lock_claim_unused+0x18>)
10002e70:	9300      	str	r3, [sp, #0]
10002e72:	231f      	movs	r3, #31
10002e74:	2218      	movs	r2, #24
10002e76:	4803      	ldr	r0, [pc, #12]	; (10002e84 <spin_lock_claim_unused+0x1c>)
10002e78:	f7ff ffa5 	bl	10002dc6 <hw_claim_unused_from_range>
10002e7c:	b003      	add	sp, #12
10002e7e:	bd00      	pop	{pc}
10002e80:	1000ab30 	.word	0x1000ab30
10002e84:	20008ad8 	.word	0x20008ad8

10002e88 <set_raw_irq_handler_and_unlock>:
10002e88:	4b07      	ldr	r3, [pc, #28]	; (10002ea8 <set_raw_irq_handler_and_unlock+0x20>)
10002e8a:	689b      	ldr	r3, [r3, #8]
10002e8c:	3010      	adds	r0, #16
10002e8e:	0080      	lsls	r0, r0, #2
10002e90:	5019      	str	r1, [r3, r0]
10002e92:	f3bf 8f5f 	dmb	sy
10002e96:	f3bf 8f5f 	dmb	sy
10002e9a:	4b04      	ldr	r3, [pc, #16]	; (10002eac <set_raw_irq_handler_and_unlock+0x24>)
10002e9c:	2100      	movs	r1, #0
10002e9e:	6019      	str	r1, [r3, #0]
10002ea0:	f382 8810 	msr	PRIMASK, r2
10002ea4:	4770      	bx	lr
10002ea6:	46c0      	nop			; (mov r8, r8)
10002ea8:	e000ed00 	.word	0xe000ed00
10002eac:	d0000124 	.word	0xd0000124

10002eb0 <make_branch>:
10002eb0:	b510      	push	{r4, lr}
10002eb2:	1a09      	subs	r1, r1, r0
10002eb4:	1f0b      	subs	r3, r1, #4
10002eb6:	4a0a      	ldr	r2, [pc, #40]	; (10002ee0 <make_branch+0x30>)
10002eb8:	4694      	mov	ip, r2
10002eba:	4461      	add	r1, ip
10002ebc:	4a09      	ldr	r2, [pc, #36]	; (10002ee4 <make_branch+0x34>)
10002ebe:	4291      	cmp	r1, r2
10002ec0:	d808      	bhi.n	10002ed4 <make_branch+0x24>
10002ec2:	07da      	lsls	r2, r3, #31
10002ec4:	d406      	bmi.n	10002ed4 <make_branch+0x24>
10002ec6:	105b      	asrs	r3, r3, #1
10002ec8:	055b      	lsls	r3, r3, #21
10002eca:	0d5b      	lsrs	r3, r3, #21
10002ecc:	4806      	ldr	r0, [pc, #24]	; (10002ee8 <make_branch+0x38>)
10002ece:	4318      	orrs	r0, r3
10002ed0:	b280      	uxth	r0, r0
10002ed2:	bd10      	pop	{r4, pc}
10002ed4:	4b05      	ldr	r3, [pc, #20]	; (10002eec <make_branch+0x3c>)
10002ed6:	4a06      	ldr	r2, [pc, #24]	; (10002ef0 <make_branch+0x40>)
10002ed8:	2199      	movs	r1, #153	; 0x99
10002eda:	4806      	ldr	r0, [pc, #24]	; (10002ef4 <make_branch+0x44>)
10002edc:	f001 fc5a 	bl	10004794 <__assert_func>
10002ee0:	000007fc 	.word	0x000007fc
10002ee4:	00000ffe 	.word	0x00000ffe
10002ee8:	ffffe000 	.word	0xffffe000
10002eec:	1000ad70 	.word	0x1000ad70
10002ef0:	1000ab68 	.word	0x1000ab68
10002ef4:	1000ada0 	.word	0x1000ada0

10002ef8 <insert_branch_and_link>:
10002ef8:	b510      	push	{r4, lr}
10002efa:	1a09      	subs	r1, r1, r0
10002efc:	3904      	subs	r1, #4
10002efe:	084c      	lsrs	r4, r1, #1
10002f00:	0b09      	lsrs	r1, r1, #12
10002f02:	d108      	bne.n	10002f16 <insert_branch_and_link+0x1e>
10002f04:	0549      	lsls	r1, r1, #21
10002f06:	0d49      	lsrs	r1, r1, #21
10002f08:	4a06      	ldr	r2, [pc, #24]	; (10002f24 <insert_branch_and_link+0x2c>)
10002f0a:	4311      	orrs	r1, r2
10002f0c:	8001      	strh	r1, [r0, #0]
10002f0e:	4b06      	ldr	r3, [pc, #24]	; (10002f28 <insert_branch_and_link+0x30>)
10002f10:	4323      	orrs	r3, r4
10002f12:	8043      	strh	r3, [r0, #2]
10002f14:	bd10      	pop	{r4, pc}
10002f16:	4b05      	ldr	r3, [pc, #20]	; (10002f2c <insert_branch_and_link+0x34>)
10002f18:	4a05      	ldr	r2, [pc, #20]	; (10002f30 <insert_branch_and_link+0x38>)
10002f1a:	21a1      	movs	r1, #161	; 0xa1
10002f1c:	4805      	ldr	r0, [pc, #20]	; (10002f34 <insert_branch_and_link+0x3c>)
10002f1e:	f001 fc39 	bl	10004794 <__assert_func>
10002f22:	46c0      	nop			; (mov r8, r8)
10002f24:	fffff000 	.word	0xfffff000
10002f28:	fffff800 	.word	0xfffff800
10002f2c:	1000abe4 	.word	0x1000abe4
10002f30:	1000ab74 	.word	0x1000ab74
10002f34:	1000ada0 	.word	0x1000ada0

10002f38 <irq_is_enabled>:
10002f38:	2301      	movs	r3, #1
10002f3a:	4083      	lsls	r3, r0
10002f3c:	4a03      	ldr	r2, [pc, #12]	; (10002f4c <irq_is_enabled+0x14>)
10002f3e:	6810      	ldr	r0, [r2, #0]
10002f40:	4018      	ands	r0, r3
10002f42:	1e43      	subs	r3, r0, #1
10002f44:	4198      	sbcs	r0, r3
10002f46:	b2c0      	uxtb	r0, r0
10002f48:	4770      	bx	lr
10002f4a:	46c0      	nop			; (mov r8, r8)
10002f4c:	e000e100 	.word	0xe000e100

10002f50 <irq_set_mask_enabled>:
10002f50:	2900      	cmp	r1, #0
10002f52:	d004      	beq.n	10002f5e <irq_set_mask_enabled+0xe>
10002f54:	4b03      	ldr	r3, [pc, #12]	; (10002f64 <irq_set_mask_enabled+0x14>)
10002f56:	6018      	str	r0, [r3, #0]
10002f58:	4b03      	ldr	r3, [pc, #12]	; (10002f68 <irq_set_mask_enabled+0x18>)
10002f5a:	6018      	str	r0, [r3, #0]
10002f5c:	4770      	bx	lr
10002f5e:	4b03      	ldr	r3, [pc, #12]	; (10002f6c <irq_set_mask_enabled+0x1c>)
10002f60:	6018      	str	r0, [r3, #0]
10002f62:	e7fb      	b.n	10002f5c <irq_set_mask_enabled+0xc>
10002f64:	e000e280 	.word	0xe000e280
10002f68:	e000e100 	.word	0xe000e100
10002f6c:	e000e180 	.word	0xe000e180

10002f70 <irq_set_enabled>:
10002f70:	b510      	push	{r4, lr}
10002f72:	2301      	movs	r3, #1
10002f74:	4083      	lsls	r3, r0
10002f76:	0018      	movs	r0, r3
10002f78:	f7ff ffea 	bl	10002f50 <irq_set_mask_enabled>
10002f7c:	bd10      	pop	{r4, pc}
	...

10002f80 <irq_set_pending>:
10002f80:	2301      	movs	r3, #1
10002f82:	4083      	lsls	r3, r0
10002f84:	4a01      	ldr	r2, [pc, #4]	; (10002f8c <irq_set_pending+0xc>)
10002f86:	6013      	str	r3, [r2, #0]
10002f88:	4770      	bx	lr
10002f8a:	46c0      	nop			; (mov r8, r8)
10002f8c:	e000e200 	.word	0xe000e200

10002f90 <irq_get_vtable_handler>:
10002f90:	4b02      	ldr	r3, [pc, #8]	; (10002f9c <irq_get_vtable_handler+0xc>)
10002f92:	689b      	ldr	r3, [r3, #8]
10002f94:	3010      	adds	r0, #16
10002f96:	0080      	lsls	r0, r0, #2
10002f98:	58c0      	ldr	r0, [r0, r3]
10002f9a:	4770      	bx	lr
10002f9c:	e000ed00 	.word	0xe000ed00

10002fa0 <irq_has_shared_handler>:
10002fa0:	b510      	push	{r4, lr}
10002fa2:	f7ff fff5 	bl	10002f90 <irq_get_vtable_handler>
10002fa6:	2800      	cmp	r0, #0
10002fa8:	d005      	beq.n	10002fb6 <irq_has_shared_handler+0x16>
10002faa:	4b05      	ldr	r3, [pc, #20]	; (10002fc0 <irq_has_shared_handler+0x20>)
10002fac:	1ac0      	subs	r0, r0, r3
10002fae:	282f      	cmp	r0, #47	; 0x2f
10002fb0:	d803      	bhi.n	10002fba <irq_has_shared_handler+0x1a>
10002fb2:	2001      	movs	r0, #1
10002fb4:	bd10      	pop	{r4, pc}
10002fb6:	2000      	movs	r0, #0
10002fb8:	e7fc      	b.n	10002fb4 <irq_has_shared_handler+0x14>
10002fba:	2000      	movs	r0, #0
10002fbc:	e7fa      	b.n	10002fb4 <irq_has_shared_handler+0x14>
10002fbe:	46c0      	nop			; (mov r8, r8)
10002fc0:	2000840c 	.word	0x2000840c

10002fc4 <irq_set_exclusive_handler>:
10002fc4:	b570      	push	{r4, r5, r6, lr}
10002fc6:	0004      	movs	r4, r0
10002fc8:	000d      	movs	r5, r1
10002fca:	f3ef 8610 	mrs	r6, PRIMASK
10002fce:	b672      	cpsid	i
10002fd0:	4b0c      	ldr	r3, [pc, #48]	; (10003004 <irq_set_exclusive_handler+0x40>)
10002fd2:	681b      	ldr	r3, [r3, #0]
10002fd4:	2b00      	cmp	r3, #0
10002fd6:	d0fb      	beq.n	10002fd0 <irq_set_exclusive_handler+0xc>
10002fd8:	f3bf 8f5f 	dmb	sy
10002fdc:	0020      	movs	r0, r4
10002fde:	f7ff ffd7 	bl	10002f90 <irq_get_vtable_handler>
10002fe2:	4b09      	ldr	r3, [pc, #36]	; (10003008 <irq_set_exclusive_handler+0x44>)
10002fe4:	4298      	cmp	r0, r3
10002fe6:	d001      	beq.n	10002fec <irq_set_exclusive_handler+0x28>
10002fe8:	42a8      	cmp	r0, r5
10002fea:	d105      	bne.n	10002ff8 <irq_set_exclusive_handler+0x34>
10002fec:	0032      	movs	r2, r6
10002fee:	0029      	movs	r1, r5
10002ff0:	0020      	movs	r0, r4
10002ff2:	f7ff ff49 	bl	10002e88 <set_raw_irq_handler_and_unlock>
10002ff6:	bd70      	pop	{r4, r5, r6, pc}
10002ff8:	4b04      	ldr	r3, [pc, #16]	; (1000300c <irq_set_exclusive_handler+0x48>)
10002ffa:	4a05      	ldr	r2, [pc, #20]	; (10003010 <irq_set_exclusive_handler+0x4c>)
10002ffc:	217c      	movs	r1, #124	; 0x7c
10002ffe:	4805      	ldr	r0, [pc, #20]	; (10003014 <irq_set_exclusive_handler+0x50>)
10003000:	f001 fbc8 	bl	10004794 <__assert_func>
10003004:	d0000124 	.word	0xd0000124
10003008:	100001cd 	.word	0x100001cd
1000300c:	1000ad38 	.word	0x1000ad38
10003010:	1000ab4c 	.word	0x1000ab4c
10003014:	1000ada0 	.word	0x1000ada0

10003018 <irq_add_shared_handler>:
10003018:	b5f0      	push	{r4, r5, r6, r7, lr}
1000301a:	46de      	mov	lr, fp
1000301c:	4657      	mov	r7, sl
1000301e:	464e      	mov	r6, r9
10003020:	4645      	mov	r5, r8
10003022:	b5e0      	push	{r5, r6, r7, lr}
10003024:	b089      	sub	sp, #36	; 0x24
10003026:	9001      	str	r0, [sp, #4]
10003028:	9103      	str	r1, [sp, #12]
1000302a:	0017      	movs	r7, r2
1000302c:	f3ef 8b10 	mrs	fp, PRIMASK
10003030:	b672      	cpsid	i
10003032:	4b71      	ldr	r3, [pc, #452]	; (100031f8 <irq_add_shared_handler+0x1e0>)
10003034:	681b      	ldr	r3, [r3, #0]
10003036:	2b00      	cmp	r3, #0
10003038:	d0fb      	beq.n	10003032 <irq_add_shared_handler+0x1a>
1000303a:	f3bf 8f5f 	dmb	sy
1000303e:	4b6f      	ldr	r3, [pc, #444]	; (100031fc <irq_add_shared_handler+0x1e4>)
10003040:	2500      	movs	r5, #0
10003042:	575d      	ldrsb	r5, [r3, r5]
10003044:	2d00      	cmp	r5, #0
10003046:	db40      	blt.n	100030ca <irq_add_shared_handler+0xb2>
10003048:	006b      	lsls	r3, r5, #1
1000304a:	195b      	adds	r3, r3, r5
1000304c:	009a      	lsls	r2, r3, #2
1000304e:	486c      	ldr	r0, [pc, #432]	; (10003200 <irq_add_shared_handler+0x1e8>)
10003050:	1813      	adds	r3, r2, r0
10003052:	9302      	str	r3, [sp, #8]
10003054:	2206      	movs	r2, #6
10003056:	569a      	ldrsb	r2, [r3, r2]
10003058:	4b68      	ldr	r3, [pc, #416]	; (100031fc <irq_add_shared_handler+0x1e4>)
1000305a:	701a      	strb	r2, [r3, #0]
1000305c:	4b69      	ldr	r3, [pc, #420]	; (10003204 <irq_add_shared_handler+0x1ec>)
1000305e:	689a      	ldr	r2, [r3, #8]
10003060:	9b01      	ldr	r3, [sp, #4]
10003062:	3310      	adds	r3, #16
10003064:	009b      	lsls	r3, r3, #2
10003066:	58d6      	ldr	r6, [r2, r3]
10003068:	0034      	movs	r4, r6
1000306a:	1a33      	subs	r3, r6, r0
1000306c:	2b2f      	cmp	r3, #47	; 0x2f
1000306e:	d938      	bls.n	100030e2 <irq_add_shared_handler+0xca>
10003070:	4b65      	ldr	r3, [pc, #404]	; (10003208 <irq_add_shared_handler+0x1f0>)
10003072:	429e      	cmp	r6, r3
10003074:	d12f      	bne.n	100030d6 <irq_add_shared_handler+0xbe>
10003076:	ac05      	add	r4, sp, #20
10003078:	4b64      	ldr	r3, [pc, #400]	; (1000320c <irq_add_shared_handler+0x1f4>)
1000307a:	8023      	strh	r3, [r4, #0]
1000307c:	006b      	lsls	r3, r5, #1
1000307e:	469a      	mov	sl, r3
10003080:	195b      	adds	r3, r3, r5
10003082:	0098      	lsls	r0, r3, #2
10003084:	4e5e      	ldr	r6, [pc, #376]	; (10003200 <irq_add_shared_handler+0x1e8>)
10003086:	1980      	adds	r0, r0, r6
10003088:	3002      	adds	r0, #2
1000308a:	4961      	ldr	r1, [pc, #388]	; (10003210 <irq_add_shared_handler+0x1f8>)
1000308c:	f7ff ff10 	bl	10002eb0 <make_branch>
10003090:	8060      	strh	r0, [r4, #2]
10003092:	4b60      	ldr	r3, [pc, #384]	; (10003214 <irq_add_shared_handler+0x1fc>)
10003094:	80a3      	strh	r3, [r4, #4]
10003096:	23ff      	movs	r3, #255	; 0xff
10003098:	71a3      	strb	r3, [r4, #6]
1000309a:	71e7      	strb	r7, [r4, #7]
1000309c:	9b03      	ldr	r3, [sp, #12]
1000309e:	60a3      	str	r3, [r4, #8]
100030a0:	4455      	add	r5, sl
100030a2:	00ab      	lsls	r3, r5, #2
100030a4:	18f6      	adds	r6, r6, r3
100030a6:	cc0e      	ldmia	r4!, {r1, r2, r3}
100030a8:	c60e      	stmia	r6!, {r1, r2, r3}
100030aa:	2601      	movs	r6, #1
100030ac:	9b02      	ldr	r3, [sp, #8]
100030ae:	4333      	orrs	r3, r6
100030b0:	001e      	movs	r6, r3
100030b2:	465a      	mov	r2, fp
100030b4:	0031      	movs	r1, r6
100030b6:	9801      	ldr	r0, [sp, #4]
100030b8:	f7ff fee6 	bl	10002e88 <set_raw_irq_handler_and_unlock>
100030bc:	b009      	add	sp, #36	; 0x24
100030be:	bc3c      	pop	{r2, r3, r4, r5}
100030c0:	4690      	mov	r8, r2
100030c2:	4699      	mov	r9, r3
100030c4:	46a2      	mov	sl, r4
100030c6:	46ab      	mov	fp, r5
100030c8:	bdf0      	pop	{r4, r5, r6, r7, pc}
100030ca:	4b53      	ldr	r3, [pc, #332]	; (10003218 <irq_add_shared_handler+0x200>)
100030cc:	4a53      	ldr	r2, [pc, #332]	; (1000321c <irq_add_shared_handler+0x204>)
100030ce:	21cd      	movs	r1, #205	; 0xcd
100030d0:	4853      	ldr	r0, [pc, #332]	; (10003220 <irq_add_shared_handler+0x208>)
100030d2:	f001 fb5f 	bl	10004794 <__assert_func>
100030d6:	4b53      	ldr	r3, [pc, #332]	; (10003224 <irq_add_shared_handler+0x20c>)
100030d8:	4a50      	ldr	r2, [pc, #320]	; (1000321c <irq_add_shared_handler+0x204>)
100030da:	21d4      	movs	r1, #212	; 0xd4
100030dc:	4850      	ldr	r0, [pc, #320]	; (10003220 <irq_add_shared_handler+0x208>)
100030de:	f001 fb59 	bl	10004794 <__assert_func>
100030e2:	43c0      	mvns	r0, r0
100030e4:	1830      	adds	r0, r6, r0
100030e6:	210c      	movs	r1, #12
100030e8:	f002 ff0e 	bl	10005f08 <__wrap___aeabi_uidiv>
100030ec:	2900      	cmp	r1, #0
100030ee:	d112      	bne.n	10003116 <irq_add_shared_handler+0xfe>
100030f0:	2301      	movs	r3, #1
100030f2:	439c      	bics	r4, r3
100030f4:	46a2      	mov	sl, r4
100030f6:	0023      	movs	r3, r4
100030f8:	2400      	movs	r4, #0
100030fa:	79da      	ldrb	r2, [r3, #7]
100030fc:	42ba      	cmp	r2, r7
100030fe:	d911      	bls.n	10003124 <irq_add_shared_handler+0x10c>
10003100:	2106      	movs	r1, #6
10003102:	5659      	ldrsb	r1, [r3, r1]
10003104:	2900      	cmp	r1, #0
10003106:	db0c      	blt.n	10003122 <irq_add_shared_handler+0x10a>
10003108:	004a      	lsls	r2, r1, #1
1000310a:	1852      	adds	r2, r2, r1
1000310c:	0091      	lsls	r1, r2, #2
1000310e:	001c      	movs	r4, r3
10003110:	4b3b      	ldr	r3, [pc, #236]	; (10003200 <irq_add_shared_handler+0x1e8>)
10003112:	185b      	adds	r3, r3, r1
10003114:	e7f1      	b.n	100030fa <irq_add_shared_handler+0xe2>
10003116:	4b44      	ldr	r3, [pc, #272]	; (10003228 <irq_add_shared_handler+0x210>)
10003118:	4a40      	ldr	r2, [pc, #256]	; (1000321c <irq_add_shared_handler+0x204>)
1000311a:	21e0      	movs	r1, #224	; 0xe0
1000311c:	4840      	ldr	r0, [pc, #256]	; (10003220 <irq_add_shared_handler+0x208>)
1000311e:	f001 fb39 	bl	10004794 <__assert_func>
10003122:	001c      	movs	r4, r3
10003124:	2c00      	cmp	r4, #0
10003126:	d03b      	beq.n	100031a0 <irq_add_shared_handler+0x188>
10003128:	ab05      	add	r3, sp, #20
1000312a:	4a40      	ldr	r2, [pc, #256]	; (1000322c <irq_add_shared_handler+0x214>)
1000312c:	801a      	strh	r2, [r3, #0]
1000312e:	3a81      	subs	r2, #129	; 0x81
10003130:	805a      	strh	r2, [r3, #2]
10003132:	2306      	movs	r3, #6
10003134:	56e3      	ldrsb	r3, [r4, r3]
10003136:	4698      	mov	r8, r3
10003138:	2b00      	cmp	r3, #0
1000313a:	da18      	bge.n	1000316e <irq_add_shared_handler+0x156>
1000313c:	20bd      	movs	r0, #189	; 0xbd
1000313e:	0200      	lsls	r0, r0, #8
10003140:	ab05      	add	r3, sp, #20
10003142:	469a      	mov	sl, r3
10003144:	8098      	strh	r0, [r3, #4]
10003146:	4642      	mov	r2, r8
10003148:	719a      	strb	r2, [r3, #6]
1000314a:	71df      	strb	r7, [r3, #7]
1000314c:	9a03      	ldr	r2, [sp, #12]
1000314e:	9207      	str	r2, [sp, #28]
10003150:	1d20      	adds	r0, r4, #4
10003152:	9902      	ldr	r1, [sp, #8]
10003154:	f7ff feac 	bl	10002eb0 <make_branch>
10003158:	80a0      	strh	r0, [r4, #4]
1000315a:	71a5      	strb	r5, [r4, #6]
1000315c:	006b      	lsls	r3, r5, #1
1000315e:	195d      	adds	r5, r3, r5
10003160:	00aa      	lsls	r2, r5, #2
10003162:	4b27      	ldr	r3, [pc, #156]	; (10003200 <irq_add_shared_handler+0x1e8>)
10003164:	189b      	adds	r3, r3, r2
10003166:	4652      	mov	r2, sl
10003168:	ca13      	ldmia	r2!, {r0, r1, r4}
1000316a:	c313      	stmia	r3!, {r0, r1, r4}
1000316c:	e7a1      	b.n	100030b2 <irq_add_shared_handler+0x9a>
1000316e:	006b      	lsls	r3, r5, #1
10003170:	195b      	adds	r3, r3, r5
10003172:	0098      	lsls	r0, r3, #2
10003174:	4b22      	ldr	r3, [pc, #136]	; (10003200 <irq_add_shared_handler+0x1e8>)
10003176:	18c0      	adds	r0, r0, r3
10003178:	3004      	adds	r0, #4
1000317a:	1d22      	adds	r2, r4, #4
1000317c:	88a3      	ldrh	r3, [r4, #4]
1000317e:	0ad9      	lsrs	r1, r3, #11
10003180:	291c      	cmp	r1, #28
10003182:	d107      	bne.n	10003194 <irq_add_shared_handler+0x17c>
10003184:	0559      	lsls	r1, r3, #21
10003186:	1549      	asrs	r1, r1, #21
10003188:	3102      	adds	r1, #2
1000318a:	0049      	lsls	r1, r1, #1
1000318c:	1851      	adds	r1, r2, r1
1000318e:	f7ff fe8f 	bl	10002eb0 <make_branch>
10003192:	e7d5      	b.n	10003140 <irq_add_shared_handler+0x128>
10003194:	4b26      	ldr	r3, [pc, #152]	; (10003230 <irq_add_shared_handler+0x218>)
10003196:	4a27      	ldr	r2, [pc, #156]	; (10003234 <irq_add_shared_handler+0x21c>)
10003198:	21a7      	movs	r1, #167	; 0xa7
1000319a:	4821      	ldr	r0, [pc, #132]	; (10003220 <irq_add_shared_handler+0x208>)
1000319c:	f001 fafa 	bl	10004794 <__assert_func>
100031a0:	ac05      	add	r4, sp, #20
100031a2:	4b1a      	ldr	r3, [pc, #104]	; (1000320c <irq_add_shared_handler+0x1f4>)
100031a4:	8023      	strh	r3, [r4, #0]
100031a6:	006b      	lsls	r3, r5, #1
100031a8:	195b      	adds	r3, r3, r5
100031aa:	0098      	lsls	r0, r3, #2
100031ac:	4e14      	ldr	r6, [pc, #80]	; (10003200 <irq_add_shared_handler+0x1e8>)
100031ae:	4680      	mov	r8, r0
100031b0:	44b0      	add	r8, r6
100031b2:	4643      	mov	r3, r8
100031b4:	1c98      	adds	r0, r3, #2
100031b6:	4916      	ldr	r1, [pc, #88]	; (10003210 <irq_add_shared_handler+0x1f8>)
100031b8:	f7ff fe7a 	bl	10002eb0 <make_branch>
100031bc:	8060      	strh	r0, [r4, #2]
100031be:	4643      	mov	r3, r8
100031c0:	1d18      	adds	r0, r3, #4
100031c2:	4651      	mov	r1, sl
100031c4:	f7ff fe74 	bl	10002eb0 <make_branch>
100031c8:	80a0      	strh	r0, [r4, #4]
100031ca:	4b1b      	ldr	r3, [pc, #108]	; (10003238 <irq_add_shared_handler+0x220>)
100031cc:	4652      	mov	r2, sl
100031ce:	1b92      	subs	r2, r2, r6
100031d0:	4152      	adcs	r2, r2
100031d2:	4353      	muls	r3, r2
100031d4:	0d1b      	lsrs	r3, r3, #20
100031d6:	71a3      	strb	r3, [r4, #6]
100031d8:	71e7      	strb	r7, [r4, #7]
100031da:	9b03      	ldr	r3, [sp, #12]
100031dc:	60a3      	str	r3, [r4, #8]
100031de:	4646      	mov	r6, r8
100031e0:	cc0e      	ldmia	r4!, {r1, r2, r3}
100031e2:	c60e      	stmia	r6!, {r1, r2, r3}
100031e4:	4b11      	ldr	r3, [pc, #68]	; (1000322c <irq_add_shared_handler+0x214>)
100031e6:	4652      	mov	r2, sl
100031e8:	8013      	strh	r3, [r2, #0]
100031ea:	3b81      	subs	r3, #129	; 0x81
100031ec:	8053      	strh	r3, [r2, #2]
100031ee:	2601      	movs	r6, #1
100031f0:	9b02      	ldr	r3, [sp, #8]
100031f2:	4333      	orrs	r3, r6
100031f4:	001e      	movs	r6, r3
100031f6:	e75c      	b.n	100030b2 <irq_add_shared_handler+0x9a>
100031f8:	d0000124 	.word	0xd0000124
100031fc:	20008fdb 	.word	0x20008fdb
10003200:	2000840c 	.word	0x2000840c
10003204:	e000ed00 	.word	0xe000ed00
10003208:	100001cd 	.word	0x100001cd
1000320c:	ffffa100 	.word	0xffffa100
10003210:	2000843c 	.word	0x2000843c
10003214:	ffffbd00 	.word	0xffffbd00
10003218:	1000abf4 	.word	0x1000abf4
1000321c:	1000ab9c 	.word	0x1000ab9c
10003220:	1000ada0 	.word	0x1000ada0
10003224:	1000ac1c 	.word	0x1000ac1c
10003228:	1000ac44 	.word	0x1000ac44
1000322c:	00004801 	.word	0x00004801
10003230:	1000acb8 	.word	0x1000acb8
10003234:	1000ab8c 	.word	0x1000ab8c
10003238:	0000aaaa 	.word	0x0000aaaa

1000323c <irq_remove_handler>:
1000323c:	b5f0      	push	{r4, r5, r6, r7, lr}
1000323e:	46c6      	mov	lr, r8
10003240:	b500      	push	{lr}
10003242:	b084      	sub	sp, #16
10003244:	9001      	str	r0, [sp, #4]
10003246:	000d      	movs	r5, r1
10003248:	f3ef 8610 	mrs	r6, PRIMASK
1000324c:	b672      	cpsid	i
1000324e:	4b55      	ldr	r3, [pc, #340]	; (100033a4 <irq_remove_handler+0x168>)
10003250:	681b      	ldr	r3, [r3, #0]
10003252:	2b00      	cmp	r3, #0
10003254:	d0fb      	beq.n	1000324e <irq_remove_handler+0x12>
10003256:	f3bf 8f5f 	dmb	sy
1000325a:	4b53      	ldr	r3, [pc, #332]	; (100033a8 <irq_remove_handler+0x16c>)
1000325c:	689a      	ldr	r2, [r3, #8]
1000325e:	9c01      	ldr	r4, [sp, #4]
10003260:	3410      	adds	r4, #16
10003262:	00a3      	lsls	r3, r4, #2
10003264:	58d7      	ldr	r7, [r2, r3]
10003266:	4b51      	ldr	r3, [pc, #324]	; (100033ac <irq_remove_handler+0x170>)
10003268:	429f      	cmp	r7, r3
1000326a:	d007      	beq.n	1000327c <irq_remove_handler+0x40>
1000326c:	42af      	cmp	r7, r5
1000326e:	d100      	bne.n	10003272 <irq_remove_handler+0x36>
10003270:	e096      	b.n	100033a0 <irq_remove_handler+0x164>
10003272:	9702      	str	r7, [sp, #8]
10003274:	4b4e      	ldr	r3, [pc, #312]	; (100033b0 <irq_remove_handler+0x174>)
10003276:	1afb      	subs	r3, r7, r3
10003278:	2b2f      	cmp	r3, #47	; 0x2f
1000327a:	d908      	bls.n	1000328e <irq_remove_handler+0x52>
1000327c:	0032      	movs	r2, r6
1000327e:	0039      	movs	r1, r7
10003280:	9801      	ldr	r0, [sp, #4]
10003282:	f7ff fe01 	bl	10002e88 <set_raw_irq_handler_and_unlock>
10003286:	b004      	add	sp, #16
10003288:	bc04      	pop	{r2}
1000328a:	4690      	mov	r8, r2
1000328c:	bdf0      	pop	{r4, r5, r6, r7, pc}
1000328e:	9801      	ldr	r0, [sp, #4]
10003290:	f7ff fe52 	bl	10002f38 <irq_is_enabled>
10003294:	9003      	str	r0, [sp, #12]
10003296:	2100      	movs	r1, #0
10003298:	9801      	ldr	r0, [sp, #4]
1000329a:	f7ff fe69 	bl	10002f70 <irq_set_enabled>
1000329e:	f3bf 8f5f 	dmb	sy
100032a2:	f7fc ffe0 	bl	10000266 <__get_current_exception>
100032a6:	1e01      	subs	r1, r0, #0
100032a8:	d001      	beq.n	100032ae <irq_remove_handler+0x72>
100032aa:	4284      	cmp	r4, r0
100032ac:	d111      	bne.n	100032d2 <irq_remove_handler+0x96>
100032ae:	2301      	movs	r3, #1
100032b0:	9c02      	ldr	r4, [sp, #8]
100032b2:	439c      	bics	r4, r3
100032b4:	2000      	movs	r0, #0
100032b6:	68a3      	ldr	r3, [r4, #8]
100032b8:	42ab      	cmp	r3, r5
100032ba:	d012      	beq.n	100032e2 <irq_remove_handler+0xa6>
100032bc:	2206      	movs	r2, #6
100032be:	56a2      	ldrsb	r2, [r4, r2]
100032c0:	2a00      	cmp	r2, #0
100032c2:	db0d      	blt.n	100032e0 <irq_remove_handler+0xa4>
100032c4:	0053      	lsls	r3, r2, #1
100032c6:	189b      	adds	r3, r3, r2
100032c8:	009a      	lsls	r2, r3, #2
100032ca:	0020      	movs	r0, r4
100032cc:	4c38      	ldr	r4, [pc, #224]	; (100033b0 <irq_remove_handler+0x174>)
100032ce:	18a4      	adds	r4, r4, r2
100032d0:	e7f1      	b.n	100032b6 <irq_remove_handler+0x7a>
100032d2:	212c      	movs	r1, #44	; 0x2c
100032d4:	4b37      	ldr	r3, [pc, #220]	; (100033b4 <irq_remove_handler+0x178>)
100032d6:	4a38      	ldr	r2, [pc, #224]	; (100033b8 <irq_remove_handler+0x17c>)
100032d8:	31ff      	adds	r1, #255	; 0xff
100032da:	4838      	ldr	r0, [pc, #224]	; (100033bc <irq_remove_handler+0x180>)
100032dc:	f001 fa5a 	bl	10004794 <__assert_func>
100032e0:	0020      	movs	r0, r4
100032e2:	42ab      	cmp	r3, r5
100032e4:	d155      	bne.n	10003392 <irq_remove_handler+0x156>
100032e6:	2306      	movs	r3, #6
100032e8:	56e3      	ldrsb	r3, [r4, r3]
100032ea:	4698      	mov	r8, r3
100032ec:	2b00      	cmp	r3, #0
100032ee:	db36      	blt.n	1000335e <irq_remove_handler+0x122>
100032f0:	005a      	lsls	r2, r3, #1
100032f2:	4442      	add	r2, r8
100032f4:	0091      	lsls	r1, r2, #2
100032f6:	4b2e      	ldr	r3, [pc, #184]	; (100033b0 <irq_remove_handler+0x174>)
100032f8:	185b      	adds	r3, r3, r1
100032fa:	689a      	ldr	r2, [r3, #8]
100032fc:	60a2      	str	r2, [r4, #8]
100032fe:	79da      	ldrb	r2, [r3, #7]
10003300:	71e2      	strb	r2, [r4, #7]
10003302:	799b      	ldrb	r3, [r3, #6]
10003304:	b25b      	sxtb	r3, r3
10003306:	71a3      	strb	r3, [r4, #6]
10003308:	2b00      	cmp	r3, #0
1000330a:	da12      	bge.n	10003332 <irq_remove_handler+0xf6>
1000330c:	20bd      	movs	r0, #189	; 0xbd
1000330e:	0200      	lsls	r0, r0, #8
10003310:	80a0      	strh	r0, [r4, #4]
10003312:	4643      	mov	r3, r8
10003314:	005b      	lsls	r3, r3, #1
10003316:	4443      	add	r3, r8
10003318:	009a      	lsls	r2, r3, #2
1000331a:	4b25      	ldr	r3, [pc, #148]	; (100033b0 <irq_remove_handler+0x174>)
1000331c:	189b      	adds	r3, r3, r2
1000331e:	4a28      	ldr	r2, [pc, #160]	; (100033c0 <irq_remove_handler+0x184>)
10003320:	7811      	ldrb	r1, [r2, #0]
10003322:	7199      	strb	r1, [r3, #6]
10003324:	4643      	mov	r3, r8
10003326:	7013      	strb	r3, [r2, #0]
10003328:	9903      	ldr	r1, [sp, #12]
1000332a:	9801      	ldr	r0, [sp, #4]
1000332c:	f7ff fe20 	bl	10002f70 <irq_set_enabled>
10003330:	e7a4      	b.n	1000327c <irq_remove_handler+0x40>
10003332:	1d20      	adds	r0, r4, #4
10003334:	4a1e      	ldr	r2, [pc, #120]	; (100033b0 <irq_remove_handler+0x174>)
10003336:	188b      	adds	r3, r1, r2
10003338:	1d1a      	adds	r2, r3, #4
1000333a:	889b      	ldrh	r3, [r3, #4]
1000333c:	0ad9      	lsrs	r1, r3, #11
1000333e:	291c      	cmp	r1, #28
10003340:	d107      	bne.n	10003352 <irq_remove_handler+0x116>
10003342:	0559      	lsls	r1, r3, #21
10003344:	1549      	asrs	r1, r1, #21
10003346:	3102      	adds	r1, #2
10003348:	0049      	lsls	r1, r1, #1
1000334a:	1851      	adds	r1, r2, r1
1000334c:	f7ff fdb0 	bl	10002eb0 <make_branch>
10003350:	e7de      	b.n	10003310 <irq_remove_handler+0xd4>
10003352:	4b1c      	ldr	r3, [pc, #112]	; (100033c4 <irq_remove_handler+0x188>)
10003354:	4a1c      	ldr	r2, [pc, #112]	; (100033c8 <irq_remove_handler+0x18c>)
10003356:	21a7      	movs	r1, #167	; 0xa7
10003358:	4818      	ldr	r0, [pc, #96]	; (100033bc <irq_remove_handler+0x180>)
1000335a:	f001 fa1b 	bl	10004794 <__assert_func>
1000335e:	2900      	cmp	r1, #0
10003360:	d112      	bne.n	10003388 <irq_remove_handler+0x14c>
10003362:	2800      	cmp	r0, #0
10003364:	d00e      	beq.n	10003384 <irq_remove_handler+0x148>
10003366:	23ff      	movs	r3, #255	; 0xff
10003368:	7183      	strb	r3, [r0, #6]
1000336a:	4b18      	ldr	r3, [pc, #96]	; (100033cc <irq_remove_handler+0x190>)
1000336c:	8083      	strh	r3, [r0, #4]
1000336e:	4a14      	ldr	r2, [pc, #80]	; (100033c0 <irq_remove_handler+0x184>)
10003370:	7813      	ldrb	r3, [r2, #0]
10003372:	71a3      	strb	r3, [r4, #6]
10003374:	4b16      	ldr	r3, [pc, #88]	; (100033d0 <irq_remove_handler+0x194>)
10003376:	490e      	ldr	r1, [pc, #56]	; (100033b0 <irq_remove_handler+0x174>)
10003378:	1a64      	subs	r4, r4, r1
1000337a:	4164      	adcs	r4, r4
1000337c:	4363      	muls	r3, r4
1000337e:	0d1b      	lsrs	r3, r3, #20
10003380:	7013      	strb	r3, [r2, #0]
10003382:	e7d1      	b.n	10003328 <irq_remove_handler+0xec>
10003384:	4f09      	ldr	r7, [pc, #36]	; (100033ac <irq_remove_handler+0x170>)
10003386:	e7f2      	b.n	1000336e <irq_remove_handler+0x132>
10003388:	1d20      	adds	r0, r4, #4
1000338a:	4912      	ldr	r1, [pc, #72]	; (100033d4 <irq_remove_handler+0x198>)
1000338c:	f7ff fdb4 	bl	10002ef8 <insert_branch_and_link>
10003390:	e7ca      	b.n	10003328 <irq_remove_handler+0xec>
10003392:	2160      	movs	r1, #96	; 0x60
10003394:	4b10      	ldr	r3, [pc, #64]	; (100033d8 <irq_remove_handler+0x19c>)
10003396:	4a08      	ldr	r2, [pc, #32]	; (100033b8 <irq_remove_handler+0x17c>)
10003398:	31ff      	adds	r1, #255	; 0xff
1000339a:	4808      	ldr	r0, [pc, #32]	; (100033bc <irq_remove_handler+0x180>)
1000339c:	f001 f9fa 	bl	10004794 <__assert_func>
100033a0:	4f02      	ldr	r7, [pc, #8]	; (100033ac <irq_remove_handler+0x170>)
100033a2:	e76b      	b.n	1000327c <irq_remove_handler+0x40>
100033a4:	d0000124 	.word	0xd0000124
100033a8:	e000ed00 	.word	0xe000ed00
100033ac:	100001cd 	.word	0x100001cd
100033b0:	2000840c 	.word	0x2000840c
100033b4:	1000ad0c 	.word	0x1000ad0c
100033b8:	1000abb4 	.word	0x1000abb4
100033bc:	1000ada0 	.word	0x1000ada0
100033c0:	20008fdb 	.word	0x20008fdb
100033c4:	1000acb8 	.word	0x1000acb8
100033c8:	1000ab8c 	.word	0x1000ab8c
100033cc:	ffffbd00 	.word	0xffffbd00
100033d0:	0000aaaa 	.word	0x0000aaaa
100033d4:	20008446 	.word	0x20008446
100033d8:	1000ad30 	.word	0x1000ad30

100033dc <irq_add_tail_to_free_list>:
100033dc:	b5f8      	push	{r3, r4, r5, r6, r7, lr}
100033de:	0004      	movs	r4, r0
100033e0:	2601      	movs	r6, #1
100033e2:	4306      	orrs	r6, r0
100033e4:	4b2d      	ldr	r3, [pc, #180]	; (1000349c <irq_add_tail_to_free_list+0xc0>)
100033e6:	1af3      	subs	r3, r6, r3
100033e8:	2b2f      	cmp	r3, #47	; 0x2f
100033ea:	d828      	bhi.n	1000343e <irq_add_tail_to_free_list+0x62>
100033ec:	f7fc ff3b 	bl	10000266 <__get_current_exception>
100033f0:	2800      	cmp	r0, #0
100033f2:	d02b      	beq.n	1000344c <irq_add_tail_to_free_list+0x70>
100033f4:	f3ef 8710 	mrs	r7, PRIMASK
100033f8:	b672      	cpsid	i
100033fa:	4b29      	ldr	r3, [pc, #164]	; (100034a0 <irq_add_tail_to_free_list+0xc4>)
100033fc:	681b      	ldr	r3, [r3, #0]
100033fe:	2b00      	cmp	r3, #0
10003400:	d0fb      	beq.n	100033fa <irq_add_tail_to_free_list+0x1e>
10003402:	f3bf 8f5f 	dmb	sy
10003406:	4d27      	ldr	r5, [pc, #156]	; (100034a4 <irq_add_tail_to_free_list+0xc8>)
10003408:	0022      	movs	r2, r4
1000340a:	4924      	ldr	r1, [pc, #144]	; (1000349c <irq_add_tail_to_free_list+0xc0>)
1000340c:	1a52      	subs	r2, r2, r1
1000340e:	4152      	adcs	r2, r2
10003410:	4355      	muls	r5, r2
10003412:	0d2d      	lsrs	r5, r5, #20
10003414:	b26d      	sxtb	r5, r5
10003416:	4b24      	ldr	r3, [pc, #144]	; (100034a8 <irq_add_tail_to_free_list+0xcc>)
10003418:	689b      	ldr	r3, [r3, #8]
1000341a:	0080      	lsls	r0, r0, #2
1000341c:	581b      	ldr	r3, [r3, r0]
1000341e:	42b3      	cmp	r3, r6
10003420:	d01b      	beq.n	1000345a <irq_add_tail_to_free_list+0x7e>
10003422:	2300      	movs	r3, #0
10003424:	2b03      	cmp	r3, #3
10003426:	d832      	bhi.n	1000348e <irq_add_tail_to_free_list+0xb2>
10003428:	005a      	lsls	r2, r3, #1
1000342a:	18d2      	adds	r2, r2, r3
1000342c:	0091      	lsls	r1, r2, #2
1000342e:	4a1b      	ldr	r2, [pc, #108]	; (1000349c <irq_add_tail_to_free_list+0xc0>)
10003430:	1852      	adds	r2, r2, r1
10003432:	7992      	ldrb	r2, [r2, #6]
10003434:	b252      	sxtb	r2, r2
10003436:	42aa      	cmp	r2, r5
10003438:	d01f      	beq.n	1000347a <irq_add_tail_to_free_list+0x9e>
1000343a:	3301      	adds	r3, #1
1000343c:	e7f2      	b.n	10003424 <irq_add_tail_to_free_list+0x48>
1000343e:	21c2      	movs	r1, #194	; 0xc2
10003440:	4b1a      	ldr	r3, [pc, #104]	; (100034ac <irq_add_tail_to_free_list+0xd0>)
10003442:	4a1b      	ldr	r2, [pc, #108]	; (100034b0 <irq_add_tail_to_free_list+0xd4>)
10003444:	0049      	lsls	r1, r1, #1
10003446:	481b      	ldr	r0, [pc, #108]	; (100034b4 <irq_add_tail_to_free_list+0xd8>)
10003448:	f001 f9a4 	bl	10004794 <__assert_func>
1000344c:	2188      	movs	r1, #136	; 0x88
1000344e:	4b1a      	ldr	r3, [pc, #104]	; (100034b8 <irq_add_tail_to_free_list+0xdc>)
10003450:	4a17      	ldr	r2, [pc, #92]	; (100034b0 <irq_add_tail_to_free_list+0xd4>)
10003452:	31ff      	adds	r1, #255	; 0xff
10003454:	4817      	ldr	r0, [pc, #92]	; (100034b4 <irq_add_tail_to_free_list+0xd8>)
10003456:	f001 f99d 	bl	10004794 <__assert_func>
1000345a:	4b13      	ldr	r3, [pc, #76]	; (100034a8 <irq_add_tail_to_free_list+0xcc>)
1000345c:	689b      	ldr	r3, [r3, #8]
1000345e:	4a17      	ldr	r2, [pc, #92]	; (100034bc <irq_add_tail_to_free_list+0xe0>)
10003460:	501a      	str	r2, [r3, r0]
10003462:	4b17      	ldr	r3, [pc, #92]	; (100034c0 <irq_add_tail_to_free_list+0xe4>)
10003464:	781a      	ldrb	r2, [r3, #0]
10003466:	71a2      	strb	r2, [r4, #6]
10003468:	701d      	strb	r5, [r3, #0]
1000346a:	f3bf 8f5f 	dmb	sy
1000346e:	4b0c      	ldr	r3, [pc, #48]	; (100034a0 <irq_add_tail_to_free_list+0xc4>)
10003470:	2200      	movs	r2, #0
10003472:	601a      	str	r2, [r3, #0]
10003474:	f387 8810 	msr	PRIMASK, r7
10003478:	bdf8      	pop	{r3, r4, r5, r6, r7, pc}
1000347a:	4908      	ldr	r1, [pc, #32]	; (1000349c <irq_add_tail_to_free_list+0xc0>)
1000347c:	005a      	lsls	r2, r3, #1
1000347e:	18d6      	adds	r6, r2, r3
10003480:	00b0      	lsls	r0, r6, #2
10003482:	1808      	adds	r0, r1, r0
10003484:	26ff      	movs	r6, #255	; 0xff
10003486:	7186      	strb	r6, [r0, #6]
10003488:	4b0e      	ldr	r3, [pc, #56]	; (100034c4 <irq_add_tail_to_free_list+0xe8>)
1000348a:	8083      	strh	r3, [r0, #4]
1000348c:	e7e9      	b.n	10003462 <irq_add_tail_to_free_list+0x86>
1000348e:	21cc      	movs	r1, #204	; 0xcc
10003490:	4b0d      	ldr	r3, [pc, #52]	; (100034c8 <irq_add_tail_to_free_list+0xec>)
10003492:	4a07      	ldr	r2, [pc, #28]	; (100034b0 <irq_add_tail_to_free_list+0xd4>)
10003494:	0049      	lsls	r1, r1, #1
10003496:	4807      	ldr	r0, [pc, #28]	; (100034b4 <irq_add_tail_to_free_list+0xd8>)
10003498:	f001 f97c 	bl	10004794 <__assert_func>
1000349c:	2000840c 	.word	0x2000840c
100034a0:	d0000124 	.word	0xd0000124
100034a4:	0000aaaa 	.word	0x0000aaaa
100034a8:	e000ed00 	.word	0xe000ed00
100034ac:	1000acd0 	.word	0x1000acd0
100034b0:	1000abc8 	.word	0x1000abc8
100034b4:	1000ada0 	.word	0x1000ada0
100034b8:	1000acf8 	.word	0x1000acf8
100034bc:	100001cd 	.word	0x100001cd
100034c0:	20008fdb 	.word	0x20008fdb
100034c4:	ffffbd00 	.word	0xffffbd00
100034c8:	1000ad04 	.word	0x1000ad04

100034cc <irq_init_priorities>:
100034cc:	2200      	movs	r2, #0
100034ce:	4b04      	ldr	r3, [pc, #16]	; (100034e0 <irq_init_priorities+0x14>)
100034d0:	e002      	b.n	100034d8 <irq_init_priorities+0xc>
100034d2:	4904      	ldr	r1, [pc, #16]	; (100034e4 <irq_init_priorities+0x18>)
100034d4:	c302      	stmia	r3!, {r1}
100034d6:	3201      	adds	r2, #1
100034d8:	2a07      	cmp	r2, #7
100034da:	d9fa      	bls.n	100034d2 <irq_init_priorities+0x6>
100034dc:	4770      	bx	lr
100034de:	46c0      	nop			; (mov r8, r8)
100034e0:	e000e400 	.word	0xe000e400
100034e4:	80808080 	.word	0x80808080

100034e8 <user_irq_claim_unused>:
100034e8:	b500      	push	{lr}
100034ea:	b083      	sub	sp, #12
100034ec:	0001      	movs	r1, r0
100034ee:	23d0      	movs	r3, #208	; 0xd0
100034f0:	061b      	lsls	r3, r3, #24
100034f2:	6818      	ldr	r0, [r3, #0]
100034f4:	4b06      	ldr	r3, [pc, #24]	; (10003510 <user_irq_claim_unused+0x28>)
100034f6:	1818      	adds	r0, r3, r0
100034f8:	4b06      	ldr	r3, [pc, #24]	; (10003514 <user_irq_claim_unused+0x2c>)
100034fa:	9300      	str	r3, [sp, #0]
100034fc:	2305      	movs	r3, #5
100034fe:	2200      	movs	r2, #0
10003500:	f7ff fc61 	bl	10002dc6 <hw_claim_unused_from_range>
10003504:	2800      	cmp	r0, #0
10003506:	db01      	blt.n	1000350c <user_irq_claim_unused+0x24>
10003508:	231f      	movs	r3, #31
1000350a:	1a18      	subs	r0, r3, r0
1000350c:	b003      	add	sp, #12
1000350e:	bd00      	pop	{pc}
10003510:	20008fd4 	.word	0x20008fd4
10003514:	1000ade4 	.word	0x1000ade4

10003518 <lock_init>:
10003518:	4b02      	ldr	r3, [pc, #8]	; (10003524 <lock_init+0xc>)
1000351a:	469c      	mov	ip, r3
1000351c:	4461      	add	r1, ip
1000351e:	0089      	lsls	r1, r1, #2
10003520:	6001      	str	r1, [r0, #0]
10003522:	4770      	bx	lr
10003524:	34000040 	.word	0x34000040

10003528 <sleep_until_callback>:
10003528:	4b0a      	ldr	r3, [pc, #40]	; (10003554 <sleep_until_callback+0x2c>)
1000352a:	681a      	ldr	r2, [r3, #0]
1000352c:	f3ef 8110 	mrs	r1, PRIMASK
10003530:	b672      	cpsid	i
10003532:	6813      	ldr	r3, [r2, #0]
10003534:	2b00      	cmp	r3, #0
10003536:	d0fc      	beq.n	10003532 <sleep_until_callback+0xa>
10003538:	f3bf 8f5f 	dmb	sy
1000353c:	4b05      	ldr	r3, [pc, #20]	; (10003554 <sleep_until_callback+0x2c>)
1000353e:	681b      	ldr	r3, [r3, #0]
10003540:	f3bf 8f5f 	dmb	sy
10003544:	2200      	movs	r2, #0
10003546:	601a      	str	r2, [r3, #0]
10003548:	f381 8810 	msr	PRIMASK, r1
1000354c:	bf40      	sev
1000354e:	2000      	movs	r0, #0
10003550:	2100      	movs	r1, #0
10003552:	4770      	bx	lr
10003554:	20008fa4 	.word	0x20008fa4

10003558 <alarm_pool_post_alloc_init>:
10003558:	b570      	push	{r4, r5, r6, lr}
1000355a:	0005      	movs	r5, r0
1000355c:	000c      	movs	r4, r1
1000355e:	0008      	movs	r0, r1
10003560:	f000 fda6 	bl	100040b0 <hardware_alarm_claim>
10003564:	0020      	movs	r0, r4
10003566:	f000 fead 	bl	100042c4 <hardware_alarm_cancel>
1000356a:	4908      	ldr	r1, [pc, #32]	; (1000358c <alarm_pool_post_alloc_init+0x34>)
1000356c:	0020      	movs	r0, r4
1000356e:	f000 fded 	bl	1000414c <hardware_alarm_set_callback>
10003572:	f7ff fc6b 	bl	10002e4c <next_striped_spin_lock_num>
10003576:	4b06      	ldr	r3, [pc, #24]	; (10003590 <alarm_pool_post_alloc_init+0x38>)
10003578:	469c      	mov	ip, r3
1000357a:	4460      	add	r0, ip
1000357c:	0080      	lsls	r0, r0, #2
1000357e:	6068      	str	r0, [r5, #4]
10003580:	752c      	strb	r4, [r5, #20]
10003582:	00a4      	lsls	r4, r4, #2
10003584:	4b03      	ldr	r3, [pc, #12]	; (10003594 <alarm_pool_post_alloc_init+0x3c>)
10003586:	50e5      	str	r5, [r4, r3]
10003588:	bd70      	pop	{r4, r5, r6, pc}
1000358a:	46c0      	nop			; (mov r8, r8)
1000358c:	10003879 	.word	0x10003879
10003590:	34000040 	.word	0x34000040
10003594:	20008f88 	.word	0x20008f88

10003598 <timer_pool_entry_comparator>:
10003598:	b510      	push	{r4, lr}
1000359a:	2900      	cmp	r1, #0
1000359c:	d022      	beq.n	100035e4 <timer_pool_entry_comparator+0x4c>
1000359e:	6803      	ldr	r3, [r0, #0]
100035a0:	7b1b      	ldrb	r3, [r3, #12]
100035a2:	4299      	cmp	r1, r3
100035a4:	d81e      	bhi.n	100035e4 <timer_pool_entry_comparator+0x4c>
100035a6:	4b17      	ldr	r3, [pc, #92]	; (10003604 <timer_pool_entry_comparator+0x6c>)
100035a8:	469c      	mov	ip, r3
100035aa:	4461      	add	r1, ip
100035ac:	0109      	lsls	r1, r1, #4
100035ae:	6883      	ldr	r3, [r0, #8]
100035b0:	469c      	mov	ip, r3
100035b2:	4461      	add	r1, ip
100035b4:	680c      	ldr	r4, [r1, #0]
100035b6:	6849      	ldr	r1, [r1, #4]
100035b8:	2a00      	cmp	r2, #0
100035ba:	d019      	beq.n	100035f0 <timer_pool_entry_comparator+0x58>
100035bc:	6803      	ldr	r3, [r0, #0]
100035be:	7b1b      	ldrb	r3, [r3, #12]
100035c0:	429a      	cmp	r2, r3
100035c2:	d815      	bhi.n	100035f0 <timer_pool_entry_comparator+0x58>
100035c4:	6883      	ldr	r3, [r0, #8]
100035c6:	480f      	ldr	r0, [pc, #60]	; (10003604 <timer_pool_entry_comparator+0x6c>)
100035c8:	4684      	mov	ip, r0
100035ca:	4462      	add	r2, ip
100035cc:	0112      	lsls	r2, r2, #4
100035ce:	189a      	adds	r2, r3, r2
100035d0:	6810      	ldr	r0, [r2, #0]
100035d2:	6853      	ldr	r3, [r2, #4]
100035d4:	0002      	movs	r2, r0
100035d6:	2001      	movs	r0, #1
100035d8:	428b      	cmp	r3, r1
100035da:	d801      	bhi.n	100035e0 <timer_pool_entry_comparator+0x48>
100035dc:	d00e      	beq.n	100035fc <timer_pool_entry_comparator+0x64>
100035de:	2000      	movs	r0, #0
100035e0:	b2c0      	uxtb	r0, r0
100035e2:	bd10      	pop	{r4, pc}
100035e4:	4b08      	ldr	r3, [pc, #32]	; (10003608 <timer_pool_entry_comparator+0x70>)
100035e6:	4a09      	ldr	r2, [pc, #36]	; (1000360c <timer_pool_entry_comparator+0x74>)
100035e8:	213b      	movs	r1, #59	; 0x3b
100035ea:	4809      	ldr	r0, [pc, #36]	; (10003610 <timer_pool_entry_comparator+0x78>)
100035ec:	f001 f8d2 	bl	10004794 <__assert_func>
100035f0:	4b05      	ldr	r3, [pc, #20]	; (10003608 <timer_pool_entry_comparator+0x70>)
100035f2:	4a06      	ldr	r2, [pc, #24]	; (1000360c <timer_pool_entry_comparator+0x74>)
100035f4:	213b      	movs	r1, #59	; 0x3b
100035f6:	4806      	ldr	r0, [pc, #24]	; (10003610 <timer_pool_entry_comparator+0x78>)
100035f8:	f001 f8cc 	bl	10004794 <__assert_func>
100035fc:	42a2      	cmp	r2, r4
100035fe:	d8ef      	bhi.n	100035e0 <timer_pool_entry_comparator+0x48>
10003600:	e7ed      	b.n	100035de <timer_pool_entry_comparator+0x46>
10003602:	46c0      	nop			; (mov r8, r8)
10003604:	0fffffff 	.word	0x0fffffff
10003608:	1000afb0 	.word	0x1000afb0
1000360c:	1000ae58 	.word	0x1000ae58
10003610:	1000b0b8 	.word	0x1000b0b8

10003614 <ph_add_child_node>:
10003614:	b510      	push	{r4, lr}
10003616:	2900      	cmp	r1, #0
10003618:	d01e      	beq.n	10003658 <ph_add_child_node+0x44>
1000361a:	7b03      	ldrb	r3, [r0, #12]
1000361c:	4299      	cmp	r1, r3
1000361e:	d81b      	bhi.n	10003658 <ph_add_child_node+0x44>
10003620:	004b      	lsls	r3, r1, #1
10003622:	185b      	adds	r3, r3, r1
10003624:	3b03      	subs	r3, #3
10003626:	6804      	ldr	r4, [r0, #0]
10003628:	46a4      	mov	ip, r4
1000362a:	4463      	add	r3, ip
1000362c:	2900      	cmp	r1, #0
1000362e:	d019      	beq.n	10003664 <ph_add_child_node+0x50>
10003630:	2a00      	cmp	r2, #0
10003632:	d01d      	beq.n	10003670 <ph_add_child_node+0x5c>
10003634:	4291      	cmp	r1, r2
10003636:	d021      	beq.n	1000367c <ph_add_child_node+0x68>
10003638:	2a00      	cmp	r2, #0
1000363a:	d025      	beq.n	10003688 <ph_add_child_node+0x74>
1000363c:	7b04      	ldrb	r4, [r0, #12]
1000363e:	42a2      	cmp	r2, r4
10003640:	d822      	bhi.n	10003688 <ph_add_child_node+0x74>
10003642:	6804      	ldr	r4, [r0, #0]
10003644:	0050      	lsls	r0, r2, #1
10003646:	1880      	adds	r0, r0, r2
10003648:	3803      	subs	r0, #3
1000364a:	1820      	adds	r0, r4, r0
1000364c:	7081      	strb	r1, [r0, #2]
1000364e:	7819      	ldrb	r1, [r3, #0]
10003650:	2900      	cmp	r1, #0
10003652:	d11f      	bne.n	10003694 <ph_add_child_node+0x80>
10003654:	701a      	strb	r2, [r3, #0]
10003656:	bd10      	pop	{r4, pc}
10003658:	4b10      	ldr	r3, [pc, #64]	; (1000369c <ph_add_child_node+0x88>)
1000365a:	4a11      	ldr	r2, [pc, #68]	; (100036a0 <ph_add_child_node+0x8c>)
1000365c:	2168      	movs	r1, #104	; 0x68
1000365e:	4811      	ldr	r0, [pc, #68]	; (100036a4 <ph_add_child_node+0x90>)
10003660:	f001 f898 	bl	10004794 <__assert_func>
10003664:	4b10      	ldr	r3, [pc, #64]	; (100036a8 <ph_add_child_node+0x94>)
10003666:	4a11      	ldr	r2, [pc, #68]	; (100036ac <ph_add_child_node+0x98>)
10003668:	316f      	adds	r1, #111	; 0x6f
1000366a:	480e      	ldr	r0, [pc, #56]	; (100036a4 <ph_add_child_node+0x90>)
1000366c:	f001 f892 	bl	10004794 <__assert_func>
10003670:	4b0f      	ldr	r3, [pc, #60]	; (100036b0 <ph_add_child_node+0x9c>)
10003672:	4a0e      	ldr	r2, [pc, #56]	; (100036ac <ph_add_child_node+0x98>)
10003674:	2170      	movs	r1, #112	; 0x70
10003676:	480b      	ldr	r0, [pc, #44]	; (100036a4 <ph_add_child_node+0x90>)
10003678:	f001 f88c 	bl	10004794 <__assert_func>
1000367c:	4b0d      	ldr	r3, [pc, #52]	; (100036b4 <ph_add_child_node+0xa0>)
1000367e:	4a0b      	ldr	r2, [pc, #44]	; (100036ac <ph_add_child_node+0x98>)
10003680:	2171      	movs	r1, #113	; 0x71
10003682:	4808      	ldr	r0, [pc, #32]	; (100036a4 <ph_add_child_node+0x90>)
10003684:	f001 f886 	bl	10004794 <__assert_func>
10003688:	4b04      	ldr	r3, [pc, #16]	; (1000369c <ph_add_child_node+0x88>)
1000368a:	4a05      	ldr	r2, [pc, #20]	; (100036a0 <ph_add_child_node+0x8c>)
1000368c:	2168      	movs	r1, #104	; 0x68
1000368e:	4805      	ldr	r0, [pc, #20]	; (100036a4 <ph_add_child_node+0x90>)
10003690:	f001 f880 	bl	10004794 <__assert_func>
10003694:	7041      	strb	r1, [r0, #1]
10003696:	701a      	strb	r2, [r3, #0]
10003698:	e7dd      	b.n	10003656 <ph_add_child_node+0x42>
1000369a:	46c0      	nop			; (mov r8, r8)
1000369c:	1000b008 	.word	0x1000b008
100036a0:	1000ae18 	.word	0x1000ae18
100036a4:	1000b024 	.word	0x1000b024
100036a8:	1000b074 	.word	0x1000b074
100036ac:	1000ae24 	.word	0x1000ae24
100036b0:	1000b080 	.word	0x1000b080
100036b4:	1000b08c 	.word	0x1000b08c

100036b8 <ph_merge_nodes>:
100036b8:	b570      	push	{r4, r5, r6, lr}
100036ba:	0006      	movs	r6, r0
100036bc:	000d      	movs	r5, r1
100036be:	0014      	movs	r4, r2
100036c0:	2900      	cmp	r1, #0
100036c2:	d014      	beq.n	100036ee <ph_merge_nodes+0x36>
100036c4:	2a00      	cmp	r2, #0
100036c6:	d014      	beq.n	100036f2 <ph_merge_nodes+0x3a>
100036c8:	6880      	ldr	r0, [r0, #8]
100036ca:	6873      	ldr	r3, [r6, #4]
100036cc:	4798      	blx	r3
100036ce:	2800      	cmp	r0, #0
100036d0:	d006      	beq.n	100036e0 <ph_merge_nodes+0x28>
100036d2:	0022      	movs	r2, r4
100036d4:	0029      	movs	r1, r5
100036d6:	0030      	movs	r0, r6
100036d8:	f7ff ff9c 	bl	10003614 <ph_add_child_node>
100036dc:	0028      	movs	r0, r5
100036de:	e007      	b.n	100036f0 <ph_merge_nodes+0x38>
100036e0:	002a      	movs	r2, r5
100036e2:	0021      	movs	r1, r4
100036e4:	0030      	movs	r0, r6
100036e6:	f7ff ff95 	bl	10003614 <ph_add_child_node>
100036ea:	0020      	movs	r0, r4
100036ec:	e000      	b.n	100036f0 <ph_merge_nodes+0x38>
100036ee:	0010      	movs	r0, r2
100036f0:	bd70      	pop	{r4, r5, r6, pc}
100036f2:	0008      	movs	r0, r1
100036f4:	e7fc      	b.n	100036f0 <ph_merge_nodes+0x38>
	...

100036f8 <add_alarm_under_lock>:
100036f8:	b570      	push	{r4, r5, r6, lr}
100036fa:	46ce      	mov	lr, r9
100036fc:	b500      	push	{lr}
100036fe:	b083      	sub	sp, #12
10003700:	0005      	movs	r5, r0
10003702:	9200      	str	r2, [sp, #0]
10003704:	9301      	str	r3, [sp, #4]
10003706:	ab0a      	add	r3, sp, #40	; 0x28
10003708:	781c      	ldrb	r4, [r3, #0]
1000370a:	ab0b      	add	r3, sp, #44	; 0x2c
1000370c:	781b      	ldrb	r3, [r3, #0]
1000370e:	4699      	mov	r9, r3
10003710:	2c00      	cmp	r4, #0
10003712:	d028      	beq.n	10003766 <add_alarm_under_lock+0x6e>
10003714:	6803      	ldr	r3, [r0, #0]
10003716:	7b5a      	ldrb	r2, [r3, #13]
10003718:	4294      	cmp	r4, r2
1000371a:	d109      	bne.n	10003730 <add_alarm_under_lock+0x38>
1000371c:	2301      	movs	r3, #1
1000371e:	2b00      	cmp	r3, #0
10003720:	d11b      	bne.n	1000375a <add_alarm_under_lock+0x62>
10003722:	2c00      	cmp	r4, #0
10003724:	d13d      	bne.n	100037a2 <add_alarm_under_lock+0xaa>
10003726:	0020      	movs	r0, r4
10003728:	b003      	add	sp, #12
1000372a:	bc04      	pop	{r2}
1000372c:	4691      	mov	r9, r2
1000372e:	bd70      	pop	{r4, r5, r6, pc}
10003730:	2c00      	cmp	r4, #0
10003732:	d00c      	beq.n	1000374e <add_alarm_under_lock+0x56>
10003734:	7b1a      	ldrb	r2, [r3, #12]
10003736:	4294      	cmp	r4, r2
10003738:	d809      	bhi.n	1000374e <add_alarm_under_lock+0x56>
1000373a:	681a      	ldr	r2, [r3, #0]
1000373c:	0063      	lsls	r3, r4, #1
1000373e:	191b      	adds	r3, r3, r4
10003740:	3b03      	subs	r3, #3
10003742:	18d3      	adds	r3, r2, r3
10003744:	789b      	ldrb	r3, [r3, #2]
10003746:	2b00      	cmp	r3, #0
10003748:	d0e9      	beq.n	1000371e <add_alarm_under_lock+0x26>
1000374a:	2301      	movs	r3, #1
1000374c:	e7e7      	b.n	1000371e <add_alarm_under_lock+0x26>
1000374e:	4b3f      	ldr	r3, [pc, #252]	; (1000384c <add_alarm_under_lock+0x154>)
10003750:	4a3f      	ldr	r2, [pc, #252]	; (10003850 <add_alarm_under_lock+0x158>)
10003752:	2168      	movs	r1, #104	; 0x68
10003754:	483f      	ldr	r0, [pc, #252]	; (10003854 <add_alarm_under_lock+0x15c>)
10003756:	f001 f81d 	bl	10004794 <__assert_func>
1000375a:	4b3f      	ldr	r3, [pc, #252]	; (10003858 <add_alarm_under_lock+0x160>)
1000375c:	4a3f      	ldr	r2, [pc, #252]	; (1000385c <add_alarm_under_lock+0x164>)
1000375e:	2165      	movs	r1, #101	; 0x65
10003760:	483f      	ldr	r0, [pc, #252]	; (10003860 <add_alarm_under_lock+0x168>)
10003762:	f001 f817 	bl	10004794 <__assert_func>
10003766:	6803      	ldr	r3, [r0, #0]
10003768:	7b9c      	ldrb	r4, [r3, #14]
1000376a:	2c00      	cmp	r4, #0
1000376c:	d0d9      	beq.n	10003722 <add_alarm_under_lock+0x2a>
1000376e:	d012      	beq.n	10003796 <add_alarm_under_lock+0x9e>
10003770:	7b1a      	ldrb	r2, [r3, #12]
10003772:	4294      	cmp	r4, r2
10003774:	d80f      	bhi.n	10003796 <add_alarm_under_lock+0x9e>
10003776:	0062      	lsls	r2, r4, #1
10003778:	1912      	adds	r2, r2, r4
1000377a:	3a03      	subs	r2, #3
1000377c:	6819      	ldr	r1, [r3, #0]
1000377e:	468c      	mov	ip, r1
10003780:	4462      	add	r2, ip
10003782:	7851      	ldrb	r1, [r2, #1]
10003784:	7399      	strb	r1, [r3, #14]
10003786:	2900      	cmp	r1, #0
10003788:	d100      	bne.n	1000378c <add_alarm_under_lock+0x94>
1000378a:	73d9      	strb	r1, [r3, #15]
1000378c:	2300      	movs	r3, #0
1000378e:	7093      	strb	r3, [r2, #2]
10003790:	7053      	strb	r3, [r2, #1]
10003792:	7013      	strb	r3, [r2, #0]
10003794:	e7c5      	b.n	10003722 <add_alarm_under_lock+0x2a>
10003796:	4b2d      	ldr	r3, [pc, #180]	; (1000384c <add_alarm_under_lock+0x154>)
10003798:	4a2d      	ldr	r2, [pc, #180]	; (10003850 <add_alarm_under_lock+0x158>)
1000379a:	2168      	movs	r1, #104	; 0x68
1000379c:	482d      	ldr	r0, [pc, #180]	; (10003854 <add_alarm_under_lock+0x15c>)
1000379e:	f000 fff9 	bl	10004794 <__assert_func>
100037a2:	2c00      	cmp	r4, #0
100037a4:	d03b      	beq.n	1000381e <add_alarm_under_lock+0x126>
100037a6:	682b      	ldr	r3, [r5, #0]
100037a8:	7b1b      	ldrb	r3, [r3, #12]
100037aa:	429c      	cmp	r4, r3
100037ac:	d837      	bhi.n	1000381e <add_alarm_under_lock+0x126>
100037ae:	4b2d      	ldr	r3, [pc, #180]	; (10003864 <add_alarm_under_lock+0x16c>)
100037b0:	18e3      	adds	r3, r4, r3
100037b2:	011b      	lsls	r3, r3, #4
100037b4:	68aa      	ldr	r2, [r5, #8]
100037b6:	4694      	mov	ip, r2
100037b8:	4463      	add	r3, ip
100037ba:	9900      	ldr	r1, [sp, #0]
100037bc:	9a01      	ldr	r2, [sp, #4]
100037be:	6019      	str	r1, [r3, #0]
100037c0:	605a      	str	r2, [r3, #4]
100037c2:	9a08      	ldr	r2, [sp, #32]
100037c4:	609a      	str	r2, [r3, #8]
100037c6:	9a09      	ldr	r2, [sp, #36]	; 0x24
100037c8:	60da      	str	r2, [r3, #12]
100037ca:	682e      	ldr	r6, [r5, #0]
100037cc:	2c00      	cmp	r4, #0
100037ce:	d02c      	beq.n	1000382a <add_alarm_under_lock+0x132>
100037d0:	d031      	beq.n	10003836 <add_alarm_under_lock+0x13e>
100037d2:	7b33      	ldrb	r3, [r6, #12]
100037d4:	429c      	cmp	r4, r3
100037d6:	d82e      	bhi.n	10003836 <add_alarm_under_lock+0x13e>
100037d8:	0063      	lsls	r3, r4, #1
100037da:	191b      	adds	r3, r3, r4
100037dc:	3b03      	subs	r3, #3
100037de:	6832      	ldr	r2, [r6, #0]
100037e0:	4694      	mov	ip, r2
100037e2:	4463      	add	r3, ip
100037e4:	2200      	movs	r2, #0
100037e6:	709a      	strb	r2, [r3, #2]
100037e8:	705a      	strb	r2, [r3, #1]
100037ea:	701a      	strb	r2, [r3, #0]
100037ec:	7b71      	ldrb	r1, [r6, #13]
100037ee:	0022      	movs	r2, r4
100037f0:	0030      	movs	r0, r6
100037f2:	f7ff ff61 	bl	100036b8 <ph_merge_nodes>
100037f6:	7370      	strb	r0, [r6, #13]
100037f8:	4284      	cmp	r4, r0
100037fa:	d000      	beq.n	100037fe <add_alarm_under_lock+0x106>
100037fc:	e793      	b.n	10003726 <add_alarm_under_lock+0x2e>
100037fe:	7d28      	ldrb	r0, [r5, #20]
10003800:	9a00      	ldr	r2, [sp, #0]
10003802:	9b01      	ldr	r3, [sp, #4]
10003804:	f000 fcea 	bl	100041dc <hardware_alarm_set_target>
10003808:	1e06      	subs	r6, r0, #0
1000380a:	d002      	beq.n	10003812 <add_alarm_under_lock+0x11a>
1000380c:	464b      	mov	r3, r9
1000380e:	2b00      	cmp	r3, #0
10003810:	d017      	beq.n	10003842 <add_alarm_under_lock+0x14a>
10003812:	9b0c      	ldr	r3, [sp, #48]	; 0x30
10003814:	2b00      	cmp	r3, #0
10003816:	d100      	bne.n	1000381a <add_alarm_under_lock+0x122>
10003818:	e785      	b.n	10003726 <add_alarm_under_lock+0x2e>
1000381a:	701e      	strb	r6, [r3, #0]
1000381c:	e783      	b.n	10003726 <add_alarm_under_lock+0x2e>
1000381e:	4b12      	ldr	r3, [pc, #72]	; (10003868 <add_alarm_under_lock+0x170>)
10003820:	4a12      	ldr	r2, [pc, #72]	; (1000386c <add_alarm_under_lock+0x174>)
10003822:	213b      	movs	r1, #59	; 0x3b
10003824:	480e      	ldr	r0, [pc, #56]	; (10003860 <add_alarm_under_lock+0x168>)
10003826:	f000 ffb5 	bl	10004794 <__assert_func>
1000382a:	4b11      	ldr	r3, [pc, #68]	; (10003870 <add_alarm_under_lock+0x178>)
1000382c:	4a11      	ldr	r2, [pc, #68]	; (10003874 <add_alarm_under_lock+0x17c>)
1000382e:	21a5      	movs	r1, #165	; 0xa5
10003830:	4808      	ldr	r0, [pc, #32]	; (10003854 <add_alarm_under_lock+0x15c>)
10003832:	f000 ffaf 	bl	10004794 <__assert_func>
10003836:	4b05      	ldr	r3, [pc, #20]	; (1000384c <add_alarm_under_lock+0x154>)
10003838:	4a05      	ldr	r2, [pc, #20]	; (10003850 <add_alarm_under_lock+0x158>)
1000383a:	2168      	movs	r1, #104	; 0x68
1000383c:	4805      	ldr	r0, [pc, #20]	; (10003854 <add_alarm_under_lock+0x15c>)
1000383e:	f000 ffa9 	bl	10004794 <__assert_func>
10003842:	6828      	ldr	r0, [r5, #0]
10003844:	0021      	movs	r1, r4
10003846:	f000 fef3 	bl	10004630 <ph_remove_and_free_node>
1000384a:	e7e2      	b.n	10003812 <add_alarm_under_lock+0x11a>
1000384c:	1000b008 	.word	0x1000b008
10003850:	1000ae18 	.word	0x1000ae18
10003854:	1000b024 	.word	0x1000b024
10003858:	1000aedc 	.word	0x1000aedc
1000385c:	1000ae90 	.word	0x1000ae90
10003860:	1000b0b8 	.word	0x1000b0b8
10003864:	0fffffff 	.word	0x0fffffff
10003868:	1000afb0 	.word	0x1000afb0
1000386c:	1000ae58 	.word	0x1000ae58
10003870:	1000b0b4 	.word	0x1000b0b4
10003874:	1000ae38 	.word	0x1000ae38

10003878 <alarm_pool_alarm_callback>:
10003878:	b5f0      	push	{r4, r5, r6, r7, lr}
1000387a:	46de      	mov	lr, fp
1000387c:	4657      	mov	r7, sl
1000387e:	464e      	mov	r6, r9
10003880:	4645      	mov	r5, r8
10003882:	b5e0      	push	{r5, r6, r7, lr}
10003884:	b08b      	sub	sp, #44	; 0x2c
10003886:	9009      	str	r0, [sp, #36]	; 0x24
10003888:	2300      	movs	r3, #0
1000388a:	9308      	str	r3, [sp, #32]
1000388c:	0082      	lsls	r2, r0, #2
1000388e:	4bb2      	ldr	r3, [pc, #712]	; (10003b58 <alarm_pool_alarm_callback+0x2e0>)
10003890:	58d7      	ldr	r7, [r2, r3]
10003892:	003d      	movs	r5, r7
10003894:	e052      	b.n	1000393c <alarm_pool_alarm_callback+0xc4>
10003896:	4bb1      	ldr	r3, [pc, #708]	; (10003b5c <alarm_pool_alarm_callback+0x2e4>)
10003898:	4ab1      	ldr	r2, [pc, #708]	; (10003b60 <alarm_pool_alarm_callback+0x2e8>)
1000389a:	213f      	movs	r1, #63	; 0x3f
1000389c:	48b1      	ldr	r0, [pc, #708]	; (10003b64 <alarm_pool_alarm_callback+0x2ec>)
1000389e:	f000 ff79 	bl	10004794 <__assert_func>
100038a2:	4bb1      	ldr	r3, [pc, #708]	; (10003b68 <alarm_pool_alarm_callback+0x2f0>)
100038a4:	4ab1      	ldr	r2, [pc, #708]	; (10003b6c <alarm_pool_alarm_callback+0x2f4>)
100038a6:	213b      	movs	r1, #59	; 0x3b
100038a8:	48b1      	ldr	r0, [pc, #708]	; (10003b70 <alarm_pool_alarm_callback+0x2f8>)
100038aa:	f000 ff73 	bl	10004794 <__assert_func>
100038ae:	2b00      	cmp	r3, #0
100038b0:	d101      	bne.n	100038b6 <alarm_pool_alarm_callback+0x3e>
100038b2:	2a00      	cmp	r2, #0
100038b4:	d168      	bne.n	10003988 <alarm_pool_alarm_callback+0x110>
100038b6:	2100      	movs	r1, #0
100038b8:	4660      	mov	r0, ip
100038ba:	f000 feaf 	bl	1000461c <ph_remove_head>
100038be:	42a0      	cmp	r0, r4
100038c0:	d119      	bne.n	100038f6 <alarm_pool_alarm_callback+0x7e>
100038c2:	6832      	ldr	r2, [r6, #0]
100038c4:	6873      	ldr	r3, [r6, #4]
100038c6:	9206      	str	r2, [sp, #24]
100038c8:	9307      	str	r3, [sp, #28]
100038ca:	68b3      	ldr	r3, [r6, #8]
100038cc:	4698      	mov	r8, r3
100038ce:	68f3      	ldr	r3, [r6, #12]
100038d0:	469a      	mov	sl, r3
100038d2:	4643      	mov	r3, r8
100038d4:	2b00      	cmp	r3, #0
100038d6:	d014      	beq.n	10003902 <alarm_pool_alarm_callback+0x8a>
100038d8:	2c00      	cmp	r4, #0
100038da:	d018      	beq.n	1000390e <alarm_pool_alarm_callback+0x96>
100038dc:	682b      	ldr	r3, [r5, #0]
100038de:	7b1b      	ldrb	r3, [r3, #12]
100038e0:	429c      	cmp	r4, r3
100038e2:	d814      	bhi.n	1000390e <alarm_pool_alarm_callback+0x96>
100038e4:	1e63      	subs	r3, r4, #1
100038e6:	68ea      	ldr	r2, [r5, #12]
100038e8:	5cd3      	ldrb	r3, [r2, r3]
100038ea:	9308      	str	r3, [sp, #32]
100038ec:	021b      	lsls	r3, r3, #8
100038ee:	4318      	orrs	r0, r3
100038f0:	6128      	str	r0, [r5, #16]
100038f2:	2000      	movs	r0, #0
100038f4:	e015      	b.n	10003922 <alarm_pool_alarm_callback+0xaa>
100038f6:	4b9f      	ldr	r3, [pc, #636]	; (10003b74 <alarm_pool_alarm_callback+0x2fc>)
100038f8:	4a9f      	ldr	r2, [pc, #636]	; (10003b78 <alarm_pool_alarm_callback+0x300>)
100038fa:	218c      	movs	r1, #140	; 0x8c
100038fc:	489c      	ldr	r0, [pc, #624]	; (10003b70 <alarm_pool_alarm_callback+0x2f8>)
100038fe:	f000 ff49 	bl	10004794 <__assert_func>
10003902:	4b9e      	ldr	r3, [pc, #632]	; (10003b7c <alarm_pool_alarm_callback+0x304>)
10003904:	4a9c      	ldr	r2, [pc, #624]	; (10003b78 <alarm_pool_alarm_callback+0x300>)
10003906:	2190      	movs	r1, #144	; 0x90
10003908:	4899      	ldr	r0, [pc, #612]	; (10003b70 <alarm_pool_alarm_callback+0x2f8>)
1000390a:	f000 ff43 	bl	10004794 <__assert_func>
1000390e:	4b96      	ldr	r3, [pc, #600]	; (10003b68 <alarm_pool_alarm_callback+0x2f0>)
10003910:	4a9b      	ldr	r2, [pc, #620]	; (10003b80 <alarm_pool_alarm_callback+0x308>)
10003912:	2140      	movs	r1, #64	; 0x40
10003914:	4896      	ldr	r0, [pc, #600]	; (10003b70 <alarm_pool_alarm_callback+0x2f8>)
10003916:	f000 ff3d 	bl	10004794 <__assert_func>
1000391a:	2300      	movs	r3, #0
1000391c:	469a      	mov	sl, r3
1000391e:	4698      	mov	r8, r3
10003920:	2000      	movs	r0, #0
10003922:	686b      	ldr	r3, [r5, #4]
10003924:	f3bf 8f5f 	dmb	sy
10003928:	2200      	movs	r2, #0
1000392a:	601a      	str	r2, [r3, #0]
1000392c:	f387 8810 	msr	PRIMASK, r7
10003930:	4643      	mov	r3, r8
10003932:	2b00      	cmp	r3, #0
10003934:	d131      	bne.n	1000399a <alarm_pool_alarm_callback+0x122>
10003936:	2800      	cmp	r0, #0
10003938:	d100      	bne.n	1000393c <alarm_pool_alarm_callback+0xc4>
1000393a:	e105      	b.n	10003b48 <alarm_pool_alarm_callback+0x2d0>
1000393c:	f000 fbc4 	bl	100040c8 <time_us_64>
10003940:	2900      	cmp	r1, #0
10003942:	dba8      	blt.n	10003896 <alarm_pool_alarm_callback+0x1e>
10003944:	2300      	movs	r3, #0
10003946:	2400      	movs	r4, #0
10003948:	9306      	str	r3, [sp, #24]
1000394a:	9407      	str	r4, [sp, #28]
1000394c:	686a      	ldr	r2, [r5, #4]
1000394e:	f3ef 8710 	mrs	r7, PRIMASK
10003952:	b672      	cpsid	i
10003954:	6813      	ldr	r3, [r2, #0]
10003956:	2b00      	cmp	r3, #0
10003958:	d0fc      	beq.n	10003954 <alarm_pool_alarm_callback+0xdc>
1000395a:	f3bf 8f5f 	dmb	sy
1000395e:	682b      	ldr	r3, [r5, #0]
10003960:	469c      	mov	ip, r3
10003962:	7b5c      	ldrb	r4, [r3, #13]
10003964:	2c00      	cmp	r4, #0
10003966:	d0d8      	beq.n	1000391a <alarm_pool_alarm_callback+0xa2>
10003968:	d09b      	beq.n	100038a2 <alarm_pool_alarm_callback+0x2a>
1000396a:	7b1b      	ldrb	r3, [r3, #12]
1000396c:	429c      	cmp	r4, r3
1000396e:	d898      	bhi.n	100038a2 <alarm_pool_alarm_callback+0x2a>
10003970:	4b84      	ldr	r3, [pc, #528]	; (10003b84 <alarm_pool_alarm_callback+0x30c>)
10003972:	18e6      	adds	r6, r4, r3
10003974:	0136      	lsls	r6, r6, #4
10003976:	68ab      	ldr	r3, [r5, #8]
10003978:	4698      	mov	r8, r3
1000397a:	4446      	add	r6, r8
1000397c:	6832      	ldr	r2, [r6, #0]
1000397e:	6873      	ldr	r3, [r6, #4]
10003980:	1a12      	subs	r2, r2, r0
10003982:	418b      	sbcs	r3, r1
10003984:	2b00      	cmp	r3, #0
10003986:	dd92      	ble.n	100038ae <alarm_pool_alarm_callback+0x36>
10003988:	6832      	ldr	r2, [r6, #0]
1000398a:	6873      	ldr	r3, [r6, #4]
1000398c:	9809      	ldr	r0, [sp, #36]	; 0x24
1000398e:	f000 fc25 	bl	100041dc <hardware_alarm_set_target>
10003992:	2300      	movs	r3, #0
10003994:	469a      	mov	sl, r3
10003996:	4698      	mov	r8, r3
10003998:	e7c3      	b.n	10003922 <alarm_pool_alarm_callback+0xaa>
1000399a:	9b08      	ldr	r3, [sp, #32]
1000399c:	021b      	lsls	r3, r3, #8
1000399e:	4323      	orrs	r3, r4
100039a0:	4699      	mov	r9, r3
100039a2:	4651      	mov	r1, sl
100039a4:	0018      	movs	r0, r3
100039a6:	47c0      	blx	r8
100039a8:	0006      	movs	r6, r0
100039aa:	000f      	movs	r7, r1
100039ac:	686a      	ldr	r2, [r5, #4]
100039ae:	f3ef 8b10 	mrs	fp, PRIMASK
100039b2:	b672      	cpsid	i
100039b4:	6813      	ldr	r3, [r2, #0]
100039b6:	2b00      	cmp	r3, #0
100039b8:	d0fc      	beq.n	100039b4 <alarm_pool_alarm_callback+0x13c>
100039ba:	f3bf 8f5f 	dmb	sy
100039be:	2f00      	cmp	r7, #0
100039c0:	db26      	blt.n	10003a10 <alarm_pool_alarm_callback+0x198>
100039c2:	2f00      	cmp	r7, #0
100039c4:	dd52      	ble.n	10003a6c <alarm_pool_alarm_callback+0x1f4>
100039c6:	692b      	ldr	r3, [r5, #16]
100039c8:	2b00      	cmp	r3, #0
100039ca:	d053      	beq.n	10003a74 <alarm_pool_alarm_callback+0x1fc>
100039cc:	454b      	cmp	r3, r9
100039ce:	d174      	bne.n	10003aba <alarm_pool_alarm_callback+0x242>
100039d0:	f000 fb7a 	bl	100040c8 <time_us_64>
100039d4:	0002      	movs	r2, r0
100039d6:	1e0b      	subs	r3, r1, #0
100039d8:	db75      	blt.n	10003ac6 <alarm_pool_alarm_callback+0x24e>
100039da:	0001      	movs	r1, r0
100039dc:	0018      	movs	r0, r3
100039de:	1992      	adds	r2, r2, r6
100039e0:	417b      	adcs	r3, r7
100039e2:	4298      	cmp	r0, r3
100039e4:	d802      	bhi.n	100039ec <alarm_pool_alarm_callback+0x174>
100039e6:	d104      	bne.n	100039f2 <alarm_pool_alarm_callback+0x17a>
100039e8:	4291      	cmp	r1, r2
100039ea:	d902      	bls.n	100039f2 <alarm_pool_alarm_callback+0x17a>
100039ec:	2201      	movs	r2, #1
100039ee:	4252      	negs	r2, r2
100039f0:	17d3      	asrs	r3, r2, #31
100039f2:	2b00      	cmp	r3, #0
100039f4:	db6d      	blt.n	10003ad2 <alarm_pool_alarm_callback+0x25a>
100039f6:	2100      	movs	r1, #0
100039f8:	9104      	str	r1, [sp, #16]
100039fa:	3101      	adds	r1, #1
100039fc:	9103      	str	r1, [sp, #12]
100039fe:	9402      	str	r4, [sp, #8]
10003a00:	4651      	mov	r1, sl
10003a02:	9101      	str	r1, [sp, #4]
10003a04:	4641      	mov	r1, r8
10003a06:	9100      	str	r1, [sp, #0]
10003a08:	0028      	movs	r0, r5
10003a0a:	f7ff fe75 	bl	100036f8 <add_alarm_under_lock>
10003a0e:	e04b      	b.n	10003aa8 <alarm_pool_alarm_callback+0x230>
10003a10:	692b      	ldr	r3, [r5, #16]
10003a12:	2b00      	cmp	r3, #0
10003a14:	d0d5      	beq.n	100039c2 <alarm_pool_alarm_callback+0x14a>
10003a16:	454b      	cmp	r3, r9
10003a18:	d11c      	bne.n	10003a54 <alarm_pool_alarm_callback+0x1dc>
10003a1a:	9a06      	ldr	r2, [sp, #24]
10003a1c:	9b07      	ldr	r3, [sp, #28]
10003a1e:	0010      	movs	r0, r2
10003a20:	0019      	movs	r1, r3
10003a22:	1b92      	subs	r2, r2, r6
10003a24:	41bb      	sbcs	r3, r7
10003a26:	4299      	cmp	r1, r3
10003a28:	d802      	bhi.n	10003a30 <alarm_pool_alarm_callback+0x1b8>
10003a2a:	d104      	bne.n	10003a36 <alarm_pool_alarm_callback+0x1be>
10003a2c:	4290      	cmp	r0, r2
10003a2e:	d902      	bls.n	10003a36 <alarm_pool_alarm_callback+0x1be>
10003a30:	2201      	movs	r2, #1
10003a32:	4252      	negs	r2, r2
10003a34:	17d3      	asrs	r3, r2, #31
10003a36:	2b00      	cmp	r3, #0
10003a38:	db12      	blt.n	10003a60 <alarm_pool_alarm_callback+0x1e8>
10003a3a:	2100      	movs	r1, #0
10003a3c:	9104      	str	r1, [sp, #16]
10003a3e:	3101      	adds	r1, #1
10003a40:	9103      	str	r1, [sp, #12]
10003a42:	9402      	str	r4, [sp, #8]
10003a44:	4651      	mov	r1, sl
10003a46:	9101      	str	r1, [sp, #4]
10003a48:	4641      	mov	r1, r8
10003a4a:	9100      	str	r1, [sp, #0]
10003a4c:	0028      	movs	r0, r5
10003a4e:	f7ff fe53 	bl	100036f8 <add_alarm_under_lock>
10003a52:	e029      	b.n	10003aa8 <alarm_pool_alarm_callback+0x230>
10003a54:	4b4c      	ldr	r3, [pc, #304]	; (10003b88 <alarm_pool_alarm_callback+0x310>)
10003a56:	4a48      	ldr	r2, [pc, #288]	; (10003b78 <alarm_pool_alarm_callback+0x300>)
10003a58:	219f      	movs	r1, #159	; 0x9f
10003a5a:	4845      	ldr	r0, [pc, #276]	; (10003b70 <alarm_pool_alarm_callback+0x2f8>)
10003a5c:	f000 fe9a 	bl	10004794 <__assert_func>
10003a60:	4b3e      	ldr	r3, [pc, #248]	; (10003b5c <alarm_pool_alarm_callback+0x2e4>)
10003a62:	4a3f      	ldr	r2, [pc, #252]	; (10003b60 <alarm_pool_alarm_callback+0x2e8>)
10003a64:	213f      	movs	r1, #63	; 0x3f
10003a66:	483f      	ldr	r0, [pc, #252]	; (10003b64 <alarm_pool_alarm_callback+0x2ec>)
10003a68:	f000 fe94 	bl	10004794 <__assert_func>
10003a6c:	2f00      	cmp	r7, #0
10003a6e:	d101      	bne.n	10003a74 <alarm_pool_alarm_callback+0x1fc>
10003a70:	2e00      	cmp	r6, #0
10003a72:	d1a8      	bne.n	100039c6 <alarm_pool_alarm_callback+0x14e>
10003a74:	682a      	ldr	r2, [r5, #0]
10003a76:	2c00      	cmp	r4, #0
10003a78:	d047      	beq.n	10003b0a <alarm_pool_alarm_callback+0x292>
10003a7a:	7b53      	ldrb	r3, [r2, #13]
10003a7c:	429c      	cmp	r4, r3
10003a7e:	d12e      	bne.n	10003ade <alarm_pool_alarm_callback+0x266>
10003a80:	2301      	movs	r3, #1
10003a82:	2b00      	cmp	r3, #0
10003a84:	d141      	bne.n	10003b0a <alarm_pool_alarm_callback+0x292>
10003a86:	7bd3      	ldrb	r3, [r2, #15]
10003a88:	2b00      	cmp	r3, #0
10003a8a:	d144      	bne.n	10003b16 <alarm_pool_alarm_callback+0x29e>
10003a8c:	73d4      	strb	r4, [r2, #15]
10003a8e:	2c00      	cmp	r4, #0
10003a90:	d054      	beq.n	10003b3c <alarm_pool_alarm_callback+0x2c4>
10003a92:	682b      	ldr	r3, [r5, #0]
10003a94:	7b1b      	ldrb	r3, [r3, #12]
10003a96:	429c      	cmp	r4, r3
10003a98:	d850      	bhi.n	10003b3c <alarm_pool_alarm_callback+0x2c4>
10003a9a:	3c01      	subs	r4, #1
10003a9c:	68eb      	ldr	r3, [r5, #12]
10003a9e:	469c      	mov	ip, r3
10003aa0:	4464      	add	r4, ip
10003aa2:	7823      	ldrb	r3, [r4, #0]
10003aa4:	3301      	adds	r3, #1
10003aa6:	7023      	strb	r3, [r4, #0]
10003aa8:	2300      	movs	r3, #0
10003aaa:	612b      	str	r3, [r5, #16]
10003aac:	686a      	ldr	r2, [r5, #4]
10003aae:	f3bf 8f5f 	dmb	sy
10003ab2:	6013      	str	r3, [r2, #0]
10003ab4:	f38b 8810 	msr	PRIMASK, fp
10003ab8:	e740      	b.n	1000393c <alarm_pool_alarm_callback+0xc4>
10003aba:	4b33      	ldr	r3, [pc, #204]	; (10003b88 <alarm_pool_alarm_callback+0x310>)
10003abc:	4a2e      	ldr	r2, [pc, #184]	; (10003b78 <alarm_pool_alarm_callback+0x300>)
10003abe:	21a2      	movs	r1, #162	; 0xa2
10003ac0:	482b      	ldr	r0, [pc, #172]	; (10003b70 <alarm_pool_alarm_callback+0x2f8>)
10003ac2:	f000 fe67 	bl	10004794 <__assert_func>
10003ac6:	4b25      	ldr	r3, [pc, #148]	; (10003b5c <alarm_pool_alarm_callback+0x2e4>)
10003ac8:	4a25      	ldr	r2, [pc, #148]	; (10003b60 <alarm_pool_alarm_callback+0x2e8>)
10003aca:	213f      	movs	r1, #63	; 0x3f
10003acc:	4825      	ldr	r0, [pc, #148]	; (10003b64 <alarm_pool_alarm_callback+0x2ec>)
10003ace:	f000 fe61 	bl	10004794 <__assert_func>
10003ad2:	4b22      	ldr	r3, [pc, #136]	; (10003b5c <alarm_pool_alarm_callback+0x2e4>)
10003ad4:	4a22      	ldr	r2, [pc, #136]	; (10003b60 <alarm_pool_alarm_callback+0x2e8>)
10003ad6:	213f      	movs	r1, #63	; 0x3f
10003ad8:	4822      	ldr	r0, [pc, #136]	; (10003b64 <alarm_pool_alarm_callback+0x2ec>)
10003ada:	f000 fe5b 	bl	10004794 <__assert_func>
10003ade:	2c00      	cmp	r4, #0
10003ae0:	d00d      	beq.n	10003afe <alarm_pool_alarm_callback+0x286>
10003ae2:	7b13      	ldrb	r3, [r2, #12]
10003ae4:	429c      	cmp	r4, r3
10003ae6:	d80a      	bhi.n	10003afe <alarm_pool_alarm_callback+0x286>
10003ae8:	0063      	lsls	r3, r4, #1
10003aea:	191b      	adds	r3, r3, r4
10003aec:	3b03      	subs	r3, #3
10003aee:	6811      	ldr	r1, [r2, #0]
10003af0:	468c      	mov	ip, r1
10003af2:	4463      	add	r3, ip
10003af4:	789b      	ldrb	r3, [r3, #2]
10003af6:	2b00      	cmp	r3, #0
10003af8:	d0c3      	beq.n	10003a82 <alarm_pool_alarm_callback+0x20a>
10003afa:	2301      	movs	r3, #1
10003afc:	e7c1      	b.n	10003a82 <alarm_pool_alarm_callback+0x20a>
10003afe:	4b23      	ldr	r3, [pc, #140]	; (10003b8c <alarm_pool_alarm_callback+0x314>)
10003b00:	4a23      	ldr	r2, [pc, #140]	; (10003b90 <alarm_pool_alarm_callback+0x318>)
10003b02:	2168      	movs	r1, #104	; 0x68
10003b04:	4823      	ldr	r0, [pc, #140]	; (10003b94 <alarm_pool_alarm_callback+0x31c>)
10003b06:	f000 fe45 	bl	10004794 <__assert_func>
10003b0a:	4b23      	ldr	r3, [pc, #140]	; (10003b98 <alarm_pool_alarm_callback+0x320>)
10003b0c:	4a23      	ldr	r2, [pc, #140]	; (10003b9c <alarm_pool_alarm_callback+0x324>)
10003b0e:	21f6      	movs	r1, #246	; 0xf6
10003b10:	4820      	ldr	r0, [pc, #128]	; (10003b94 <alarm_pool_alarm_callback+0x31c>)
10003b12:	f000 fe3f 	bl	10004794 <__assert_func>
10003b16:	2b00      	cmp	r3, #0
10003b18:	d00a      	beq.n	10003b30 <alarm_pool_alarm_callback+0x2b8>
10003b1a:	7b11      	ldrb	r1, [r2, #12]
10003b1c:	428b      	cmp	r3, r1
10003b1e:	d807      	bhi.n	10003b30 <alarm_pool_alarm_callback+0x2b8>
10003b20:	0059      	lsls	r1, r3, #1
10003b22:	18cb      	adds	r3, r1, r3
10003b24:	3b03      	subs	r3, #3
10003b26:	6811      	ldr	r1, [r2, #0]
10003b28:	468c      	mov	ip, r1
10003b2a:	4463      	add	r3, ip
10003b2c:	705c      	strb	r4, [r3, #1]
10003b2e:	e7ad      	b.n	10003a8c <alarm_pool_alarm_callback+0x214>
10003b30:	4b16      	ldr	r3, [pc, #88]	; (10003b8c <alarm_pool_alarm_callback+0x314>)
10003b32:	4a17      	ldr	r2, [pc, #92]	; (10003b90 <alarm_pool_alarm_callback+0x318>)
10003b34:	2168      	movs	r1, #104	; 0x68
10003b36:	4817      	ldr	r0, [pc, #92]	; (10003b94 <alarm_pool_alarm_callback+0x31c>)
10003b38:	f000 fe2c 	bl	10004794 <__assert_func>
10003b3c:	4b0a      	ldr	r3, [pc, #40]	; (10003b68 <alarm_pool_alarm_callback+0x2f0>)
10003b3e:	4a10      	ldr	r2, [pc, #64]	; (10003b80 <alarm_pool_alarm_callback+0x308>)
10003b40:	2140      	movs	r1, #64	; 0x40
10003b42:	480b      	ldr	r0, [pc, #44]	; (10003b70 <alarm_pool_alarm_callback+0x2f8>)
10003b44:	f000 fe26 	bl	10004794 <__assert_func>
10003b48:	b00b      	add	sp, #44	; 0x2c
10003b4a:	bc3c      	pop	{r2, r3, r4, r5}
10003b4c:	4690      	mov	r8, r2
10003b4e:	4699      	mov	r9, r3
10003b50:	46a2      	mov	sl, r4
10003b52:	46ab      	mov	fp, r5
10003b54:	bdf0      	pop	{r4, r5, r6, r7, pc}
10003b56:	46c0      	nop			; (mov r8, r8)
10003b58:	20008f88 	.word	0x20008f88
10003b5c:	1000a2c8 	.word	0x1000a2c8
10003b60:	1000ae00 	.word	0x1000ae00
10003b64:	1000a2e4 	.word	0x1000a2e4
10003b68:	1000afb0 	.word	0x1000afb0
10003b6c:	1000ae58 	.word	0x1000ae58
10003b70:	1000b0b8 	.word	0x1000b0b8
10003b74:	1000af04 	.word	0x1000af04
10003b78:	1000aea8 	.word	0x1000aea8
10003b7c:	1000af1c 	.word	0x1000af1c
10003b80:	1000ae64 	.word	0x1000ae64
10003b84:	0fffffff 	.word	0x0fffffff
10003b88:	1000af28 	.word	0x1000af28
10003b8c:	1000b008 	.word	0x1000b008
10003b90:	1000ae18 	.word	0x1000ae18
10003b94:	1000b024 	.word	0x1000b024
10003b98:	1000af64 	.word	0x1000af64
10003b9c:	1000ae48 	.word	0x1000ae48

10003ba0 <alarm_pool_init_default>:
10003ba0:	b510      	push	{r4, lr}
10003ba2:	4b0a      	ldr	r3, [pc, #40]	; (10003bcc <alarm_pool_init_default+0x2c>)
10003ba4:	685b      	ldr	r3, [r3, #4]
10003ba6:	2b00      	cmp	r3, #0
10003ba8:	d004      	beq.n	10003bb4 <alarm_pool_init_default+0x14>
10003baa:	210a      	movs	r1, #10
10003bac:	4808      	ldr	r0, [pc, #32]	; (10003bd0 <alarm_pool_init_default+0x30>)
10003bae:	f7ff fcb3 	bl	10003518 <lock_init>
10003bb2:	bd10      	pop	{r4, pc}
10003bb4:	4c05      	ldr	r4, [pc, #20]	; (10003bcc <alarm_pool_init_default+0x2c>)
10003bb6:	0023      	movs	r3, r4
10003bb8:	4a06      	ldr	r2, [pc, #24]	; (10003bd4 <alarm_pool_init_default+0x34>)
10003bba:	2110      	movs	r1, #16
10003bbc:	6820      	ldr	r0, [r4, #0]
10003bbe:	f000 fc4b 	bl	10004458 <ph_post_alloc_init>
10003bc2:	2103      	movs	r1, #3
10003bc4:	0020      	movs	r0, r4
10003bc6:	f7ff fcc7 	bl	10003558 <alarm_pool_post_alloc_init>
10003bca:	e7ee      	b.n	10003baa <alarm_pool_init_default+0xa>
10003bcc:	20008454 	.word	0x20008454
10003bd0:	20008fa4 	.word	0x20008fa4
10003bd4:	10003599 	.word	0x10003599

10003bd8 <alarm_pool_get_default>:
10003bd8:	b510      	push	{r4, lr}
10003bda:	4b06      	ldr	r3, [pc, #24]	; (10003bf4 <alarm_pool_get_default+0x1c>)
10003bdc:	685b      	ldr	r3, [r3, #4]
10003bde:	2b00      	cmp	r3, #0
10003be0:	d001      	beq.n	10003be6 <alarm_pool_get_default+0xe>
10003be2:	4804      	ldr	r0, [pc, #16]	; (10003bf4 <alarm_pool_get_default+0x1c>)
10003be4:	bd10      	pop	{r4, pc}
10003be6:	4b04      	ldr	r3, [pc, #16]	; (10003bf8 <alarm_pool_get_default+0x20>)
10003be8:	4a04      	ldr	r2, [pc, #16]	; (10003bfc <alarm_pool_get_default+0x24>)
10003bea:	215c      	movs	r1, #92	; 0x5c
10003bec:	4804      	ldr	r0, [pc, #16]	; (10003c00 <alarm_pool_get_default+0x28>)
10003bee:	f000 fdd1 	bl	10004794 <__assert_func>
10003bf2:	46c0      	nop			; (mov r8, r8)
10003bf4:	20008454 	.word	0x20008454
10003bf8:	1000afe4 	.word	0x1000afe4
10003bfc:	1000ae78 	.word	0x1000ae78
10003c00:	1000b0b8 	.word	0x1000b0b8

10003c04 <alarm_pool_add_alarm_at>:
10003c04:	b5f0      	push	{r4, r5, r6, r7, lr}
10003c06:	46d6      	mov	lr, sl
10003c08:	464f      	mov	r7, r9
10003c0a:	4646      	mov	r6, r8
10003c0c:	b5c0      	push	{r6, r7, lr}
10003c0e:	b088      	sub	sp, #32
10003c10:	4680      	mov	r8, r0
10003c12:	0016      	movs	r6, r2
10003c14:	001f      	movs	r7, r3
10003c16:	9b10      	ldr	r3, [sp, #64]	; 0x40
10003c18:	4699      	mov	r9, r3
10003c1a:	ab12      	add	r3, sp, #72	; 0x48
10003c1c:	781b      	ldrb	r3, [r3, #0]
10003c1e:	469a      	mov	sl, r3
10003c20:	231f      	movs	r3, #31
10003c22:	446b      	add	r3, sp
10003c24:	2200      	movs	r2, #0
10003c26:	701a      	strb	r2, [r3, #0]
10003c28:	e032      	b.n	10003c90 <alarm_pool_add_alarm_at+0x8c>
10003c2a:	2800      	cmp	r0, #0
10003c2c:	d009      	beq.n	10003c42 <alarm_pool_add_alarm_at+0x3e>
10003c2e:	4642      	mov	r2, r8
10003c30:	6812      	ldr	r2, [r2, #0]
10003c32:	7b12      	ldrb	r2, [r2, #12]
10003c34:	4290      	cmp	r0, r2
10003c36:	d804      	bhi.n	10003c42 <alarm_pool_add_alarm_at+0x3e>
10003c38:	1e42      	subs	r2, r0, #1
10003c3a:	4641      	mov	r1, r8
10003c3c:	68c9      	ldr	r1, [r1, #12]
10003c3e:	5c8a      	ldrb	r2, [r1, r2]
10003c40:	e042      	b.n	10003cc8 <alarm_pool_add_alarm_at+0xc4>
10003c42:	4b3f      	ldr	r3, [pc, #252]	; (10003d40 <alarm_pool_add_alarm_at+0x13c>)
10003c44:	4a3f      	ldr	r2, [pc, #252]	; (10003d44 <alarm_pool_add_alarm_at+0x140>)
10003c46:	2140      	movs	r1, #64	; 0x40
10003c48:	483f      	ldr	r0, [pc, #252]	; (10003d48 <alarm_pool_add_alarm_at+0x144>)
10003c4a:	f000 fda3 	bl	10004794 <__assert_func>
10003c4e:	2000      	movs	r0, #0
10003c50:	2b00      	cmp	r3, #0
10003c52:	d06d      	beq.n	10003d30 <alarm_pool_add_alarm_at+0x12c>
10003c54:	4653      	mov	r3, sl
10003c56:	2b00      	cmp	r3, #0
10003c58:	d06a      	beq.n	10003d30 <alarm_pool_add_alarm_at+0x12c>
10003c5a:	9911      	ldr	r1, [sp, #68]	; 0x44
10003c5c:	47c8      	blx	r9
10003c5e:	0004      	movs	r4, r0
10003c60:	000d      	movs	r5, r1
10003c62:	0003      	movs	r3, r0
10003c64:	430b      	orrs	r3, r1
10003c66:	d069      	beq.n	10003d3c <alarm_pool_add_alarm_at+0x138>
10003c68:	2900      	cmp	r1, #0
10003c6a:	db3f      	blt.n	10003cec <alarm_pool_add_alarm_at+0xe8>
10003c6c:	f000 fa2c 	bl	100040c8 <time_us_64>
10003c70:	2900      	cmp	r1, #0
10003c72:	db4f      	blt.n	10003d14 <alarm_pool_add_alarm_at+0x110>
10003c74:	1824      	adds	r4, r4, r0
10003c76:	414d      	adcs	r5, r1
10003c78:	42a9      	cmp	r1, r5
10003c7a:	d802      	bhi.n	10003c82 <alarm_pool_add_alarm_at+0x7e>
10003c7c:	d104      	bne.n	10003c88 <alarm_pool_add_alarm_at+0x84>
10003c7e:	42a0      	cmp	r0, r4
10003c80:	d902      	bls.n	10003c88 <alarm_pool_add_alarm_at+0x84>
10003c82:	2401      	movs	r4, #1
10003c84:	4264      	negs	r4, r4
10003c86:	17e5      	asrs	r5, r4, #31
10003c88:	2d00      	cmp	r5, #0
10003c8a:	db49      	blt.n	10003d20 <alarm_pool_add_alarm_at+0x11c>
10003c8c:	0026      	movs	r6, r4
10003c8e:	002f      	movs	r7, r5
10003c90:	4643      	mov	r3, r8
10003c92:	685a      	ldr	r2, [r3, #4]
10003c94:	f3ef 8410 	mrs	r4, PRIMASK
10003c98:	b672      	cpsid	i
10003c9a:	6813      	ldr	r3, [r2, #0]
10003c9c:	2b00      	cmp	r3, #0
10003c9e:	d0fc      	beq.n	10003c9a <alarm_pool_add_alarm_at+0x96>
10003ca0:	f3bf 8f5f 	dmb	sy
10003ca4:	231f      	movs	r3, #31
10003ca6:	446b      	add	r3, sp
10003ca8:	9304      	str	r3, [sp, #16]
10003caa:	2300      	movs	r3, #0
10003cac:	9303      	str	r3, [sp, #12]
10003cae:	9302      	str	r3, [sp, #8]
10003cb0:	9b11      	ldr	r3, [sp, #68]	; 0x44
10003cb2:	9301      	str	r3, [sp, #4]
10003cb4:	464b      	mov	r3, r9
10003cb6:	9300      	str	r3, [sp, #0]
10003cb8:	0032      	movs	r2, r6
10003cba:	003b      	movs	r3, r7
10003cbc:	4640      	mov	r0, r8
10003cbe:	f7ff fd1b 	bl	100036f8 <add_alarm_under_lock>
10003cc2:	1e03      	subs	r3, r0, #0
10003cc4:	d1b1      	bne.n	10003c2a <alarm_pool_add_alarm_at+0x26>
10003cc6:	0002      	movs	r2, r0
10003cc8:	4641      	mov	r1, r8
10003cca:	6849      	ldr	r1, [r1, #4]
10003ccc:	f3bf 8f5f 	dmb	sy
10003cd0:	2500      	movs	r5, #0
10003cd2:	600d      	str	r5, [r1, #0]
10003cd4:	f384 8810 	msr	PRIMASK, r4
10003cd8:	2b00      	cmp	r3, #0
10003cda:	d027      	beq.n	10003d2c <alarm_pool_add_alarm_at+0x128>
10003cdc:	231f      	movs	r3, #31
10003cde:	446b      	add	r3, sp
10003ce0:	781b      	ldrb	r3, [r3, #0]
10003ce2:	2b00      	cmp	r3, #0
10003ce4:	d1b3      	bne.n	10003c4e <alarm_pool_add_alarm_at+0x4a>
10003ce6:	0212      	lsls	r2, r2, #8
10003ce8:	4310      	orrs	r0, r2
10003cea:	e7b1      	b.n	10003c50 <alarm_pool_add_alarm_at+0x4c>
10003cec:	0032      	movs	r2, r6
10003cee:	003b      	movs	r3, r7
10003cf0:	1b36      	subs	r6, r6, r4
10003cf2:	41af      	sbcs	r7, r5
10003cf4:	42bb      	cmp	r3, r7
10003cf6:	d802      	bhi.n	10003cfe <alarm_pool_add_alarm_at+0xfa>
10003cf8:	d104      	bne.n	10003d04 <alarm_pool_add_alarm_at+0x100>
10003cfa:	42b2      	cmp	r2, r6
10003cfc:	d902      	bls.n	10003d04 <alarm_pool_add_alarm_at+0x100>
10003cfe:	2601      	movs	r6, #1
10003d00:	4276      	negs	r6, r6
10003d02:	17f7      	asrs	r7, r6, #31
10003d04:	2f00      	cmp	r7, #0
10003d06:	dac3      	bge.n	10003c90 <alarm_pool_add_alarm_at+0x8c>
10003d08:	4b10      	ldr	r3, [pc, #64]	; (10003d4c <alarm_pool_add_alarm_at+0x148>)
10003d0a:	4a11      	ldr	r2, [pc, #68]	; (10003d50 <alarm_pool_add_alarm_at+0x14c>)
10003d0c:	213f      	movs	r1, #63	; 0x3f
10003d0e:	4811      	ldr	r0, [pc, #68]	; (10003d54 <alarm_pool_add_alarm_at+0x150>)
10003d10:	f000 fd40 	bl	10004794 <__assert_func>
10003d14:	4b0d      	ldr	r3, [pc, #52]	; (10003d4c <alarm_pool_add_alarm_at+0x148>)
10003d16:	4a0e      	ldr	r2, [pc, #56]	; (10003d50 <alarm_pool_add_alarm_at+0x14c>)
10003d18:	213f      	movs	r1, #63	; 0x3f
10003d1a:	480e      	ldr	r0, [pc, #56]	; (10003d54 <alarm_pool_add_alarm_at+0x150>)
10003d1c:	f000 fd3a 	bl	10004794 <__assert_func>
10003d20:	4b0a      	ldr	r3, [pc, #40]	; (10003d4c <alarm_pool_add_alarm_at+0x148>)
10003d22:	4a0b      	ldr	r2, [pc, #44]	; (10003d50 <alarm_pool_add_alarm_at+0x14c>)
10003d24:	213f      	movs	r1, #63	; 0x3f
10003d26:	480b      	ldr	r0, [pc, #44]	; (10003d54 <alarm_pool_add_alarm_at+0x150>)
10003d28:	f000 fd34 	bl	10004794 <__assert_func>
10003d2c:	2001      	movs	r0, #1
10003d2e:	4240      	negs	r0, r0
10003d30:	b008      	add	sp, #32
10003d32:	bc1c      	pop	{r2, r3, r4}
10003d34:	4690      	mov	r8, r2
10003d36:	4699      	mov	r9, r3
10003d38:	46a2      	mov	sl, r4
10003d3a:	bdf0      	pop	{r4, r5, r6, r7, pc}
10003d3c:	2000      	movs	r0, #0
10003d3e:	e7f7      	b.n	10003d30 <alarm_pool_add_alarm_at+0x12c>
10003d40:	1000afb0 	.word	0x1000afb0
10003d44:	1000ae64 	.word	0x1000ae64
10003d48:	1000b0b8 	.word	0x1000b0b8
10003d4c:	1000a2c8 	.word	0x1000a2c8
10003d50:	1000ae00 	.word	0x1000ae00
10003d54:	1000a2e4 	.word	0x1000a2e4

10003d58 <alarm_pool_cancel_alarm>:
10003d58:	b570      	push	{r4, r5, r6, lr}
10003d5a:	0004      	movs	r4, r0
10003d5c:	6842      	ldr	r2, [r0, #4]
10003d5e:	f3ef 8510 	mrs	r5, PRIMASK
10003d62:	b672      	cpsid	i
10003d64:	6813      	ldr	r3, [r2, #0]
10003d66:	2b00      	cmp	r3, #0
10003d68:	d0fc      	beq.n	10003d64 <alarm_pool_cancel_alarm+0xc>
10003d6a:	f3bf 8f5f 	dmb	sy
10003d6e:	b2ca      	uxtb	r2, r1
10003d70:	6826      	ldr	r6, [r4, #0]
10003d72:	7b73      	ldrb	r3, [r6, #13]
10003d74:	429a      	cmp	r2, r3
10003d76:	d11b      	bne.n	10003db0 <alarm_pool_cancel_alarm+0x58>
10003d78:	2001      	movs	r0, #1
10003d7a:	2800      	cmp	r0, #0
10003d7c:	d04a      	beq.n	10003e14 <alarm_pool_cancel_alarm+0xbc>
10003d7e:	6923      	ldr	r3, [r4, #16]
10003d80:	428b      	cmp	r3, r1
10003d82:	d02d      	beq.n	10003de0 <alarm_pool_cancel_alarm+0x88>
10003d84:	0a09      	lsrs	r1, r1, #8
10003d86:	b2c9      	uxtb	r1, r1
10003d88:	2a00      	cmp	r2, #0
10003d8a:	d030      	beq.n	10003dee <alarm_pool_cancel_alarm+0x96>
10003d8c:	6823      	ldr	r3, [r4, #0]
10003d8e:	7b1b      	ldrb	r3, [r3, #12]
10003d90:	429a      	cmp	r2, r3
10003d92:	d82c      	bhi.n	10003dee <alarm_pool_cancel_alarm+0x96>
10003d94:	1e53      	subs	r3, r2, #1
10003d96:	68e0      	ldr	r0, [r4, #12]
10003d98:	5cc3      	ldrb	r3, [r0, r3]
10003d9a:	428b      	cmp	r3, r1
10003d9c:	d02d      	beq.n	10003dfa <alarm_pool_cancel_alarm+0xa2>
10003d9e:	2000      	movs	r0, #0
10003da0:	6863      	ldr	r3, [r4, #4]
10003da2:	f3bf 8f5f 	dmb	sy
10003da6:	2200      	movs	r2, #0
10003da8:	601a      	str	r2, [r3, #0]
10003daa:	f385 8810 	msr	PRIMASK, r5
10003dae:	bd70      	pop	{r4, r5, r6, pc}
10003db0:	2a00      	cmp	r2, #0
10003db2:	d00d      	beq.n	10003dd0 <alarm_pool_cancel_alarm+0x78>
10003db4:	7b33      	ldrb	r3, [r6, #12]
10003db6:	429a      	cmp	r2, r3
10003db8:	d80a      	bhi.n	10003dd0 <alarm_pool_cancel_alarm+0x78>
10003dba:	0053      	lsls	r3, r2, #1
10003dbc:	189b      	adds	r3, r3, r2
10003dbe:	3b03      	subs	r3, #3
10003dc0:	6830      	ldr	r0, [r6, #0]
10003dc2:	4684      	mov	ip, r0
10003dc4:	4463      	add	r3, ip
10003dc6:	789b      	ldrb	r3, [r3, #2]
10003dc8:	2b00      	cmp	r3, #0
10003dca:	d107      	bne.n	10003ddc <alarm_pool_cancel_alarm+0x84>
10003dcc:	2000      	movs	r0, #0
10003dce:	e7d4      	b.n	10003d7a <alarm_pool_cancel_alarm+0x22>
10003dd0:	4b13      	ldr	r3, [pc, #76]	; (10003e20 <alarm_pool_cancel_alarm+0xc8>)
10003dd2:	4a14      	ldr	r2, [pc, #80]	; (10003e24 <alarm_pool_cancel_alarm+0xcc>)
10003dd4:	2168      	movs	r1, #104	; 0x68
10003dd6:	4814      	ldr	r0, [pc, #80]	; (10003e28 <alarm_pool_cancel_alarm+0xd0>)
10003dd8:	f000 fcdc 	bl	10004794 <__assert_func>
10003ddc:	2001      	movs	r0, #1
10003dde:	e7cc      	b.n	10003d7a <alarm_pool_cancel_alarm+0x22>
10003de0:	2185      	movs	r1, #133	; 0x85
10003de2:	4b12      	ldr	r3, [pc, #72]	; (10003e2c <alarm_pool_cancel_alarm+0xd4>)
10003de4:	4a12      	ldr	r2, [pc, #72]	; (10003e30 <alarm_pool_cancel_alarm+0xd8>)
10003de6:	0049      	lsls	r1, r1, #1
10003de8:	4812      	ldr	r0, [pc, #72]	; (10003e34 <alarm_pool_cancel_alarm+0xdc>)
10003dea:	f000 fcd3 	bl	10004794 <__assert_func>
10003dee:	4b12      	ldr	r3, [pc, #72]	; (10003e38 <alarm_pool_cancel_alarm+0xe0>)
10003df0:	4a12      	ldr	r2, [pc, #72]	; (10003e3c <alarm_pool_cancel_alarm+0xe4>)
10003df2:	2140      	movs	r1, #64	; 0x40
10003df4:	480f      	ldr	r0, [pc, #60]	; (10003e34 <alarm_pool_cancel_alarm+0xdc>)
10003df6:	f000 fccd 	bl	10004794 <__assert_func>
10003dfa:	0011      	movs	r1, r2
10003dfc:	0030      	movs	r0, r6
10003dfe:	f000 fc17 	bl	10004630 <ph_remove_and_free_node>
10003e02:	2800      	cmp	r0, #0
10003e04:	d1cc      	bne.n	10003da0 <alarm_pool_cancel_alarm+0x48>
10003e06:	2112      	movs	r1, #18
10003e08:	4b0d      	ldr	r3, [pc, #52]	; (10003e40 <alarm_pool_cancel_alarm+0xe8>)
10003e0a:	4a09      	ldr	r2, [pc, #36]	; (10003e30 <alarm_pool_cancel_alarm+0xd8>)
10003e0c:	31ff      	adds	r1, #255	; 0xff
10003e0e:	4809      	ldr	r0, [pc, #36]	; (10003e34 <alarm_pool_cancel_alarm+0xdc>)
10003e10:	f000 fcc0 	bl	10004794 <__assert_func>
10003e14:	6923      	ldr	r3, [r4, #16]
10003e16:	428b      	cmp	r3, r1
10003e18:	d1c2      	bne.n	10003da0 <alarm_pool_cancel_alarm+0x48>
10003e1a:	2300      	movs	r3, #0
10003e1c:	6123      	str	r3, [r4, #16]
10003e1e:	e7bf      	b.n	10003da0 <alarm_pool_cancel_alarm+0x48>
10003e20:	1000b008 	.word	0x1000b008
10003e24:	1000ae18 	.word	0x1000ae18
10003e28:	1000b024 	.word	0x1000b024
10003e2c:	1000af88 	.word	0x1000af88
10003e30:	1000aec4 	.word	0x1000aec4
10003e34:	1000b0b8 	.word	0x1000b0b8
10003e38:	1000afb0 	.word	0x1000afb0
10003e3c:	1000ae64 	.word	0x1000ae64
10003e40:	1000afac 	.word	0x1000afac

10003e44 <sleep_until>:
10003e44:	b5f0      	push	{r4, r5, r6, r7, lr}
10003e46:	b087      	sub	sp, #28
10003e48:	0006      	movs	r6, r0
10003e4a:	000f      	movs	r7, r1
10003e4c:	f7fc fa0b 	bl	10000266 <__get_current_exception>
10003e50:	2800      	cmp	r0, #0
10003e52:	d11e      	bne.n	10003e92 <sleep_until+0x4e>
10003e54:	2406      	movs	r4, #6
10003e56:	4264      	negs	r4, r4
10003e58:	17e5      	asrs	r5, r4, #31
10003e5a:	19a4      	adds	r4, r4, r6
10003e5c:	417d      	adcs	r5, r7
10003e5e:	42bd      	cmp	r5, r7
10003e60:	d802      	bhi.n	10003e68 <sleep_until+0x24>
10003e62:	d103      	bne.n	10003e6c <sleep_until+0x28>
10003e64:	42b4      	cmp	r4, r6
10003e66:	d901      	bls.n	10003e6c <sleep_until+0x28>
10003e68:	2400      	movs	r4, #0
10003e6a:	2500      	movs	r5, #0
10003e6c:	2d00      	cmp	r5, #0
10003e6e:	db13      	blt.n	10003e98 <sleep_until+0x54>
10003e70:	9404      	str	r4, [sp, #16]
10003e72:	9505      	str	r5, [sp, #20]
10003e74:	f000 f928 	bl	100040c8 <time_us_64>
10003e78:	2900      	cmp	r1, #0
10003e7a:	db13      	blt.n	10003ea4 <sleep_until+0x60>
10003e7c:	1a24      	subs	r4, r4, r0
10003e7e:	418d      	sbcs	r5, r1
10003e80:	2d00      	cmp	r5, #0
10003e82:	dc17      	bgt.n	10003eb4 <sleep_until+0x70>
10003e84:	d014      	beq.n	10003eb0 <sleep_until+0x6c>
10003e86:	0030      	movs	r0, r6
10003e88:	0039      	movs	r1, r7
10003e8a:	f000 f929 	bl	100040e0 <busy_wait_until>
10003e8e:	b007      	add	sp, #28
10003e90:	bdf0      	pop	{r4, r5, r6, r7, pc}
10003e92:	4823      	ldr	r0, [pc, #140]	; (10003f20 <sleep_until+0xdc>)
10003e94:	f000 fd18 	bl	100048c8 <panic>
10003e98:	4b22      	ldr	r3, [pc, #136]	; (10003f24 <sleep_until+0xe0>)
10003e9a:	4a23      	ldr	r2, [pc, #140]	; (10003f28 <sleep_until+0xe4>)
10003e9c:	213f      	movs	r1, #63	; 0x3f
10003e9e:	4823      	ldr	r0, [pc, #140]	; (10003f2c <sleep_until+0xe8>)
10003ea0:	f000 fc78 	bl	10004794 <__assert_func>
10003ea4:	4b1f      	ldr	r3, [pc, #124]	; (10003f24 <sleep_until+0xe0>)
10003ea6:	4a20      	ldr	r2, [pc, #128]	; (10003f28 <sleep_until+0xe4>)
10003ea8:	213f      	movs	r1, #63	; 0x3f
10003eaa:	4820      	ldr	r0, [pc, #128]	; (10003f2c <sleep_until+0xe8>)
10003eac:	f000 fc72 	bl	10004794 <__assert_func>
10003eb0:	2c00      	cmp	r4, #0
10003eb2:	d0e8      	beq.n	10003e86 <sleep_until+0x42>
10003eb4:	f7ff fe90 	bl	10003bd8 <alarm_pool_get_default>
10003eb8:	2300      	movs	r3, #0
10003eba:	9302      	str	r3, [sp, #8]
10003ebc:	9301      	str	r3, [sp, #4]
10003ebe:	4b1c      	ldr	r3, [pc, #112]	; (10003f30 <sleep_until+0xec>)
10003ec0:	9300      	str	r3, [sp, #0]
10003ec2:	9a04      	ldr	r2, [sp, #16]
10003ec4:	9b05      	ldr	r3, [sp, #20]
10003ec6:	f7ff fe9d 	bl	10003c04 <alarm_pool_add_alarm_at>
10003eca:	2800      	cmp	r0, #0
10003ecc:	da18      	bge.n	10003f00 <sleep_until+0xbc>
10003ece:	e7da      	b.n	10003e86 <sleep_until+0x42>
10003ed0:	2300      	movs	r3, #0
10003ed2:	e000      	b.n	10003ed6 <sleep_until+0x92>
10003ed4:	2300      	movs	r3, #0
10003ed6:	2b00      	cmp	r3, #0
10003ed8:	d1d5      	bne.n	10003e86 <sleep_until+0x42>
10003eda:	4b16      	ldr	r3, [pc, #88]	; (10003f34 <sleep_until+0xf0>)
10003edc:	681a      	ldr	r2, [r3, #0]
10003ede:	f3ef 8110 	mrs	r1, PRIMASK
10003ee2:	b672      	cpsid	i
10003ee4:	6813      	ldr	r3, [r2, #0]
10003ee6:	2b00      	cmp	r3, #0
10003ee8:	d0fc      	beq.n	10003ee4 <sleep_until+0xa0>
10003eea:	f3bf 8f5f 	dmb	sy
10003eee:	4b11      	ldr	r3, [pc, #68]	; (10003f34 <sleep_until+0xf0>)
10003ef0:	681b      	ldr	r3, [r3, #0]
10003ef2:	f3bf 8f5f 	dmb	sy
10003ef6:	2200      	movs	r2, #0
10003ef8:	601a      	str	r2, [r3, #0]
10003efa:	f381 8810 	msr	PRIMASK, r1
10003efe:	bf20      	wfe
10003f00:	9904      	ldr	r1, [sp, #16]
10003f02:	9a05      	ldr	r2, [sp, #20]
10003f04:	4b0c      	ldr	r3, [pc, #48]	; (10003f38 <sleep_until+0xf4>)
10003f06:	6a5b      	ldr	r3, [r3, #36]	; 0x24
10003f08:	429a      	cmp	r2, r3
10003f0a:	d8e3      	bhi.n	10003ed4 <sleep_until+0x90>
10003f0c:	480a      	ldr	r0, [pc, #40]	; (10003f38 <sleep_until+0xf4>)
10003f0e:	6a80      	ldr	r0, [r0, #40]	; 0x28
10003f10:	4288      	cmp	r0, r1
10003f12:	d203      	bcs.n	10003f1c <sleep_until+0xd8>
10003f14:	429a      	cmp	r2, r3
10003f16:	d0db      	beq.n	10003ed0 <sleep_until+0x8c>
10003f18:	2301      	movs	r3, #1
10003f1a:	e7dc      	b.n	10003ed6 <sleep_until+0x92>
10003f1c:	2301      	movs	r3, #1
10003f1e:	e7da      	b.n	10003ed6 <sleep_until+0x92>
10003f20:	1000b0f8 	.word	0x1000b0f8
10003f24:	1000a2c8 	.word	0x1000a2c8
10003f28:	1000ae00 	.word	0x1000ae00
10003f2c:	1000a2e4 	.word	0x1000a2e4
10003f30:	10003529 	.word	0x10003529
10003f34:	20008fa4 	.word	0x20008fa4
10003f38:	40054000 	.word	0x40054000

10003f3c <sleep_us>:
10003f3c:	b570      	push	{r4, r5, r6, lr}
10003f3e:	0004      	movs	r4, r0
10003f40:	000d      	movs	r5, r1
10003f42:	f000 f8c1 	bl	100040c8 <time_us_64>
10003f46:	2900      	cmp	r1, #0
10003f48:	db10      	blt.n	10003f6c <sleep_us+0x30>
10003f4a:	0002      	movs	r2, r0
10003f4c:	000b      	movs	r3, r1
10003f4e:	1900      	adds	r0, r0, r4
10003f50:	4169      	adcs	r1, r5
10003f52:	428b      	cmp	r3, r1
10003f54:	d802      	bhi.n	10003f5c <sleep_us+0x20>
10003f56:	d104      	bne.n	10003f62 <sleep_us+0x26>
10003f58:	4282      	cmp	r2, r0
10003f5a:	d902      	bls.n	10003f62 <sleep_us+0x26>
10003f5c:	2001      	movs	r0, #1
10003f5e:	4240      	negs	r0, r0
10003f60:	17c1      	asrs	r1, r0, #31
10003f62:	2900      	cmp	r1, #0
10003f64:	db08      	blt.n	10003f78 <sleep_us+0x3c>
10003f66:	f7ff ff6d 	bl	10003e44 <sleep_until>
10003f6a:	bd70      	pop	{r4, r5, r6, pc}
10003f6c:	4b05      	ldr	r3, [pc, #20]	; (10003f84 <sleep_us+0x48>)
10003f6e:	4a06      	ldr	r2, [pc, #24]	; (10003f88 <sleep_us+0x4c>)
10003f70:	213f      	movs	r1, #63	; 0x3f
10003f72:	4806      	ldr	r0, [pc, #24]	; (10003f8c <sleep_us+0x50>)
10003f74:	f000 fc0e 	bl	10004794 <__assert_func>
10003f78:	4b02      	ldr	r3, [pc, #8]	; (10003f84 <sleep_us+0x48>)
10003f7a:	4a03      	ldr	r2, [pc, #12]	; (10003f88 <sleep_us+0x4c>)
10003f7c:	213f      	movs	r1, #63	; 0x3f
10003f7e:	4803      	ldr	r0, [pc, #12]	; (10003f8c <sleep_us+0x50>)
10003f80:	f000 fc08 	bl	10004794 <__assert_func>
10003f84:	1000a2c8 	.word	0x1000a2c8
10003f88:	1000ae00 	.word	0x1000ae00
10003f8c:	1000a2e4 	.word	0x1000a2e4

10003f90 <sleep_ms>:
10003f90:	b510      	push	{r4, lr}
10003f92:	22fa      	movs	r2, #250	; 0xfa
10003f94:	0092      	lsls	r2, r2, #2
10003f96:	2300      	movs	r3, #0
10003f98:	2100      	movs	r1, #0
10003f9a:	f002 fdf9 	bl	10006b90 <__wrap___aeabi_lmul>
10003f9e:	f7ff ffcd 	bl	10003f3c <sleep_us>
10003fa2:	bd10      	pop	{r4, pc}

10003fa4 <best_effort_wfe_or_timeout>:
10003fa4:	b570      	push	{r4, r5, r6, lr}
10003fa6:	b084      	sub	sp, #16
10003fa8:	0005      	movs	r5, r0
10003faa:	000c      	movs	r4, r1
10003fac:	f7ff fe14 	bl	10003bd8 <alarm_pool_get_default>
10003fb0:	2300      	movs	r3, #0
10003fb2:	9302      	str	r3, [sp, #8]
10003fb4:	9301      	str	r3, [sp, #4]
10003fb6:	4b19      	ldr	r3, [pc, #100]	; (1000401c <best_effort_wfe_or_timeout+0x78>)
10003fb8:	9300      	str	r3, [sp, #0]
10003fba:	002a      	movs	r2, r5
10003fbc:	0023      	movs	r3, r4
10003fbe:	f7ff fe21 	bl	10003c04 <alarm_pool_add_alarm_at>
10003fc2:	1e06      	subs	r6, r0, #0
10003fc4:	dc12      	bgt.n	10003fec <best_effort_wfe_or_timeout+0x48>
10003fc6:	4b16      	ldr	r3, [pc, #88]	; (10004020 <best_effort_wfe_or_timeout+0x7c>)
10003fc8:	6a5b      	ldr	r3, [r3, #36]	; 0x24
10003fca:	429c      	cmp	r4, r3
10003fcc:	d809      	bhi.n	10003fe2 <best_effort_wfe_or_timeout+0x3e>
10003fce:	4a14      	ldr	r2, [pc, #80]	; (10004020 <best_effort_wfe_or_timeout+0x7c>)
10003fd0:	6a92      	ldr	r2, [r2, #40]	; 0x28
10003fd2:	42aa      	cmp	r2, r5
10003fd4:	d208      	bcs.n	10003fe8 <best_effort_wfe_or_timeout+0x44>
10003fd6:	429c      	cmp	r4, r3
10003fd8:	d001      	beq.n	10003fde <best_effort_wfe_or_timeout+0x3a>
10003fda:	2001      	movs	r0, #1
10003fdc:	e002      	b.n	10003fe4 <best_effort_wfe_or_timeout+0x40>
10003fde:	2000      	movs	r0, #0
10003fe0:	e000      	b.n	10003fe4 <best_effort_wfe_or_timeout+0x40>
10003fe2:	2000      	movs	r0, #0
10003fe4:	b004      	add	sp, #16
10003fe6:	bd70      	pop	{r4, r5, r6, pc}
10003fe8:	2001      	movs	r0, #1
10003fea:	e7fb      	b.n	10003fe4 <best_effort_wfe_or_timeout+0x40>
10003fec:	bf20      	wfe
10003fee:	f7ff fdf3 	bl	10003bd8 <alarm_pool_get_default>
10003ff2:	0031      	movs	r1, r6
10003ff4:	f7ff feb0 	bl	10003d58 <alarm_pool_cancel_alarm>
10003ff8:	4b09      	ldr	r3, [pc, #36]	; (10004020 <best_effort_wfe_or_timeout+0x7c>)
10003ffa:	6a5b      	ldr	r3, [r3, #36]	; 0x24
10003ffc:	429c      	cmp	r4, r3
10003ffe:	d809      	bhi.n	10004014 <best_effort_wfe_or_timeout+0x70>
10004000:	4a07      	ldr	r2, [pc, #28]	; (10004020 <best_effort_wfe_or_timeout+0x7c>)
10004002:	6a92      	ldr	r2, [r2, #40]	; 0x28
10004004:	42aa      	cmp	r2, r5
10004006:	d207      	bcs.n	10004018 <best_effort_wfe_or_timeout+0x74>
10004008:	429c      	cmp	r4, r3
1000400a:	d001      	beq.n	10004010 <best_effort_wfe_or_timeout+0x6c>
1000400c:	2001      	movs	r0, #1
1000400e:	e7e9      	b.n	10003fe4 <best_effort_wfe_or_timeout+0x40>
10004010:	2000      	movs	r0, #0
10004012:	e7e7      	b.n	10003fe4 <best_effort_wfe_or_timeout+0x40>
10004014:	2000      	movs	r0, #0
10004016:	e7e5      	b.n	10003fe4 <best_effort_wfe_or_timeout+0x40>
10004018:	2001      	movs	r0, #1
1000401a:	e7e3      	b.n	10003fe4 <best_effort_wfe_or_timeout+0x40>
1000401c:	10003529 	.word	0x10003529
10004020:	40054000 	.word	0x40054000

10004024 <hardware_alarm_irq_handler>:
10004024:	b570      	push	{r4, r5, r6, lr}
10004026:	f3ef 8305 	mrs	r3, IPSR
1000402a:	203f      	movs	r0, #63	; 0x3f
1000402c:	4018      	ands	r0, r3
1000402e:	3810      	subs	r0, #16
10004030:	f3ef 8410 	mrs	r4, PRIMASK
10004034:	b672      	cpsid	i
10004036:	4b19      	ldr	r3, [pc, #100]	; (1000409c <hardware_alarm_irq_handler+0x78>)
10004038:	681b      	ldr	r3, [r3, #0]
1000403a:	2b00      	cmp	r3, #0
1000403c:	d0fb      	beq.n	10004036 <hardware_alarm_irq_handler+0x12>
1000403e:	f3bf 8f5f 	dmb	sy
10004042:	2301      	movs	r3, #1
10004044:	0019      	movs	r1, r3
10004046:	4081      	lsls	r1, r0
10004048:	4a15      	ldr	r2, [pc, #84]	; (100040a0 <hardware_alarm_irq_handler+0x7c>)
1000404a:	6351      	str	r1, [r2, #52]	; 0x34
1000404c:	4a15      	ldr	r2, [pc, #84]	; (100040a4 <hardware_alarm_irq_handler+0x80>)
1000404e:	7812      	ldrb	r2, [r2, #0]
10004050:	0015      	movs	r5, r2
10004052:	40c5      	lsrs	r5, r0
10004054:	422b      	tst	r3, r5
10004056:	d014      	beq.n	10004082 <hardware_alarm_irq_handler+0x5e>
10004058:	4b11      	ldr	r3, [pc, #68]	; (100040a0 <hardware_alarm_irq_handler+0x7c>)
1000405a:	6a5d      	ldr	r5, [r3, #36]	; 0x24
1000405c:	0083      	lsls	r3, r0, #2
1000405e:	4e12      	ldr	r6, [pc, #72]	; (100040a8 <hardware_alarm_irq_handler+0x84>)
10004060:	599b      	ldr	r3, [r3, r6]
10004062:	429d      	cmp	r5, r3
10004064:	d306      	bcc.n	10004074 <hardware_alarm_irq_handler+0x50>
10004066:	0083      	lsls	r3, r0, #2
10004068:	4d10      	ldr	r5, [pc, #64]	; (100040ac <hardware_alarm_irq_handler+0x88>)
1000406a:	595b      	ldr	r3, [r3, r5]
1000406c:	438a      	bics	r2, r1
1000406e:	490d      	ldr	r1, [pc, #52]	; (100040a4 <hardware_alarm_irq_handler+0x80>)
10004070:	700a      	strb	r2, [r1, #0]
10004072:	e007      	b.n	10004084 <hardware_alarm_irq_handler+0x60>
10004074:	4a0a      	ldr	r2, [pc, #40]	; (100040a0 <hardware_alarm_irq_handler+0x7c>)
10004076:	1d03      	adds	r3, r0, #4
10004078:	009b      	lsls	r3, r3, #2
1000407a:	5899      	ldr	r1, [r3, r2]
1000407c:	5099      	str	r1, [r3, r2]
1000407e:	2300      	movs	r3, #0
10004080:	e000      	b.n	10004084 <hardware_alarm_irq_handler+0x60>
10004082:	2300      	movs	r3, #0
10004084:	f3bf 8f5f 	dmb	sy
10004088:	4a04      	ldr	r2, [pc, #16]	; (1000409c <hardware_alarm_irq_handler+0x78>)
1000408a:	2100      	movs	r1, #0
1000408c:	6011      	str	r1, [r2, #0]
1000408e:	f384 8810 	msr	PRIMASK, r4
10004092:	2b00      	cmp	r3, #0
10004094:	d000      	beq.n	10004098 <hardware_alarm_irq_handler+0x74>
10004096:	4798      	blx	r3
10004098:	bd70      	pop	{r4, r5, r6, pc}
1000409a:	46c0      	nop			; (mov r8, r8)
1000409c:	d0000128 	.word	0xd0000128
100040a0:	40054000 	.word	0x40054000
100040a4:	20008fdf 	.word	0x20008fdf
100040a8:	20008fb0 	.word	0x20008fb0
100040ac:	200089c8 	.word	0x200089c8

100040b0 <hardware_alarm_claim>:
100040b0:	b510      	push	{r4, lr}
100040b2:	0001      	movs	r1, r0
100040b4:	4a02      	ldr	r2, [pc, #8]	; (100040c0 <hardware_alarm_claim+0x10>)
100040b6:	4803      	ldr	r0, [pc, #12]	; (100040c4 <hardware_alarm_claim+0x14>)
100040b8:	f7fe fe6c 	bl	10002d94 <hw_claim_or_assert>
100040bc:	bd10      	pop	{r4, pc}
100040be:	46c0      	nop			; (mov r8, r8)
100040c0:	1000b17c 	.word	0x1000b17c
100040c4:	20008fda 	.word	0x20008fda

100040c8 <time_us_64>:
100040c8:	4b04      	ldr	r3, [pc, #16]	; (100040dc <time_us_64+0x14>)
100040ca:	6a59      	ldr	r1, [r3, #36]	; 0x24
100040cc:	e000      	b.n	100040d0 <time_us_64+0x8>
100040ce:	0019      	movs	r1, r3
100040d0:	4b02      	ldr	r3, [pc, #8]	; (100040dc <time_us_64+0x14>)
100040d2:	6a98      	ldr	r0, [r3, #40]	; 0x28
100040d4:	6a5b      	ldr	r3, [r3, #36]	; 0x24
100040d6:	4299      	cmp	r1, r3
100040d8:	d1f9      	bne.n	100040ce <time_us_64+0x6>
100040da:	4770      	bx	lr
100040dc:	40054000 	.word	0x40054000

100040e0 <busy_wait_until>:
100040e0:	4b07      	ldr	r3, [pc, #28]	; (10004100 <busy_wait_until+0x20>)
100040e2:	6a5b      	ldr	r3, [r3, #36]	; 0x24
100040e4:	428b      	cmp	r3, r1
100040e6:	d204      	bcs.n	100040f2 <busy_wait_until+0x12>
100040e8:	4b05      	ldr	r3, [pc, #20]	; (10004100 <busy_wait_until+0x20>)
100040ea:	6a5b      	ldr	r3, [r3, #36]	; 0x24
100040ec:	e7fa      	b.n	100040e4 <busy_wait_until+0x4>
100040ee:	4b04      	ldr	r3, [pc, #16]	; (10004100 <busy_wait_until+0x20>)
100040f0:	6a5b      	ldr	r3, [r3, #36]	; 0x24
100040f2:	428b      	cmp	r3, r1
100040f4:	d103      	bne.n	100040fe <busy_wait_until+0x1e>
100040f6:	4b02      	ldr	r3, [pc, #8]	; (10004100 <busy_wait_until+0x20>)
100040f8:	6a9b      	ldr	r3, [r3, #40]	; 0x28
100040fa:	4283      	cmp	r3, r0
100040fc:	d3f7      	bcc.n	100040ee <busy_wait_until+0xe>
100040fe:	4770      	bx	lr
10004100:	40054000 	.word	0x40054000

10004104 <busy_wait_us>:
10004104:	b570      	push	{r4, r5, r6, lr}
10004106:	0004      	movs	r4, r0
10004108:	000d      	movs	r5, r1
1000410a:	f7ff ffdd 	bl	100040c8 <time_us_64>
1000410e:	0002      	movs	r2, r0
10004110:	000b      	movs	r3, r1
10004112:	0020      	movs	r0, r4
10004114:	0029      	movs	r1, r5
10004116:	1880      	adds	r0, r0, r2
10004118:	4159      	adcs	r1, r3
1000411a:	428b      	cmp	r3, r1
1000411c:	d802      	bhi.n	10004124 <busy_wait_us+0x20>
1000411e:	d104      	bne.n	1000412a <busy_wait_us+0x26>
10004120:	4282      	cmp	r2, r0
10004122:	d902      	bls.n	1000412a <busy_wait_us+0x26>
10004124:	2001      	movs	r0, #1
10004126:	4240      	negs	r0, r0
10004128:	17c1      	asrs	r1, r0, #31
1000412a:	2900      	cmp	r1, #0
1000412c:	db02      	blt.n	10004134 <busy_wait_us+0x30>
1000412e:	f7ff ffd7 	bl	100040e0 <busy_wait_until>
10004132:	bd70      	pop	{r4, r5, r6, pc}
10004134:	4b02      	ldr	r3, [pc, #8]	; (10004140 <busy_wait_us+0x3c>)
10004136:	4a03      	ldr	r2, [pc, #12]	; (10004144 <busy_wait_us+0x40>)
10004138:	213f      	movs	r1, #63	; 0x3f
1000413a:	4803      	ldr	r0, [pc, #12]	; (10004148 <busy_wait_us+0x44>)
1000413c:	f000 fb2a 	bl	10004794 <__assert_func>
10004140:	1000a2c8 	.word	0x1000a2c8
10004144:	1000b148 	.word	0x1000b148
10004148:	1000a2e4 	.word	0x1000a2e4

1000414c <hardware_alarm_set_callback>:
1000414c:	b570      	push	{r4, r5, r6, lr}
1000414e:	0004      	movs	r4, r0
10004150:	000d      	movs	r5, r1
10004152:	f3ef 8610 	mrs	r6, PRIMASK
10004156:	b672      	cpsid	i
10004158:	4b1b      	ldr	r3, [pc, #108]	; (100041c8 <hardware_alarm_set_callback+0x7c>)
1000415a:	681b      	ldr	r3, [r3, #0]
1000415c:	2b00      	cmp	r3, #0
1000415e:	d0fb      	beq.n	10004158 <hardware_alarm_set_callback+0xc>
10004160:	f3bf 8f5f 	dmb	sy
10004164:	2d00      	cmp	r5, #0
10004166:	d01c      	beq.n	100041a2 <hardware_alarm_set_callback+0x56>
10004168:	0020      	movs	r0, r4
1000416a:	f7fe ff11 	bl	10002f90 <irq_get_vtable_handler>
1000416e:	4b17      	ldr	r3, [pc, #92]	; (100041cc <hardware_alarm_set_callback+0x80>)
10004170:	4298      	cmp	r0, r3
10004172:	d00b      	beq.n	1000418c <hardware_alarm_set_callback+0x40>
10004174:	0019      	movs	r1, r3
10004176:	0020      	movs	r0, r4
10004178:	f7fe ff24 	bl	10002fc4 <irq_set_exclusive_handler>
1000417c:	2101      	movs	r1, #1
1000417e:	0020      	movs	r0, r4
10004180:	f7fe fef6 	bl	10002f70 <irq_set_enabled>
10004184:	2301      	movs	r3, #1
10004186:	40a3      	lsls	r3, r4
10004188:	4a11      	ldr	r2, [pc, #68]	; (100041d0 <hardware_alarm_set_callback+0x84>)
1000418a:	6013      	str	r3, [r2, #0]
1000418c:	00a4      	lsls	r4, r4, #2
1000418e:	4b11      	ldr	r3, [pc, #68]	; (100041d4 <hardware_alarm_set_callback+0x88>)
10004190:	50e5      	str	r5, [r4, r3]
10004192:	f3bf 8f5f 	dmb	sy
10004196:	4b0c      	ldr	r3, [pc, #48]	; (100041c8 <hardware_alarm_set_callback+0x7c>)
10004198:	2200      	movs	r2, #0
1000419a:	601a      	str	r2, [r3, #0]
1000419c:	f386 8810 	msr	PRIMASK, r6
100041a0:	bd70      	pop	{r4, r5, r6, pc}
100041a2:	00a2      	lsls	r2, r4, #2
100041a4:	4b0b      	ldr	r3, [pc, #44]	; (100041d4 <hardware_alarm_set_callback+0x88>)
100041a6:	2100      	movs	r1, #0
100041a8:	50d1      	str	r1, [r2, r3]
100041aa:	2201      	movs	r2, #1
100041ac:	40a2      	lsls	r2, r4
100041ae:	490a      	ldr	r1, [pc, #40]	; (100041d8 <hardware_alarm_set_callback+0x8c>)
100041b0:	780b      	ldrb	r3, [r1, #0]
100041b2:	4393      	bics	r3, r2
100041b4:	700b      	strb	r3, [r1, #0]
100041b6:	4905      	ldr	r1, [pc, #20]	; (100041cc <hardware_alarm_set_callback+0x80>)
100041b8:	0020      	movs	r0, r4
100041ba:	f7ff f83f 	bl	1000323c <irq_remove_handler>
100041be:	2100      	movs	r1, #0
100041c0:	0020      	movs	r0, r4
100041c2:	f7fe fed5 	bl	10002f70 <irq_set_enabled>
100041c6:	e7e4      	b.n	10004192 <hardware_alarm_set_callback+0x46>
100041c8:	d0000128 	.word	0xd0000128
100041cc:	10004025 	.word	0x10004025
100041d0:	40056038 	.word	0x40056038
100041d4:	200089c8 	.word	0x200089c8
100041d8:	20008fdf 	.word	0x20008fdf

100041dc <hardware_alarm_set_target>:
100041dc:	b5f0      	push	{r4, r5, r6, r7, lr}
100041de:	46de      	mov	lr, fp
100041e0:	b500      	push	{lr}
100041e2:	b084      	sub	sp, #16
100041e4:	0005      	movs	r5, r0
100041e6:	0014      	movs	r4, r2
100041e8:	9201      	str	r2, [sp, #4]
100041ea:	001e      	movs	r6, r3
100041ec:	9302      	str	r3, [sp, #8]
100041ee:	f7ff ff6b 	bl	100040c8 <time_us_64>
100041f2:	9403      	str	r4, [sp, #12]
100041f4:	428e      	cmp	r6, r1
100041f6:	d802      	bhi.n	100041fe <hardware_alarm_set_target+0x22>
100041f8:	d14e      	bne.n	10004298 <hardware_alarm_set_target+0xbc>
100041fa:	4284      	cmp	r4, r0
100041fc:	d94c      	bls.n	10004298 <hardware_alarm_set_target+0xbc>
100041fe:	f3ef 8b10 	mrs	fp, PRIMASK
10004202:	b672      	cpsid	i
10004204:	4b27      	ldr	r3, [pc, #156]	; (100042a4 <hardware_alarm_set_target+0xc8>)
10004206:	681b      	ldr	r3, [r3, #0]
10004208:	2b00      	cmp	r3, #0
1000420a:	d0fb      	beq.n	10004204 <hardware_alarm_set_target+0x28>
1000420c:	f3bf 8f5f 	dmb	sy
10004210:	4a25      	ldr	r2, [pc, #148]	; (100042a8 <hardware_alarm_set_target+0xcc>)
10004212:	7817      	ldrb	r7, [r2, #0]
10004214:	2401      	movs	r4, #1
10004216:	40ac      	lsls	r4, r5
10004218:	b2e3      	uxtb	r3, r4
1000421a:	433b      	orrs	r3, r7
1000421c:	7013      	strb	r3, [r2, #0]
1000421e:	4b23      	ldr	r3, [pc, #140]	; (100042ac <hardware_alarm_set_target+0xd0>)
10004220:	635c      	str	r4, [r3, #52]	; 0x34
10004222:	1d2a      	adds	r2, r5, #4
10004224:	0092      	lsls	r2, r2, #2
10004226:	9901      	ldr	r1, [sp, #4]
10004228:	50d1      	str	r1, [r2, r3]
1000422a:	00aa      	lsls	r2, r5, #2
1000422c:	4920      	ldr	r1, [pc, #128]	; (100042b0 <hardware_alarm_set_target+0xd4>)
1000422e:	9802      	ldr	r0, [sp, #8]
10004230:	5050      	str	r0, [r2, r1]
10004232:	6a1b      	ldr	r3, [r3, #32]
10004234:	4223      	tst	r3, r4
10004236:	d112      	bne.n	1000425e <hardware_alarm_set_target+0x82>
10004238:	4b1c      	ldr	r3, [pc, #112]	; (100042ac <hardware_alarm_set_target+0xd0>)
1000423a:	6c1b      	ldr	r3, [r3, #64]	; 0x40
1000423c:	4223      	tst	r3, r4
1000423e:	d008      	beq.n	10004252 <hardware_alarm_set_target+0x76>
10004240:	2000      	movs	r0, #0
10004242:	f3bf 8f5f 	dmb	sy
10004246:	4b17      	ldr	r3, [pc, #92]	; (100042a4 <hardware_alarm_set_target+0xc8>)
10004248:	2200      	movs	r2, #0
1000424a:	601a      	str	r2, [r3, #0]
1000424c:	f38b 8810 	msr	PRIMASK, fp
10004250:	e023      	b.n	1000429a <hardware_alarm_set_target+0xbe>
10004252:	4b18      	ldr	r3, [pc, #96]	; (100042b4 <hardware_alarm_set_target+0xd8>)
10004254:	4a18      	ldr	r2, [pc, #96]	; (100042b8 <hardware_alarm_set_target+0xdc>)
10004256:	21c1      	movs	r1, #193	; 0xc1
10004258:	4818      	ldr	r0, [pc, #96]	; (100042bc <hardware_alarm_set_target+0xe0>)
1000425a:	f000 fa9b 	bl	10004794 <__assert_func>
1000425e:	f7ff ff33 	bl	100040c8 <time_us_64>
10004262:	428e      	cmp	r6, r1
10004264:	d814      	bhi.n	10004290 <hardware_alarm_set_target+0xb4>
10004266:	d102      	bne.n	1000426e <hardware_alarm_set_target+0x92>
10004268:	9b03      	ldr	r3, [sp, #12]
1000426a:	4283      	cmp	r3, r0
1000426c:	d810      	bhi.n	10004290 <hardware_alarm_set_target+0xb4>
1000426e:	4b0e      	ldr	r3, [pc, #56]	; (100042a8 <hardware_alarm_set_target+0xcc>)
10004270:	781b      	ldrb	r3, [r3, #0]
10004272:	42bb      	cmp	r3, r7
10004274:	d00e      	beq.n	10004294 <hardware_alarm_set_target+0xb8>
10004276:	4b0d      	ldr	r3, [pc, #52]	; (100042ac <hardware_alarm_set_target+0xd0>)
10004278:	621c      	str	r4, [r3, #32]
1000427a:	635c      	str	r4, [r3, #52]	; 0x34
1000427c:	221f      	movs	r2, #31
1000427e:	402a      	ands	r2, r5
10004280:	2301      	movs	r3, #1
10004282:	4093      	lsls	r3, r2
10004284:	4a0e      	ldr	r2, [pc, #56]	; (100042c0 <hardware_alarm_set_target+0xe4>)
10004286:	6013      	str	r3, [r2, #0]
10004288:	4b07      	ldr	r3, [pc, #28]	; (100042a8 <hardware_alarm_set_target+0xcc>)
1000428a:	701f      	strb	r7, [r3, #0]
1000428c:	2001      	movs	r0, #1
1000428e:	e7d8      	b.n	10004242 <hardware_alarm_set_target+0x66>
10004290:	2000      	movs	r0, #0
10004292:	e7d6      	b.n	10004242 <hardware_alarm_set_target+0x66>
10004294:	2001      	movs	r0, #1
10004296:	e7d4      	b.n	10004242 <hardware_alarm_set_target+0x66>
10004298:	2001      	movs	r0, #1
1000429a:	b004      	add	sp, #16
1000429c:	bc04      	pop	{r2}
1000429e:	4693      	mov	fp, r2
100042a0:	bdf0      	pop	{r4, r5, r6, r7, pc}
100042a2:	46c0      	nop			; (mov r8, r8)
100042a4:	d0000128 	.word	0xd0000128
100042a8:	20008fdf 	.word	0x20008fdf
100042ac:	40054000 	.word	0x40054000
100042b0:	20008fb0 	.word	0x20008fb0
100042b4:	1000b1a0 	.word	0x1000b1a0
100042b8:	1000b160 	.word	0x1000b160
100042bc:	1000b1c4 	.word	0x1000b1c4
100042c0:	e000e280 	.word	0xe000e280

100042c4 <hardware_alarm_cancel>:
100042c4:	b510      	push	{r4, lr}
100042c6:	f3ef 8410 	mrs	r4, PRIMASK
100042ca:	b672      	cpsid	i
100042cc:	4b0a      	ldr	r3, [pc, #40]	; (100042f8 <hardware_alarm_cancel+0x34>)
100042ce:	681b      	ldr	r3, [r3, #0]
100042d0:	2b00      	cmp	r3, #0
100042d2:	d0fb      	beq.n	100042cc <hardware_alarm_cancel+0x8>
100042d4:	f3bf 8f5f 	dmb	sy
100042d8:	2301      	movs	r3, #1
100042da:	4083      	lsls	r3, r0
100042dc:	4a07      	ldr	r2, [pc, #28]	; (100042fc <hardware_alarm_cancel+0x38>)
100042de:	6213      	str	r3, [r2, #32]
100042e0:	4907      	ldr	r1, [pc, #28]	; (10004300 <hardware_alarm_cancel+0x3c>)
100042e2:	780a      	ldrb	r2, [r1, #0]
100042e4:	439a      	bics	r2, r3
100042e6:	700a      	strb	r2, [r1, #0]
100042e8:	f3bf 8f5f 	dmb	sy
100042ec:	4b02      	ldr	r3, [pc, #8]	; (100042f8 <hardware_alarm_cancel+0x34>)
100042ee:	2200      	movs	r2, #0
100042f0:	601a      	str	r2, [r3, #0]
100042f2:	f384 8810 	msr	PRIMASK, r4
100042f6:	bd10      	pop	{r4, pc}
100042f8:	d0000128 	.word	0xd0000128
100042fc:	40054000 	.word	0x40054000
10004300:	20008fdf 	.word	0x20008fdf

10004304 <ph_add_child_node>:
10004304:	b510      	push	{r4, lr}
10004306:	2900      	cmp	r1, #0
10004308:	d01e      	beq.n	10004348 <ph_add_child_node+0x44>
1000430a:	7b03      	ldrb	r3, [r0, #12]
1000430c:	4299      	cmp	r1, r3
1000430e:	d81b      	bhi.n	10004348 <ph_add_child_node+0x44>
10004310:	004b      	lsls	r3, r1, #1
10004312:	185b      	adds	r3, r3, r1
10004314:	3b03      	subs	r3, #3
10004316:	6804      	ldr	r4, [r0, #0]
10004318:	46a4      	mov	ip, r4
1000431a:	4463      	add	r3, ip
1000431c:	2900      	cmp	r1, #0
1000431e:	d019      	beq.n	10004354 <ph_add_child_node+0x50>
10004320:	2a00      	cmp	r2, #0
10004322:	d01d      	beq.n	10004360 <ph_add_child_node+0x5c>
10004324:	4291      	cmp	r1, r2
10004326:	d021      	beq.n	1000436c <ph_add_child_node+0x68>
10004328:	2a00      	cmp	r2, #0
1000432a:	d025      	beq.n	10004378 <ph_add_child_node+0x74>
1000432c:	7b04      	ldrb	r4, [r0, #12]
1000432e:	42a2      	cmp	r2, r4
10004330:	d822      	bhi.n	10004378 <ph_add_child_node+0x74>
10004332:	6804      	ldr	r4, [r0, #0]
10004334:	0050      	lsls	r0, r2, #1
10004336:	1880      	adds	r0, r0, r2
10004338:	3803      	subs	r0, #3
1000433a:	1820      	adds	r0, r4, r0
1000433c:	7081      	strb	r1, [r0, #2]
1000433e:	7819      	ldrb	r1, [r3, #0]
10004340:	2900      	cmp	r1, #0
10004342:	d11f      	bne.n	10004384 <ph_add_child_node+0x80>
10004344:	701a      	strb	r2, [r3, #0]
10004346:	bd10      	pop	{r4, pc}
10004348:	4b10      	ldr	r3, [pc, #64]	; (1000438c <ph_add_child_node+0x88>)
1000434a:	4a11      	ldr	r2, [pc, #68]	; (10004390 <ph_add_child_node+0x8c>)
1000434c:	2168      	movs	r1, #104	; 0x68
1000434e:	4811      	ldr	r0, [pc, #68]	; (10004394 <ph_add_child_node+0x90>)
10004350:	f000 fa20 	bl	10004794 <__assert_func>
10004354:	4b10      	ldr	r3, [pc, #64]	; (10004398 <ph_add_child_node+0x94>)
10004356:	4a11      	ldr	r2, [pc, #68]	; (1000439c <ph_add_child_node+0x98>)
10004358:	316f      	adds	r1, #111	; 0x6f
1000435a:	480e      	ldr	r0, [pc, #56]	; (10004394 <ph_add_child_node+0x90>)
1000435c:	f000 fa1a 	bl	10004794 <__assert_func>
10004360:	4b0f      	ldr	r3, [pc, #60]	; (100043a0 <ph_add_child_node+0x9c>)
10004362:	4a0e      	ldr	r2, [pc, #56]	; (1000439c <ph_add_child_node+0x98>)
10004364:	2170      	movs	r1, #112	; 0x70
10004366:	480b      	ldr	r0, [pc, #44]	; (10004394 <ph_add_child_node+0x90>)
10004368:	f000 fa14 	bl	10004794 <__assert_func>
1000436c:	4b0d      	ldr	r3, [pc, #52]	; (100043a4 <ph_add_child_node+0xa0>)
1000436e:	4a0b      	ldr	r2, [pc, #44]	; (1000439c <ph_add_child_node+0x98>)
10004370:	2171      	movs	r1, #113	; 0x71
10004372:	4808      	ldr	r0, [pc, #32]	; (10004394 <ph_add_child_node+0x90>)
10004374:	f000 fa0e 	bl	10004794 <__assert_func>
10004378:	4b04      	ldr	r3, [pc, #16]	; (1000438c <ph_add_child_node+0x88>)
1000437a:	4a05      	ldr	r2, [pc, #20]	; (10004390 <ph_add_child_node+0x8c>)
1000437c:	2168      	movs	r1, #104	; 0x68
1000437e:	4805      	ldr	r0, [pc, #20]	; (10004394 <ph_add_child_node+0x90>)
10004380:	f000 fa08 	bl	10004794 <__assert_func>
10004384:	7041      	strb	r1, [r0, #1]
10004386:	701a      	strb	r2, [r3, #0]
10004388:	e7dd      	b.n	10004346 <ph_add_child_node+0x42>
1000438a:	46c0      	nop			; (mov r8, r8)
1000438c:	1000b008 	.word	0x1000b008
10004390:	1000b20c 	.word	0x1000b20c
10004394:	1000b024 	.word	0x1000b024
10004398:	1000b074 	.word	0x1000b074
1000439c:	1000b218 	.word	0x1000b218
100043a0:	1000b080 	.word	0x1000b080
100043a4:	1000b08c 	.word	0x1000b08c

100043a8 <ph_merge_nodes>:
100043a8:	b570      	push	{r4, r5, r6, lr}
100043aa:	0006      	movs	r6, r0
100043ac:	000d      	movs	r5, r1
100043ae:	0014      	movs	r4, r2
100043b0:	2900      	cmp	r1, #0
100043b2:	d014      	beq.n	100043de <ph_merge_nodes+0x36>
100043b4:	2a00      	cmp	r2, #0
100043b6:	d014      	beq.n	100043e2 <ph_merge_nodes+0x3a>
100043b8:	6880      	ldr	r0, [r0, #8]
100043ba:	6873      	ldr	r3, [r6, #4]
100043bc:	4798      	blx	r3
100043be:	2800      	cmp	r0, #0
100043c0:	d006      	beq.n	100043d0 <ph_merge_nodes+0x28>
100043c2:	0022      	movs	r2, r4
100043c4:	0029      	movs	r1, r5
100043c6:	0030      	movs	r0, r6
100043c8:	f7ff ff9c 	bl	10004304 <ph_add_child_node>
100043cc:	0028      	movs	r0, r5
100043ce:	e007      	b.n	100043e0 <ph_merge_nodes+0x38>
100043d0:	002a      	movs	r2, r5
100043d2:	0021      	movs	r1, r4
100043d4:	0030      	movs	r0, r6
100043d6:	f7ff ff95 	bl	10004304 <ph_add_child_node>
100043da:	0020      	movs	r0, r4
100043dc:	e000      	b.n	100043e0 <ph_merge_nodes+0x38>
100043de:	0010      	movs	r0, r2
100043e0:	bd70      	pop	{r4, r5, r6, pc}
100043e2:	0008      	movs	r0, r1
100043e4:	e7fc      	b.n	100043e0 <ph_merge_nodes+0x38>
	...

100043e8 <ph_clear>:
100043e8:	b510      	push	{r4, lr}
100043ea:	2300      	movs	r3, #0
100043ec:	7343      	strb	r3, [r0, #13]
100043ee:	3301      	adds	r3, #1
100043f0:	7383      	strb	r3, [r0, #14]
100043f2:	7b03      	ldrb	r3, [r0, #12]
100043f4:	73c3      	strb	r3, [r0, #15]
100043f6:	2301      	movs	r3, #1
100043f8:	7b02      	ldrb	r2, [r0, #12]
100043fa:	429a      	cmp	r2, r3
100043fc:	d914      	bls.n	10004428 <ph_clear+0x40>
100043fe:	2b00      	cmp	r3, #0
10004400:	d00c      	beq.n	1000441c <ph_clear+0x34>
10004402:	7b02      	ldrb	r2, [r0, #12]
10004404:	4293      	cmp	r3, r2
10004406:	d809      	bhi.n	1000441c <ph_clear+0x34>
10004408:	005a      	lsls	r2, r3, #1
1000440a:	18d2      	adds	r2, r2, r3
1000440c:	3a03      	subs	r2, #3
1000440e:	6801      	ldr	r1, [r0, #0]
10004410:	468c      	mov	ip, r1
10004412:	4462      	add	r2, ip
10004414:	3301      	adds	r3, #1
10004416:	b2db      	uxtb	r3, r3
10004418:	7053      	strb	r3, [r2, #1]
1000441a:	e7ed      	b.n	100043f8 <ph_clear+0x10>
1000441c:	4b0b      	ldr	r3, [pc, #44]	; (1000444c <ph_clear+0x64>)
1000441e:	4a0c      	ldr	r2, [pc, #48]	; (10004450 <ph_clear+0x68>)
10004420:	2168      	movs	r1, #104	; 0x68
10004422:	480c      	ldr	r0, [pc, #48]	; (10004454 <ph_clear+0x6c>)
10004424:	f000 f9b6 	bl	10004794 <__assert_func>
10004428:	2a00      	cmp	r2, #0
1000442a:	d009      	beq.n	10004440 <ph_clear+0x58>
1000442c:	4292      	cmp	r2, r2
1000442e:	d807      	bhi.n	10004440 <ph_clear+0x58>
10004430:	6801      	ldr	r1, [r0, #0]
10004432:	0053      	lsls	r3, r2, #1
10004434:	189a      	adds	r2, r3, r2
10004436:	3a03      	subs	r2, #3
10004438:	188a      	adds	r2, r1, r2
1000443a:	2300      	movs	r3, #0
1000443c:	7053      	strb	r3, [r2, #1]
1000443e:	bd10      	pop	{r4, pc}
10004440:	4b02      	ldr	r3, [pc, #8]	; (1000444c <ph_clear+0x64>)
10004442:	4a03      	ldr	r2, [pc, #12]	; (10004450 <ph_clear+0x68>)
10004444:	2168      	movs	r1, #104	; 0x68
10004446:	4803      	ldr	r0, [pc, #12]	; (10004454 <ph_clear+0x6c>)
10004448:	f000 f9a4 	bl	10004794 <__assert_func>
1000444c:	1000b008 	.word	0x1000b008
10004450:	1000b20c 	.word	0x1000b20c
10004454:	1000b024 	.word	0x1000b024

10004458 <ph_post_alloc_init>:
10004458:	b510      	push	{r4, lr}
1000445a:	7301      	strb	r1, [r0, #12]
1000445c:	6042      	str	r2, [r0, #4]
1000445e:	6083      	str	r3, [r0, #8]
10004460:	f7ff ffc2 	bl	100043e8 <ph_clear>
10004464:	bd10      	pop	{r4, pc}
	...

10004468 <ph_merge_two_pass>:
10004468:	b570      	push	{r4, r5, r6, lr}
1000446a:	0004      	movs	r4, r0
1000446c:	2900      	cmp	r1, #0
1000446e:	d101      	bne.n	10004474 <ph_merge_two_pass+0xc>
10004470:	0008      	movs	r0, r1
10004472:	bd70      	pop	{r4, r5, r6, pc}
10004474:	2900      	cmp	r1, #0
10004476:	d034      	beq.n	100044e2 <ph_merge_two_pass+0x7a>
10004478:	7b03      	ldrb	r3, [r0, #12]
1000447a:	4299      	cmp	r1, r3
1000447c:	d831      	bhi.n	100044e2 <ph_merge_two_pass+0x7a>
1000447e:	004b      	lsls	r3, r1, #1
10004480:	185b      	adds	r3, r3, r1
10004482:	3b03      	subs	r3, #3
10004484:	6802      	ldr	r2, [r0, #0]
10004486:	4694      	mov	ip, r2
10004488:	4463      	add	r3, ip
1000448a:	785a      	ldrb	r2, [r3, #1]
1000448c:	2a00      	cmp	r2, #0
1000448e:	d0ef      	beq.n	10004470 <ph_merge_two_pass+0x8>
10004490:	d02d      	beq.n	100044ee <ph_merge_two_pass+0x86>
10004492:	7b03      	ldrb	r3, [r0, #12]
10004494:	429a      	cmp	r2, r3
10004496:	d82a      	bhi.n	100044ee <ph_merge_two_pass+0x86>
10004498:	0053      	lsls	r3, r2, #1
1000449a:	189b      	adds	r3, r3, r2
1000449c:	3b03      	subs	r3, #3
1000449e:	6800      	ldr	r0, [r0, #0]
100044a0:	4684      	mov	ip, r0
100044a2:	4463      	add	r3, ip
100044a4:	785d      	ldrb	r5, [r3, #1]
100044a6:	2000      	movs	r0, #0
100044a8:	7058      	strb	r0, [r3, #1]
100044aa:	2900      	cmp	r1, #0
100044ac:	d025      	beq.n	100044fa <ph_merge_two_pass+0x92>
100044ae:	7b23      	ldrb	r3, [r4, #12]
100044b0:	4299      	cmp	r1, r3
100044b2:	d822      	bhi.n	100044fa <ph_merge_two_pass+0x92>
100044b4:	004b      	lsls	r3, r1, #1
100044b6:	185b      	adds	r3, r3, r1
100044b8:	3b03      	subs	r3, #3
100044ba:	6820      	ldr	r0, [r4, #0]
100044bc:	4684      	mov	ip, r0
100044be:	4463      	add	r3, ip
100044c0:	2000      	movs	r0, #0
100044c2:	7058      	strb	r0, [r3, #1]
100044c4:	0020      	movs	r0, r4
100044c6:	f7ff ff6f 	bl	100043a8 <ph_merge_nodes>
100044ca:	0006      	movs	r6, r0
100044cc:	0029      	movs	r1, r5
100044ce:	0020      	movs	r0, r4
100044d0:	f7ff ffca 	bl	10004468 <ph_merge_two_pass>
100044d4:	0002      	movs	r2, r0
100044d6:	0031      	movs	r1, r6
100044d8:	0020      	movs	r0, r4
100044da:	f7ff ff65 	bl	100043a8 <ph_merge_nodes>
100044de:	0001      	movs	r1, r0
100044e0:	e7c6      	b.n	10004470 <ph_merge_two_pass+0x8>
100044e2:	4b09      	ldr	r3, [pc, #36]	; (10004508 <ph_merge_two_pass+0xa0>)
100044e4:	4a09      	ldr	r2, [pc, #36]	; (1000450c <ph_merge_two_pass+0xa4>)
100044e6:	2168      	movs	r1, #104	; 0x68
100044e8:	4809      	ldr	r0, [pc, #36]	; (10004510 <ph_merge_two_pass+0xa8>)
100044ea:	f000 f953 	bl	10004794 <__assert_func>
100044ee:	4b06      	ldr	r3, [pc, #24]	; (10004508 <ph_merge_two_pass+0xa0>)
100044f0:	4a06      	ldr	r2, [pc, #24]	; (1000450c <ph_merge_two_pass+0xa4>)
100044f2:	2168      	movs	r1, #104	; 0x68
100044f4:	4806      	ldr	r0, [pc, #24]	; (10004510 <ph_merge_two_pass+0xa8>)
100044f6:	f000 f94d 	bl	10004794 <__assert_func>
100044fa:	4b03      	ldr	r3, [pc, #12]	; (10004508 <ph_merge_two_pass+0xa0>)
100044fc:	4a03      	ldr	r2, [pc, #12]	; (1000450c <ph_merge_two_pass+0xa4>)
100044fe:	2168      	movs	r1, #104	; 0x68
10004500:	4803      	ldr	r0, [pc, #12]	; (10004510 <ph_merge_two_pass+0xa8>)
10004502:	f000 f947 	bl	10004794 <__assert_func>
10004506:	46c0      	nop			; (mov r8, r8)
10004508:	1000b008 	.word	0x1000b008
1000450c:	1000b20c 	.word	0x1000b20c
10004510:	1000b024 	.word	0x1000b024

10004514 <ph_remove_any_head>:
10004514:	b570      	push	{r4, r5, r6, lr}
10004516:	0005      	movs	r5, r0
10004518:	000c      	movs	r4, r1
1000451a:	0016      	movs	r6, r2
1000451c:	2900      	cmp	r1, #0
1000451e:	d028      	beq.n	10004572 <ph_remove_any_head+0x5e>
10004520:	d02d      	beq.n	1000457e <ph_remove_any_head+0x6a>
10004522:	7b03      	ldrb	r3, [r0, #12]
10004524:	4299      	cmp	r1, r3
10004526:	d82a      	bhi.n	1000457e <ph_remove_any_head+0x6a>
10004528:	004b      	lsls	r3, r1, #1
1000452a:	185b      	adds	r3, r3, r1
1000452c:	3b03      	subs	r3, #3
1000452e:	6802      	ldr	r2, [r0, #0]
10004530:	4694      	mov	ip, r2
10004532:	4463      	add	r3, ip
10004534:	785a      	ldrb	r2, [r3, #1]
10004536:	2a00      	cmp	r2, #0
10004538:	d127      	bne.n	1000458a <ph_remove_any_head+0x76>
1000453a:	789a      	ldrb	r2, [r3, #2]
1000453c:	2a00      	cmp	r2, #0
1000453e:	d12a      	bne.n	10004596 <ph_remove_any_head+0x82>
10004540:	7819      	ldrb	r1, [r3, #0]
10004542:	f7ff ff91 	bl	10004468 <ph_merge_two_pass>
10004546:	0003      	movs	r3, r0
10004548:	2e00      	cmp	r6, #0
1000454a:	d003      	beq.n	10004554 <ph_remove_any_head+0x40>
1000454c:	7bea      	ldrb	r2, [r5, #15]
1000454e:	2a00      	cmp	r2, #0
10004550:	d127      	bne.n	100045a2 <ph_remove_any_head+0x8e>
10004552:	73ec      	strb	r4, [r5, #15]
10004554:	2b00      	cmp	r3, #0
10004556:	d137      	bne.n	100045c8 <ph_remove_any_head+0xb4>
10004558:	2c00      	cmp	r4, #0
1000455a:	d049      	beq.n	100045f0 <ph_remove_any_head+0xdc>
1000455c:	7b2b      	ldrb	r3, [r5, #12]
1000455e:	429c      	cmp	r4, r3
10004560:	d846      	bhi.n	100045f0 <ph_remove_any_head+0xdc>
10004562:	682a      	ldr	r2, [r5, #0]
10004564:	0063      	lsls	r3, r4, #1
10004566:	191c      	adds	r4, r3, r4
10004568:	3c03      	subs	r4, #3
1000456a:	1914      	adds	r4, r2, r4
1000456c:	2300      	movs	r3, #0
1000456e:	7063      	strb	r3, [r4, #1]
10004570:	bd70      	pop	{r4, r5, r6, pc}
10004572:	4b22      	ldr	r3, [pc, #136]	; (100045fc <ph_remove_any_head+0xe8>)
10004574:	4a22      	ldr	r2, [pc, #136]	; (10004600 <ph_remove_any_head+0xec>)
10004576:	2138      	movs	r1, #56	; 0x38
10004578:	4822      	ldr	r0, [pc, #136]	; (10004604 <ph_remove_any_head+0xf0>)
1000457a:	f000 f90b 	bl	10004794 <__assert_func>
1000457e:	4b22      	ldr	r3, [pc, #136]	; (10004608 <ph_remove_any_head+0xf4>)
10004580:	4a22      	ldr	r2, [pc, #136]	; (1000460c <ph_remove_any_head+0xf8>)
10004582:	2168      	movs	r1, #104	; 0x68
10004584:	4822      	ldr	r0, [pc, #136]	; (10004610 <ph_remove_any_head+0xfc>)
10004586:	f000 f905 	bl	10004794 <__assert_func>
1000458a:	4b22      	ldr	r3, [pc, #136]	; (10004614 <ph_remove_any_head+0x100>)
1000458c:	4a1c      	ldr	r2, [pc, #112]	; (10004600 <ph_remove_any_head+0xec>)
1000458e:	213a      	movs	r1, #58	; 0x3a
10004590:	481c      	ldr	r0, [pc, #112]	; (10004604 <ph_remove_any_head+0xf0>)
10004592:	f000 f8ff 	bl	10004794 <__assert_func>
10004596:	4b20      	ldr	r3, [pc, #128]	; (10004618 <ph_remove_any_head+0x104>)
10004598:	4a19      	ldr	r2, [pc, #100]	; (10004600 <ph_remove_any_head+0xec>)
1000459a:	213b      	movs	r1, #59	; 0x3b
1000459c:	4819      	ldr	r0, [pc, #100]	; (10004604 <ph_remove_any_head+0xf0>)
1000459e:	f000 f8f9 	bl	10004794 <__assert_func>
100045a2:	2a00      	cmp	r2, #0
100045a4:	d00a      	beq.n	100045bc <ph_remove_any_head+0xa8>
100045a6:	7b29      	ldrb	r1, [r5, #12]
100045a8:	428a      	cmp	r2, r1
100045aa:	d807      	bhi.n	100045bc <ph_remove_any_head+0xa8>
100045ac:	0051      	lsls	r1, r2, #1
100045ae:	188a      	adds	r2, r1, r2
100045b0:	3a03      	subs	r2, #3
100045b2:	6829      	ldr	r1, [r5, #0]
100045b4:	468c      	mov	ip, r1
100045b6:	4462      	add	r2, ip
100045b8:	7054      	strb	r4, [r2, #1]
100045ba:	e7ca      	b.n	10004552 <ph_remove_any_head+0x3e>
100045bc:	4b12      	ldr	r3, [pc, #72]	; (10004608 <ph_remove_any_head+0xf4>)
100045be:	4a13      	ldr	r2, [pc, #76]	; (1000460c <ph_remove_any_head+0xf8>)
100045c0:	2168      	movs	r1, #104	; 0x68
100045c2:	4813      	ldr	r0, [pc, #76]	; (10004610 <ph_remove_any_head+0xfc>)
100045c4:	f000 f8e6 	bl	10004794 <__assert_func>
100045c8:	2b00      	cmp	r3, #0
100045ca:	d00b      	beq.n	100045e4 <ph_remove_any_head+0xd0>
100045cc:	7b2a      	ldrb	r2, [r5, #12]
100045ce:	4293      	cmp	r3, r2
100045d0:	d808      	bhi.n	100045e4 <ph_remove_any_head+0xd0>
100045d2:	0043      	lsls	r3, r0, #1
100045d4:	181b      	adds	r3, r3, r0
100045d6:	3b03      	subs	r3, #3
100045d8:	682a      	ldr	r2, [r5, #0]
100045da:	4694      	mov	ip, r2
100045dc:	4463      	add	r3, ip
100045de:	2200      	movs	r2, #0
100045e0:	709a      	strb	r2, [r3, #2]
100045e2:	e7b9      	b.n	10004558 <ph_remove_any_head+0x44>
100045e4:	4b08      	ldr	r3, [pc, #32]	; (10004608 <ph_remove_any_head+0xf4>)
100045e6:	4a09      	ldr	r2, [pc, #36]	; (1000460c <ph_remove_any_head+0xf8>)
100045e8:	2168      	movs	r1, #104	; 0x68
100045ea:	4809      	ldr	r0, [pc, #36]	; (10004610 <ph_remove_any_head+0xfc>)
100045ec:	f000 f8d2 	bl	10004794 <__assert_func>
100045f0:	4b05      	ldr	r3, [pc, #20]	; (10004608 <ph_remove_any_head+0xf4>)
100045f2:	4a06      	ldr	r2, [pc, #24]	; (1000460c <ph_remove_any_head+0xf8>)
100045f4:	2168      	movs	r1, #104	; 0x68
100045f6:	4806      	ldr	r0, [pc, #24]	; (10004610 <ph_remove_any_head+0xfc>)
100045f8:	f000 f8cc 	bl	10004794 <__assert_func>
100045fc:	1000b278 	.word	0x1000b278
10004600:	1000b22c 	.word	0x1000b22c
10004604:	1000b280 	.word	0x1000b280
10004608:	1000b008 	.word	0x1000b008
1000460c:	1000b20c 	.word	0x1000b20c
10004610:	1000b024 	.word	0x1000b024
10004614:	1000b2c0 	.word	0x1000b2c0
10004618:	1000b2e8 	.word	0x1000b2e8

1000461c <ph_remove_head>:
1000461c:	b570      	push	{r4, r5, r6, lr}
1000461e:	0004      	movs	r4, r0
10004620:	000a      	movs	r2, r1
10004622:	7b45      	ldrb	r5, [r0, #13]
10004624:	0029      	movs	r1, r5
10004626:	f7ff ff75 	bl	10004514 <ph_remove_any_head>
1000462a:	7360      	strb	r0, [r4, #13]
1000462c:	0028      	movs	r0, r5
1000462e:	bd70      	pop	{r4, r5, r6, pc}

10004630 <ph_remove_and_free_node>:
10004630:	b510      	push	{r4, lr}
10004632:	0004      	movs	r4, r0
10004634:	2900      	cmp	r1, #0
10004636:	d066      	beq.n	10004706 <ph_remove_and_free_node+0xd6>
10004638:	7b43      	ldrb	r3, [r0, #13]
1000463a:	428b      	cmp	r3, r1
1000463c:	d00e      	beq.n	1000465c <ph_remove_and_free_node+0x2c>
1000463e:	2900      	cmp	r1, #0
10004640:	d011      	beq.n	10004666 <ph_remove_and_free_node+0x36>
10004642:	7b03      	ldrb	r3, [r0, #12]
10004644:	4299      	cmp	r1, r3
10004646:	d80e      	bhi.n	10004666 <ph_remove_and_free_node+0x36>
10004648:	004b      	lsls	r3, r1, #1
1000464a:	185b      	adds	r3, r3, r1
1000464c:	3b03      	subs	r3, #3
1000464e:	6802      	ldr	r2, [r0, #0]
10004650:	18d0      	adds	r0, r2, r3
10004652:	7883      	ldrb	r3, [r0, #2]
10004654:	2b00      	cmp	r3, #0
10004656:	d10c      	bne.n	10004672 <ph_remove_and_free_node+0x42>
10004658:	2000      	movs	r0, #0
1000465a:	e055      	b.n	10004708 <ph_remove_and_free_node+0xd8>
1000465c:	2101      	movs	r1, #1
1000465e:	f7ff ffdd 	bl	1000461c <ph_remove_head>
10004662:	2001      	movs	r0, #1
10004664:	e050      	b.n	10004708 <ph_remove_and_free_node+0xd8>
10004666:	4b29      	ldr	r3, [pc, #164]	; (1000470c <ph_remove_and_free_node+0xdc>)
10004668:	4a29      	ldr	r2, [pc, #164]	; (10004710 <ph_remove_and_free_node+0xe0>)
1000466a:	2168      	movs	r1, #104	; 0x68
1000466c:	4829      	ldr	r0, [pc, #164]	; (10004714 <ph_remove_and_free_node+0xe4>)
1000466e:	f000 f891 	bl	10004794 <__assert_func>
10004672:	2b00      	cmp	r3, #0
10004674:	d01f      	beq.n	100046b6 <ph_remove_and_free_node+0x86>
10004676:	7b22      	ldrb	r2, [r4, #12]
10004678:	4293      	cmp	r3, r2
1000467a:	d81c      	bhi.n	100046b6 <ph_remove_and_free_node+0x86>
1000467c:	005a      	lsls	r2, r3, #1
1000467e:	18d3      	adds	r3, r2, r3
10004680:	3b03      	subs	r3, #3
10004682:	6822      	ldr	r2, [r4, #0]
10004684:	18d2      	adds	r2, r2, r3
10004686:	7813      	ldrb	r3, [r2, #0]
10004688:	428b      	cmp	r3, r1
1000468a:	d01a      	beq.n	100046c2 <ph_remove_and_free_node+0x92>
1000468c:	2b00      	cmp	r3, #0
1000468e:	d01b      	beq.n	100046c8 <ph_remove_and_free_node+0x98>
10004690:	7b22      	ldrb	r2, [r4, #12]
10004692:	4293      	cmp	r3, r2
10004694:	d818      	bhi.n	100046c8 <ph_remove_and_free_node+0x98>
10004696:	005a      	lsls	r2, r3, #1
10004698:	18d3      	adds	r3, r2, r3
1000469a:	3b03      	subs	r3, #3
1000469c:	6822      	ldr	r2, [r4, #0]
1000469e:	18d2      	adds	r2, r2, r3
100046a0:	7853      	ldrb	r3, [r2, #1]
100046a2:	428b      	cmp	r3, r1
100046a4:	d016      	beq.n	100046d4 <ph_remove_and_free_node+0xa4>
100046a6:	2b00      	cmp	r3, #0
100046a8:	d1f0      	bne.n	1000468c <ph_remove_and_free_node+0x5c>
100046aa:	4b1b      	ldr	r3, [pc, #108]	; (10004718 <ph_remove_and_free_node+0xe8>)
100046ac:	4a1b      	ldr	r2, [pc, #108]	; (1000471c <ph_remove_and_free_node+0xec>)
100046ae:	2167      	movs	r1, #103	; 0x67
100046b0:	481b      	ldr	r0, [pc, #108]	; (10004720 <ph_remove_and_free_node+0xf0>)
100046b2:	f000 f86f 	bl	10004794 <__assert_func>
100046b6:	4b15      	ldr	r3, [pc, #84]	; (1000470c <ph_remove_and_free_node+0xdc>)
100046b8:	4a15      	ldr	r2, [pc, #84]	; (10004710 <ph_remove_and_free_node+0xe0>)
100046ba:	2168      	movs	r1, #104	; 0x68
100046bc:	4815      	ldr	r0, [pc, #84]	; (10004714 <ph_remove_and_free_node+0xe4>)
100046be:	f000 f869 	bl	10004794 <__assert_func>
100046c2:	7843      	ldrb	r3, [r0, #1]
100046c4:	7013      	strb	r3, [r2, #0]
100046c6:	e007      	b.n	100046d8 <ph_remove_and_free_node+0xa8>
100046c8:	4b10      	ldr	r3, [pc, #64]	; (1000470c <ph_remove_and_free_node+0xdc>)
100046ca:	4a11      	ldr	r2, [pc, #68]	; (10004710 <ph_remove_and_free_node+0xe0>)
100046cc:	2168      	movs	r1, #104	; 0x68
100046ce:	4811      	ldr	r0, [pc, #68]	; (10004714 <ph_remove_and_free_node+0xe4>)
100046d0:	f000 f860 	bl	10004794 <__assert_func>
100046d4:	7843      	ldrb	r3, [r0, #1]
100046d6:	7053      	strb	r3, [r2, #1]
100046d8:	2300      	movs	r3, #0
100046da:	7083      	strb	r3, [r0, #2]
100046dc:	7043      	strb	r3, [r0, #1]
100046de:	2201      	movs	r2, #1
100046e0:	0020      	movs	r0, r4
100046e2:	f7ff ff17 	bl	10004514 <ph_remove_any_head>
100046e6:	0002      	movs	r2, r0
100046e8:	7b61      	ldrb	r1, [r4, #13]
100046ea:	4281      	cmp	r1, r0
100046ec:	d005      	beq.n	100046fa <ph_remove_and_free_node+0xca>
100046ee:	0020      	movs	r0, r4
100046f0:	f7ff fe5a 	bl	100043a8 <ph_merge_nodes>
100046f4:	7360      	strb	r0, [r4, #13]
100046f6:	2001      	movs	r0, #1
100046f8:	e006      	b.n	10004708 <ph_remove_and_free_node+0xd8>
100046fa:	4b0a      	ldr	r3, [pc, #40]	; (10004724 <ph_remove_and_free_node+0xf4>)
100046fc:	4a07      	ldr	r2, [pc, #28]	; (1000471c <ph_remove_and_free_node+0xec>)
100046fe:	216d      	movs	r1, #109	; 0x6d
10004700:	4807      	ldr	r0, [pc, #28]	; (10004720 <ph_remove_and_free_node+0xf0>)
10004702:	f000 f847 	bl	10004794 <__assert_func>
10004706:	2000      	movs	r0, #0
10004708:	bd10      	pop	{r4, pc}
1000470a:	46c0      	nop			; (mov r8, r8)
1000470c:	1000b008 	.word	0x1000b008
10004710:	1000b20c 	.word	0x1000b20c
10004714:	1000b024 	.word	0x1000b024
10004718:	1000ad04 	.word	0x1000ad04
1000471c:	1000b240 	.word	0x1000b240
10004720:	1000b280 	.word	0x1000b280
10004724:	1000b258 	.word	0x1000b258

10004728 <mutex_init>:
10004728:	b510      	push	{r4, lr}
1000472a:	0004      	movs	r4, r0
1000472c:	f7fe fb8e 	bl	10002e4c <next_striped_spin_lock_num>
10004730:	0001      	movs	r1, r0
10004732:	0020      	movs	r0, r4
10004734:	f7fe fef0 	bl	10003518 <lock_init>
10004738:	23ff      	movs	r3, #255	; 0xff
1000473a:	7123      	strb	r3, [r4, #4]
1000473c:	f3bf 8f5f 	dmb	sy
10004740:	bd10      	pop	{r4, pc}

10004742 <recursive_mutex_init>:
10004742:	b510      	push	{r4, lr}
10004744:	0004      	movs	r4, r0
10004746:	f7fe fb81 	bl	10002e4c <next_striped_spin_lock_num>
1000474a:	0001      	movs	r1, r0
1000474c:	0020      	movs	r0, r4
1000474e:	f7fe fee3 	bl	10003518 <lock_init>
10004752:	23ff      	movs	r3, #255	; 0xff
10004754:	7123      	strb	r3, [r4, #4]
10004756:	2300      	movs	r3, #0
10004758:	7163      	strb	r3, [r4, #5]
1000475a:	f3bf 8f5f 	dmb	sy
1000475e:	bd10      	pop	{r4, pc}

10004760 <critical_section_init_with_lock_num>:
10004760:	4b03      	ldr	r3, [pc, #12]	; (10004770 <critical_section_init_with_lock_num+0x10>)
10004762:	469c      	mov	ip, r3
10004764:	4461      	add	r1, ip
10004766:	0089      	lsls	r1, r1, #2
10004768:	6001      	str	r1, [r0, #0]
1000476a:	f3bf 8f5f 	dmb	sy
1000476e:	4770      	bx	lr
10004770:	34000040 	.word	0x34000040

10004774 <critical_section_init>:
10004774:	b510      	push	{r4, lr}
10004776:	0004      	movs	r4, r0
10004778:	2001      	movs	r0, #1
1000477a:	f7fe fb75 	bl	10002e68 <spin_lock_claim_unused>
1000477e:	0001      	movs	r1, r0
10004780:	0020      	movs	r0, r4
10004782:	f7ff ffed 	bl	10004760 <critical_section_init_with_lock_num>
10004786:	bd10      	pop	{r4, pc}

10004788 <_exit>:
10004788:	be00      	bkpt	0x0000
1000478a:	e7fd      	b.n	10004788 <_exit>

1000478c <exit>:
1000478c:	b510      	push	{r4, lr}
1000478e:	f7ff fffb 	bl	10004788 <_exit>
	...

10004794 <__assert_func>:
10004794:	b510      	push	{r4, lr}
10004796:	b082      	sub	sp, #8
10004798:	000c      	movs	r4, r1
1000479a:	0019      	movs	r1, r3
1000479c:	2a00      	cmp	r2, #0
1000479e:	d00c      	beq.n	100047ba <__assert_func+0x26>
100047a0:	4b08      	ldr	r3, [pc, #32]	; (100047c4 <__assert_func+0x30>)
100047a2:	2a00      	cmp	r2, #0
100047a4:	d00b      	beq.n	100047be <__assert_func+0x2a>
100047a6:	9201      	str	r2, [sp, #4]
100047a8:	9300      	str	r3, [sp, #0]
100047aa:	0023      	movs	r3, r4
100047ac:	0002      	movs	r2, r0
100047ae:	4806      	ldr	r0, [pc, #24]	; (100047c8 <__assert_func+0x34>)
100047b0:	f002 fc3c 	bl	1000702c <__wrap_printf>
100047b4:	2001      	movs	r0, #1
100047b6:	f7ff ffe7 	bl	10004788 <_exit>
100047ba:	4b04      	ldr	r3, [pc, #16]	; (100047cc <__assert_func+0x38>)
100047bc:	e7f1      	b.n	100047a2 <__assert_func+0xe>
100047be:	4a03      	ldr	r2, [pc, #12]	; (100047cc <__assert_func+0x38>)
100047c0:	e7f1      	b.n	100047a6 <__assert_func+0x12>
100047c2:	46c0      	nop			; (mov r8, r8)
100047c4:	1000b3dc 	.word	0x1000b3dc
100047c8:	1000b3ec 	.word	0x1000b3ec
100047cc:	1000a2b8 	.word	0x1000a2b8

100047d0 <runtime_init>:
100047d0:	b570      	push	{r4, r5, r6, lr}
100047d2:	4b2b      	ldr	r3, [pc, #172]	; (10004880 <runtime_init+0xb0>)
100047d4:	4a2b      	ldr	r2, [pc, #172]	; (10004884 <runtime_init+0xb4>)
100047d6:	601a      	str	r2, [r3, #0]
100047d8:	4b2b      	ldr	r3, [pc, #172]	; (10004888 <runtime_init+0xb8>)
100047da:	4a2c      	ldr	r2, [pc, #176]	; (1000488c <runtime_init+0xbc>)
100047dc:	601a      	str	r2, [r3, #0]
100047de:	4b2c      	ldr	r3, [pc, #176]	; (10004890 <runtime_init+0xc0>)
100047e0:	689a      	ldr	r2, [r3, #8]
100047e2:	4b2a      	ldr	r3, [pc, #168]	; (1000488c <runtime_init+0xbc>)
100047e4:	4393      	bics	r3, r2
100047e6:	d1fa      	bne.n	100047de <runtime_init+0xe>
100047e8:	4c2a      	ldr	r4, [pc, #168]	; (10004894 <runtime_init+0xc4>)
100047ea:	e001      	b.n	100047f0 <runtime_init+0x20>
100047ec:	cc08      	ldmia	r4!, {r3}
100047ee:	4798      	blx	r3
100047f0:	4b29      	ldr	r3, [pc, #164]	; (10004898 <runtime_init+0xc8>)
100047f2:	429c      	cmp	r4, r3
100047f4:	d3fa      	bcc.n	100047ec <runtime_init+0x1c>
100047f6:	f000 f8fd 	bl	100049f4 <clocks_init>
100047fa:	4b23      	ldr	r3, [pc, #140]	; (10004888 <runtime_init+0xb8>)
100047fc:	4a27      	ldr	r2, [pc, #156]	; (1000489c <runtime_init+0xcc>)
100047fe:	601a      	str	r2, [r3, #0]
10004800:	4b23      	ldr	r3, [pc, #140]	; (10004890 <runtime_init+0xc0>)
10004802:	689b      	ldr	r3, [r3, #8]
10004804:	43db      	mvns	r3, r3
10004806:	01db      	lsls	r3, r3, #7
10004808:	d1fa      	bne.n	10004800 <runtime_init+0x30>
1000480a:	4b25      	ldr	r3, [pc, #148]	; (100048a0 <runtime_init+0xd0>)
1000480c:	2240      	movs	r2, #64	; 0x40
1000480e:	679a      	str	r2, [r3, #120]	; 0x78
10004810:	675a      	str	r2, [r3, #116]	; 0x74
10004812:	671a      	str	r2, [r3, #112]	; 0x70
10004814:	66da      	str	r2, [r3, #108]	; 0x6c
10004816:	4c23      	ldr	r4, [pc, #140]	; (100048a4 <runtime_init+0xd4>)
10004818:	e009      	b.n	1000482e <runtime_init+0x5e>
1000481a:	4b23      	ldr	r3, [pc, #140]	; (100048a8 <runtime_init+0xd8>)
1000481c:	4a23      	ldr	r2, [pc, #140]	; (100048ac <runtime_init+0xdc>)
1000481e:	2183      	movs	r1, #131	; 0x83
10004820:	4823      	ldr	r0, [pc, #140]	; (100048b0 <runtime_init+0xe0>)
10004822:	f7ff ffb7 	bl	10004794 <__assert_func>
10004826:	0020      	movs	r0, r4
10004828:	f7ff ff7e 	bl	10004728 <mutex_init>
1000482c:	3408      	adds	r4, #8
1000482e:	4b21      	ldr	r3, [pc, #132]	; (100048b4 <runtime_init+0xe4>)
10004830:	429c      	cmp	r4, r3
10004832:	d209      	bcs.n	10004848 <runtime_init+0x78>
10004834:	6823      	ldr	r3, [r4, #0]
10004836:	2b00      	cmp	r3, #0
10004838:	d0f5      	beq.n	10004826 <runtime_init+0x56>
1000483a:	2b01      	cmp	r3, #1
1000483c:	d1ed      	bne.n	1000481a <runtime_init+0x4a>
1000483e:	0020      	movs	r0, r4
10004840:	f7ff ff7f 	bl	10004742 <recursive_mutex_init>
10004844:	3408      	adds	r4, #8
10004846:	e7f2      	b.n	1000482e <runtime_init+0x5e>
10004848:	4c1b      	ldr	r4, [pc, #108]	; (100048b8 <runtime_init+0xe8>)
1000484a:	68a1      	ldr	r1, [r4, #8]
1000484c:	4d1b      	ldr	r5, [pc, #108]	; (100048bc <runtime_init+0xec>)
1000484e:	22c0      	movs	r2, #192	; 0xc0
10004850:	0028      	movs	r0, r5
10004852:	f002 fa5d 	bl	10006d10 <__wrap___aeabi_memcpy>
10004856:	60a5      	str	r5, [r4, #8]
10004858:	f7fb fd05 	bl	10000266 <__get_current_exception>
1000485c:	2800      	cmp	r0, #0
1000485e:	d000      	beq.n	10004862 <runtime_init+0x92>
10004860:	be00      	bkpt	0x0000
10004862:	f7fe fae3 	bl	10002e2c <spin_locks_reset>
10004866:	f7fe fe31 	bl	100034cc <irq_init_priorities>
1000486a:	f7ff f999 	bl	10003ba0 <alarm_pool_init_default>
1000486e:	4c14      	ldr	r4, [pc, #80]	; (100048c0 <runtime_init+0xf0>)
10004870:	e001      	b.n	10004876 <runtime_init+0xa6>
10004872:	cc08      	ldmia	r4!, {r3}
10004874:	4798      	blx	r3
10004876:	4b13      	ldr	r3, [pc, #76]	; (100048c4 <runtime_init+0xf4>)
10004878:	429c      	cmp	r4, r3
1000487a:	d3fa      	bcc.n	10004872 <runtime_init+0xa2>
1000487c:	bd70      	pop	{r4, r5, r6, pc}
1000487e:	46c0      	nop			; (mov r8, r8)
10004880:	4000e000 	.word	0x4000e000
10004884:	fefbcdbf 	.word	0xfefbcdbf
10004888:	4000f000 	.word	0x4000f000
1000488c:	003c7ffe 	.word	0x003c7ffe
10004890:	4000c000 	.word	0x4000c000
10004894:	200084e8 	.word	0x200084e8
10004898:	200084f8 	.word	0x200084f8
1000489c:	01ffffff 	.word	0x01ffffff
100048a0:	4001f000 	.word	0x4001f000
100048a4:	200084e0 	.word	0x200084e0
100048a8:	1000b440 	.word	0x1000b440
100048ac:	1000b41c 	.word	0x1000b41c
100048b0:	1000b460 	.word	0x1000b460
100048b4:	200084e8 	.word	0x200084e8
100048b8:	e000ed00 	.word	0xe000ed00
100048bc:	20000000 	.word	0x20000000
100048c0:	200084f8 	.word	0x200084f8
100048c4:	20008500 	.word	0x20008500

100048c8 <panic>:
100048c8:	b40f      	push	{r0, r1, r2, r3}
100048ca:	b500      	push	{lr}
100048cc:	b083      	sub	sp, #12
100048ce:	4808      	ldr	r0, [pc, #32]	; (100048f0 <panic+0x28>)
100048d0:	f002 fb7a 	bl	10006fc8 <__wrap_puts>
100048d4:	9b04      	ldr	r3, [sp, #16]
100048d6:	2b00      	cmp	r3, #0
100048d8:	d007      	beq.n	100048ea <panic+0x22>
100048da:	a905      	add	r1, sp, #20
100048dc:	9101      	str	r1, [sp, #4]
100048de:	0018      	movs	r0, r3
100048e0:	f002 fb82 	bl	10006fe8 <__wrap_vprintf>
100048e4:	4803      	ldr	r0, [pc, #12]	; (100048f4 <panic+0x2c>)
100048e6:	f002 fb6f 	bl	10006fc8 <__wrap_puts>
100048ea:	2001      	movs	r0, #1
100048ec:	f7ff ff4c 	bl	10004788 <_exit>
100048f0:	1000b42c 	.word	0x1000b42c
100048f4:	1000b43c 	.word	0x1000b43c

100048f8 <clock_configure>:
100048f8:	b5f0      	push	{r4, r5, r6, r7, lr}
100048fa:	46de      	mov	lr, fp
100048fc:	4657      	mov	r7, sl
100048fe:	b580      	push	{r7, lr}
10004900:	b083      	sub	sp, #12
10004902:	0007      	movs	r7, r0
10004904:	000e      	movs	r6, r1
10004906:	4692      	mov	sl, r2
10004908:	9a0a      	ldr	r2, [sp, #40]	; 0x28
1000490a:	4293      	cmp	r3, r2
1000490c:	d34c      	bcc.n	100049a8 <clock_configure+0xb0>
1000490e:	0e19      	lsrs	r1, r3, #24
10004910:	9101      	str	r1, [sp, #4]
10004912:	021b      	lsls	r3, r3, #8
10004914:	0018      	movs	r0, r3
10004916:	9300      	str	r3, [sp, #0]
10004918:	9a0a      	ldr	r2, [sp, #40]	; 0x28
1000491a:	2300      	movs	r3, #0
1000491c:	f001 fb36 	bl	10005f8c <__wrap___aeabi_uldivmod>
10004920:	0005      	movs	r5, r0
10004922:	007b      	lsls	r3, r7, #1
10004924:	19db      	adds	r3, r3, r7
10004926:	009c      	lsls	r4, r3, #2
10004928:	4b2d      	ldr	r3, [pc, #180]	; (100049e0 <clock_configure+0xe8>)
1000492a:	469c      	mov	ip, r3
1000492c:	4464      	add	r4, ip
1000492e:	6863      	ldr	r3, [r4, #4]
10004930:	4283      	cmp	r3, r0
10004932:	d200      	bcs.n	10004936 <clock_configure+0x3e>
10004934:	6060      	str	r0, [r4, #4]
10004936:	1f3b      	subs	r3, r7, #4
10004938:	b2db      	uxtb	r3, r3
1000493a:	469b      	mov	fp, r3
1000493c:	2b01      	cmp	r3, #1
1000493e:	d939      	bls.n	100049b4 <clock_configure+0xbc>
10004940:	23c0      	movs	r3, #192	; 0xc0
10004942:	019b      	lsls	r3, r3, #6
10004944:	4323      	orrs	r3, r4
10004946:	2280      	movs	r2, #128	; 0x80
10004948:	0112      	lsls	r2, r2, #4
1000494a:	601a      	str	r2, [r3, #0]
1000494c:	00bb      	lsls	r3, r7, #2
1000494e:	4a25      	ldr	r2, [pc, #148]	; (100049e4 <clock_configure+0xec>)
10004950:	5899      	ldr	r1, [r3, r2]
10004952:	2900      	cmp	r1, #0
10004954:	d005      	beq.n	10004962 <clock_configure+0x6a>
10004956:	6950      	ldr	r0, [r2, #20]
10004958:	f001 fad6 	bl	10005f08 <__wrap___aeabi_uidiv>
1000495c:	3001      	adds	r0, #1
1000495e:	3801      	subs	r0, #1
10004960:	d1fd      	bne.n	1000495e <clock_configure+0x66>
10004962:	4653      	mov	r3, sl
10004964:	015b      	lsls	r3, r3, #5
10004966:	6822      	ldr	r2, [r4, #0]
10004968:	4053      	eors	r3, r2
1000496a:	22e0      	movs	r2, #224	; 0xe0
1000496c:	4013      	ands	r3, r2
1000496e:	2280      	movs	r2, #128	; 0x80
10004970:	0152      	lsls	r2, r2, #5
10004972:	4322      	orrs	r2, r4
10004974:	6013      	str	r3, [r2, #0]
10004976:	465b      	mov	r3, fp
10004978:	2b01      	cmp	r3, #1
1000497a:	d926      	bls.n	100049ca <clock_configure+0xd2>
1000497c:	2380      	movs	r3, #128	; 0x80
1000497e:	019b      	lsls	r3, r3, #6
10004980:	4323      	orrs	r3, r4
10004982:	2280      	movs	r2, #128	; 0x80
10004984:	0112      	lsls	r2, r2, #4
10004986:	601a      	str	r2, [r3, #0]
10004988:	6065      	str	r5, [r4, #4]
1000498a:	002a      	movs	r2, r5
1000498c:	2300      	movs	r3, #0
1000498e:	9800      	ldr	r0, [sp, #0]
10004990:	9901      	ldr	r1, [sp, #4]
10004992:	f001 fafb 	bl	10005f8c <__wrap___aeabi_uldivmod>
10004996:	00bf      	lsls	r7, r7, #2
10004998:	4b12      	ldr	r3, [pc, #72]	; (100049e4 <clock_configure+0xec>)
1000499a:	50f8      	str	r0, [r7, r3]
1000499c:	2001      	movs	r0, #1
1000499e:	b003      	add	sp, #12
100049a0:	bc0c      	pop	{r2, r3}
100049a2:	4692      	mov	sl, r2
100049a4:	469b      	mov	fp, r3
100049a6:	bdf0      	pop	{r4, r5, r6, r7, pc}
100049a8:	4b0f      	ldr	r3, [pc, #60]	; (100049e8 <clock_configure+0xf0>)
100049aa:	4a10      	ldr	r2, [pc, #64]	; (100049ec <clock_configure+0xf4>)
100049ac:	212d      	movs	r1, #45	; 0x2d
100049ae:	4810      	ldr	r0, [pc, #64]	; (100049f0 <clock_configure+0xf8>)
100049b0:	f7ff fef0 	bl	10004794 <__assert_func>
100049b4:	2e01      	cmp	r6, #1
100049b6:	d1c3      	bne.n	10004940 <clock_configure+0x48>
100049b8:	23c0      	movs	r3, #192	; 0xc0
100049ba:	019b      	lsls	r3, r3, #6
100049bc:	4323      	orrs	r3, r4
100049be:	2203      	movs	r2, #3
100049c0:	601a      	str	r2, [r3, #0]
100049c2:	68a3      	ldr	r3, [r4, #8]
100049c4:	07db      	lsls	r3, r3, #31
100049c6:	d5fc      	bpl.n	100049c2 <clock_configure+0xca>
100049c8:	e7cb      	b.n	10004962 <clock_configure+0x6a>
100049ca:	6821      	ldr	r1, [r4, #0]
100049cc:	4071      	eors	r1, r6
100049ce:	2303      	movs	r3, #3
100049d0:	400b      	ands	r3, r1
100049d2:	6013      	str	r3, [r2, #0]
100049d4:	68a3      	ldr	r3, [r4, #8]
100049d6:	2201      	movs	r2, #1
100049d8:	40b2      	lsls	r2, r6
100049da:	421a      	tst	r2, r3
100049dc:	d0fa      	beq.n	100049d4 <clock_configure+0xdc>
100049de:	e7cd      	b.n	1000497c <clock_configure+0x84>
100049e0:	40008000 	.word	0x40008000
100049e4:	20008ae4 	.word	0x20008ae4
100049e8:	1000b4b8 	.word	0x1000b4b8
100049ec:	1000b4a8 	.word	0x1000b4a8
100049f0:	1000b4cc 	.word	0x1000b4cc

100049f4 <clocks_init>:
100049f4:	b530      	push	{r4, r5, lr}
100049f6:	b083      	sub	sp, #12
100049f8:	200c      	movs	r0, #12
100049fa:	f000 f92f 	bl	10004c5c <watchdog_start_tick>
100049fe:	f7fe fa0b 	bl	10002e18 <running_on_fpga>
10004a02:	2800      	cmp	r0, #0
10004a04:	d00d      	beq.n	10004a22 <clocks_init+0x2e>
10004a06:	2300      	movs	r3, #0
10004a08:	2b09      	cmp	r3, #9
10004a0a:	d805      	bhi.n	10004a18 <clocks_init+0x24>
10004a0c:	0099      	lsls	r1, r3, #2
10004a0e:	4a2d      	ldr	r2, [pc, #180]	; (10004ac4 <clocks_init+0xd0>)
10004a10:	482d      	ldr	r0, [pc, #180]	; (10004ac8 <clocks_init+0xd4>)
10004a12:	5088      	str	r0, [r1, r2]
10004a14:	3301      	adds	r3, #1
10004a16:	e7f7      	b.n	10004a08 <clocks_init+0x14>
10004a18:	4b2a      	ldr	r3, [pc, #168]	; (10004ac4 <clocks_init+0xd0>)
10004a1a:	4a2c      	ldr	r2, [pc, #176]	; (10004acc <clocks_init+0xd8>)
10004a1c:	625a      	str	r2, [r3, #36]	; 0x24
10004a1e:	b003      	add	sp, #12
10004a20:	bd30      	pop	{r4, r5, pc}
10004a22:	4b2b      	ldr	r3, [pc, #172]	; (10004ad0 <clocks_init+0xdc>)
10004a24:	2200      	movs	r2, #0
10004a26:	679a      	str	r2, [r3, #120]	; 0x78
10004a28:	f000 f986 	bl	10004d38 <xosc_init>
10004a2c:	4b29      	ldr	r3, [pc, #164]	; (10004ad4 <clocks_init+0xe0>)
10004a2e:	2201      	movs	r2, #1
10004a30:	601a      	str	r2, [r3, #0]
10004a32:	4b27      	ldr	r3, [pc, #156]	; (10004ad0 <clocks_init+0xdc>)
10004a34:	6c5b      	ldr	r3, [r3, #68]	; 0x44
10004a36:	2b01      	cmp	r3, #1
10004a38:	d1fb      	bne.n	10004a32 <clocks_init+0x3e>
10004a3a:	4b27      	ldr	r3, [pc, #156]	; (10004ad8 <clocks_init+0xe4>)
10004a3c:	2203      	movs	r2, #3
10004a3e:	601a      	str	r2, [r3, #0]
10004a40:	4b23      	ldr	r3, [pc, #140]	; (10004ad0 <clocks_init+0xdc>)
10004a42:	6b9b      	ldr	r3, [r3, #56]	; 0x38
10004a44:	2b01      	cmp	r3, #1
10004a46:	d1fb      	bne.n	10004a40 <clocks_init+0x4c>
10004a48:	3301      	adds	r3, #1
10004a4a:	9300      	str	r3, [sp, #0]
10004a4c:	3304      	adds	r3, #4
10004a4e:	4a23      	ldr	r2, [pc, #140]	; (10004adc <clocks_init+0xe8>)
10004a50:	2101      	movs	r1, #1
10004a52:	4823      	ldr	r0, [pc, #140]	; (10004ae0 <clocks_init+0xec>)
10004a54:	f000 f854 	bl	10004b00 <pll_init>
10004a58:	2305      	movs	r3, #5
10004a5a:	9300      	str	r3, [sp, #0]
10004a5c:	4a21      	ldr	r2, [pc, #132]	; (10004ae4 <clocks_init+0xf0>)
10004a5e:	2101      	movs	r1, #1
10004a60:	4821      	ldr	r0, [pc, #132]	; (10004ae8 <clocks_init+0xf4>)
10004a62:	f000 f84d 	bl	10004b00 <pll_init>
10004a66:	4b21      	ldr	r3, [pc, #132]	; (10004aec <clocks_init+0xf8>)
10004a68:	9300      	str	r3, [sp, #0]
10004a6a:	2200      	movs	r2, #0
10004a6c:	2102      	movs	r1, #2
10004a6e:	2004      	movs	r0, #4
10004a70:	f7ff ff42 	bl	100048f8 <clock_configure>
10004a74:	4d1e      	ldr	r5, [pc, #120]	; (10004af0 <clocks_init+0xfc>)
10004a76:	9500      	str	r5, [sp, #0]
10004a78:	002b      	movs	r3, r5
10004a7a:	2200      	movs	r2, #0
10004a7c:	2101      	movs	r1, #1
10004a7e:	2005      	movs	r0, #5
10004a80:	f7ff ff3a 	bl	100048f8 <clock_configure>
10004a84:	4c10      	ldr	r4, [pc, #64]	; (10004ac8 <clocks_init+0xd4>)
10004a86:	9400      	str	r4, [sp, #0]
10004a88:	0023      	movs	r3, r4
10004a8a:	2200      	movs	r2, #0
10004a8c:	2100      	movs	r1, #0
10004a8e:	2007      	movs	r0, #7
10004a90:	f7ff ff32 	bl	100048f8 <clock_configure>
10004a94:	9400      	str	r4, [sp, #0]
10004a96:	0023      	movs	r3, r4
10004a98:	2200      	movs	r2, #0
10004a9a:	2100      	movs	r1, #0
10004a9c:	2008      	movs	r0, #8
10004a9e:	f7ff ff2b 	bl	100048f8 <clock_configure>
10004aa2:	4b0a      	ldr	r3, [pc, #40]	; (10004acc <clocks_init+0xd8>)
10004aa4:	9300      	str	r3, [sp, #0]
10004aa6:	0023      	movs	r3, r4
10004aa8:	2200      	movs	r2, #0
10004aaa:	2100      	movs	r1, #0
10004aac:	2009      	movs	r0, #9
10004aae:	f7ff ff23 	bl	100048f8 <clock_configure>
10004ab2:	9500      	str	r5, [sp, #0]
10004ab4:	002b      	movs	r3, r5
10004ab6:	2200      	movs	r2, #0
10004ab8:	2100      	movs	r1, #0
10004aba:	2006      	movs	r0, #6
10004abc:	f7ff ff1c 	bl	100048f8 <clock_configure>
10004ac0:	e7ad      	b.n	10004a1e <clocks_init+0x2a>
10004ac2:	46c0      	nop			; (mov r8, r8)
10004ac4:	20008ae4 	.word	0x20008ae4
10004ac8:	02dc6c00 	.word	0x02dc6c00
10004acc:	0000b71b 	.word	0x0000b71b
10004ad0:	40008000 	.word	0x40008000
10004ad4:	4000b03c 	.word	0x4000b03c
10004ad8:	4000b030 	.word	0x4000b030
10004adc:	59682f00 	.word	0x59682f00
10004ae0:	40028000 	.word	0x40028000
10004ae4:	47868c00 	.word	0x47868c00
10004ae8:	4002c000 	.word	0x4002c000
10004aec:	00b71b00 	.word	0x00b71b00
10004af0:	07735940 	.word	0x07735940

10004af4 <clock_get_hz>:
10004af4:	0080      	lsls	r0, r0, #2
10004af6:	4b01      	ldr	r3, [pc, #4]	; (10004afc <clock_get_hz+0x8>)
10004af8:	58c0      	ldr	r0, [r0, r3]
10004afa:	4770      	bx	lr
10004afc:	20008ae4 	.word	0x20008ae4

10004b00 <pll_init>:
10004b00:	b5f0      	push	{r4, r5, r6, r7, lr}
10004b02:	b083      	sub	sp, #12
10004b04:	0005      	movs	r5, r0
10004b06:	9101      	str	r1, [sp, #4]
10004b08:	0014      	movs	r4, r2
10004b0a:	001f      	movs	r7, r3
10004b0c:	200c      	movs	r0, #12
10004b0e:	f001 f9fb 	bl	10005f08 <__wrap___aeabi_uidiv>
10004b12:	0006      	movs	r6, r0
10004b14:	4b3d      	ldr	r3, [pc, #244]	; (10004c0c <pll_init+0x10c>)
10004b16:	18e2      	adds	r2, r4, r3
10004b18:	4b3d      	ldr	r3, [pc, #244]	; (10004c10 <pll_init+0x110>)
10004b1a:	429a      	cmp	r2, r3
10004b1c:	d842      	bhi.n	10004ba4 <pll_init+0xa4>
10004b1e:	0142      	lsls	r2, r0, #5
10004b20:	1a12      	subs	r2, r2, r0
10004b22:	0193      	lsls	r3, r2, #6
10004b24:	1a9b      	subs	r3, r3, r2
10004b26:	00db      	lsls	r3, r3, #3
10004b28:	181b      	adds	r3, r3, r0
10004b2a:	0199      	lsls	r1, r3, #6
10004b2c:	0020      	movs	r0, r4
10004b2e:	f001 f9eb 	bl	10005f08 <__wrap___aeabi_uidiv>
10004b32:	0002      	movs	r2, r0
10004b34:	3a10      	subs	r2, #16
10004b36:	2398      	movs	r3, #152	; 0x98
10004b38:	005b      	lsls	r3, r3, #1
10004b3a:	429a      	cmp	r2, r3
10004b3c:	d838      	bhi.n	10004bb0 <pll_init+0xb0>
10004b3e:	1e7b      	subs	r3, r7, #1
10004b40:	2b06      	cmp	r3, #6
10004b42:	d83b      	bhi.n	10004bbc <pll_init+0xbc>
10004b44:	9b08      	ldr	r3, [sp, #32]
10004b46:	3b01      	subs	r3, #1
10004b48:	2b06      	cmp	r3, #6
10004b4a:	d837      	bhi.n	10004bbc <pll_init+0xbc>
10004b4c:	9b08      	ldr	r3, [sp, #32]
10004b4e:	429f      	cmp	r7, r3
10004b50:	d33a      	bcc.n	10004bc8 <pll_init+0xc8>
10004b52:	0923      	lsrs	r3, r4, #4
10004b54:	42b3      	cmp	r3, r6
10004b56:	d33d      	bcc.n	10004bd4 <pll_init+0xd4>
10004b58:	043f      	lsls	r7, r7, #16
10004b5a:	9b08      	ldr	r3, [sp, #32]
10004b5c:	031e      	lsls	r6, r3, #12
10004b5e:	433e      	orrs	r6, r7
10004b60:	682b      	ldr	r3, [r5, #0]
10004b62:	2b00      	cmp	r3, #0
10004b64:	db3c      	blt.n	10004be0 <pll_init+0xe0>
10004b66:	4b2b      	ldr	r3, [pc, #172]	; (10004c14 <pll_init+0x114>)
10004b68:	429d      	cmp	r5, r3
10004b6a:	d04b      	beq.n	10004c04 <pll_init+0x104>
10004b6c:	2180      	movs	r1, #128	; 0x80
10004b6e:	0149      	lsls	r1, r1, #5
10004b70:	4b29      	ldr	r3, [pc, #164]	; (10004c18 <pll_init+0x118>)
10004b72:	6019      	str	r1, [r3, #0]
10004b74:	4b29      	ldr	r3, [pc, #164]	; (10004c1c <pll_init+0x11c>)
10004b76:	6019      	str	r1, [r3, #0]
10004b78:	4a29      	ldr	r2, [pc, #164]	; (10004c20 <pll_init+0x120>)
10004b7a:	6892      	ldr	r2, [r2, #8]
10004b7c:	000b      	movs	r3, r1
10004b7e:	4393      	bics	r3, r2
10004b80:	d1fa      	bne.n	10004b78 <pll_init+0x78>
10004b82:	9b01      	ldr	r3, [sp, #4]
10004b84:	602b      	str	r3, [r5, #0]
10004b86:	60a8      	str	r0, [r5, #8]
10004b88:	1d2a      	adds	r2, r5, #4
10004b8a:	23c0      	movs	r3, #192	; 0xc0
10004b8c:	019b      	lsls	r3, r3, #6
10004b8e:	4313      	orrs	r3, r2
10004b90:	2221      	movs	r2, #33	; 0x21
10004b92:	601a      	str	r2, [r3, #0]
10004b94:	682a      	ldr	r2, [r5, #0]
10004b96:	2a00      	cmp	r2, #0
10004b98:	dafc      	bge.n	10004b94 <pll_init+0x94>
10004b9a:	60ee      	str	r6, [r5, #12]
10004b9c:	2208      	movs	r2, #8
10004b9e:	601a      	str	r2, [r3, #0]
10004ba0:	b003      	add	sp, #12
10004ba2:	bdf0      	pop	{r4, r5, r6, r7, pc}
10004ba4:	4b1f      	ldr	r3, [pc, #124]	; (10004c24 <pll_init+0x124>)
10004ba6:	4a20      	ldr	r2, [pc, #128]	; (10004c28 <pll_init+0x128>)
10004ba8:	2111      	movs	r1, #17
10004baa:	4820      	ldr	r0, [pc, #128]	; (10004c2c <pll_init+0x12c>)
10004bac:	f7ff fdf2 	bl	10004794 <__assert_func>
10004bb0:	4b1f      	ldr	r3, [pc, #124]	; (10004c30 <pll_init+0x130>)
10004bb2:	4a1d      	ldr	r2, [pc, #116]	; (10004c28 <pll_init+0x128>)
10004bb4:	2119      	movs	r1, #25
10004bb6:	481d      	ldr	r0, [pc, #116]	; (10004c2c <pll_init+0x12c>)
10004bb8:	f7ff fdec 	bl	10004794 <__assert_func>
10004bbc:	4b1d      	ldr	r3, [pc, #116]	; (10004c34 <pll_init+0x134>)
10004bbe:	4a1a      	ldr	r2, [pc, #104]	; (10004c28 <pll_init+0x128>)
10004bc0:	211c      	movs	r1, #28
10004bc2:	481a      	ldr	r0, [pc, #104]	; (10004c2c <pll_init+0x12c>)
10004bc4:	f7ff fde6 	bl	10004794 <__assert_func>
10004bc8:	4b1b      	ldr	r3, [pc, #108]	; (10004c38 <pll_init+0x138>)
10004bca:	4a17      	ldr	r2, [pc, #92]	; (10004c28 <pll_init+0x128>)
10004bcc:	2122      	movs	r1, #34	; 0x22
10004bce:	4817      	ldr	r0, [pc, #92]	; (10004c2c <pll_init+0x12c>)
10004bd0:	f7ff fde0 	bl	10004794 <__assert_func>
10004bd4:	4b19      	ldr	r3, [pc, #100]	; (10004c3c <pll_init+0x13c>)
10004bd6:	4a14      	ldr	r2, [pc, #80]	; (10004c28 <pll_init+0x128>)
10004bd8:	2125      	movs	r1, #37	; 0x25
10004bda:	4814      	ldr	r0, [pc, #80]	; (10004c2c <pll_init+0x12c>)
10004bdc:	f7ff fdda 	bl	10004794 <__assert_func>
10004be0:	682a      	ldr	r2, [r5, #0]
10004be2:	233f      	movs	r3, #63	; 0x3f
10004be4:	4013      	ands	r3, r2
10004be6:	9a01      	ldr	r2, [sp, #4]
10004be8:	4293      	cmp	r3, r2
10004bea:	d1bc      	bne.n	10004b66 <pll_init+0x66>
10004bec:	68ab      	ldr	r3, [r5, #8]
10004bee:	051b      	lsls	r3, r3, #20
10004bf0:	0d1b      	lsrs	r3, r3, #20
10004bf2:	4283      	cmp	r3, r0
10004bf4:	d1b7      	bne.n	10004b66 <pll_init+0x66>
10004bf6:	68eb      	ldr	r3, [r5, #12]
10004bf8:	22ee      	movs	r2, #238	; 0xee
10004bfa:	02d2      	lsls	r2, r2, #11
10004bfc:	4013      	ands	r3, r2
10004bfe:	42b3      	cmp	r3, r6
10004c00:	d1b1      	bne.n	10004b66 <pll_init+0x66>
10004c02:	e7cd      	b.n	10004ba0 <pll_init+0xa0>
10004c04:	2180      	movs	r1, #128	; 0x80
10004c06:	0189      	lsls	r1, r1, #6
10004c08:	e7b2      	b.n	10004b70 <pll_init+0x70>
10004c0a:	46c0      	nop			; (mov r8, r8)
10004c0c:	d34be880 	.word	0xd34be880
10004c10:	32a9f880 	.word	0x32a9f880
10004c14:	4002c000 	.word	0x4002c000
10004c18:	4000e000 	.word	0x4000e000
10004c1c:	4000f000 	.word	0x4000f000
10004c20:	4000c000 	.word	0x4000c000
10004c24:	1000b524 	.word	0x1000b524
10004c28:	1000b518 	.word	0x1000b518
10004c2c:	1000b584 	.word	0x1000b584
10004c30:	1000b5c8 	.word	0x1000b5c8
10004c34:	1000b5e4 	.word	0x1000b5e4
10004c38:	1000b630 	.word	0x1000b630
10004c3c:	1000b648 	.word	0x1000b648

10004c40 <vreg_set_voltage>:
10004c40:	0100      	lsls	r0, r0, #4
10004c42:	4b04      	ldr	r3, [pc, #16]	; (10004c54 <vreg_set_voltage+0x14>)
10004c44:	681b      	ldr	r3, [r3, #0]
10004c46:	4058      	eors	r0, r3
10004c48:	23f0      	movs	r3, #240	; 0xf0
10004c4a:	4018      	ands	r0, r3
10004c4c:	4b02      	ldr	r3, [pc, #8]	; (10004c58 <vreg_set_voltage+0x18>)
10004c4e:	6018      	str	r0, [r3, #0]
10004c50:	4770      	bx	lr
10004c52:	46c0      	nop			; (mov r8, r8)
10004c54:	40064000 	.word	0x40064000
10004c58:	40065000 	.word	0x40065000

10004c5c <watchdog_start_tick>:
10004c5c:	2380      	movs	r3, #128	; 0x80
10004c5e:	009b      	lsls	r3, r3, #2
10004c60:	4303      	orrs	r3, r0
10004c62:	4a01      	ldr	r2, [pc, #4]	; (10004c68 <watchdog_start_tick+0xc>)
10004c64:	62d3      	str	r3, [r2, #44]	; 0x2c
10004c66:	4770      	bx	lr
10004c68:	40058000 	.word	0x40058000

10004c6c <watchdog_update>:
10004c6c:	4b02      	ldr	r3, [pc, #8]	; (10004c78 <watchdog_update+0xc>)
10004c6e:	681a      	ldr	r2, [r3, #0]
10004c70:	4b02      	ldr	r3, [pc, #8]	; (10004c7c <watchdog_update+0x10>)
10004c72:	605a      	str	r2, [r3, #4]
10004c74:	4770      	bx	lr
10004c76:	46c0      	nop			; (mov r8, r8)
10004c78:	20008f7c 	.word	0x20008f7c
10004c7c:	40058000 	.word	0x40058000

10004c80 <_watchdog_enable>:
10004c80:	b510      	push	{r4, lr}
10004c82:	4b16      	ldr	r3, [pc, #88]	; (10004cdc <_watchdog_enable+0x5c>)
10004c84:	2280      	movs	r2, #128	; 0x80
10004c86:	05d2      	lsls	r2, r2, #23
10004c88:	601a      	str	r2, [r3, #0]
10004c8a:	4b15      	ldr	r3, [pc, #84]	; (10004ce0 <_watchdog_enable+0x60>)
10004c8c:	4a15      	ldr	r2, [pc, #84]	; (10004ce4 <_watchdog_enable+0x64>)
10004c8e:	601a      	str	r2, [r3, #0]
10004c90:	2900      	cmp	r1, #0
10004c92:	d00a      	beq.n	10004caa <_watchdog_enable+0x2a>
10004c94:	4b14      	ldr	r3, [pc, #80]	; (10004ce8 <_watchdog_enable+0x68>)
10004c96:	22e0      	movs	r2, #224	; 0xe0
10004c98:	04d2      	lsls	r2, r2, #19
10004c9a:	601a      	str	r2, [r3, #0]
10004c9c:	2800      	cmp	r0, #0
10004c9e:	d109      	bne.n	10004cb4 <_watchdog_enable+0x34>
10004ca0:	4b11      	ldr	r3, [pc, #68]	; (10004ce8 <_watchdog_enable+0x68>)
10004ca2:	2280      	movs	r2, #128	; 0x80
10004ca4:	0612      	lsls	r2, r2, #24
10004ca6:	601a      	str	r2, [r3, #0]
10004ca8:	bd10      	pop	{r4, pc}
10004caa:	4b0c      	ldr	r3, [pc, #48]	; (10004cdc <_watchdog_enable+0x5c>)
10004cac:	22e0      	movs	r2, #224	; 0xe0
10004cae:	04d2      	lsls	r2, r2, #19
10004cb0:	601a      	str	r2, [r3, #0]
10004cb2:	e7f3      	b.n	10004c9c <_watchdog_enable+0x1c>
10004cb4:	0143      	lsls	r3, r0, #5
10004cb6:	1a1b      	subs	r3, r3, r0
10004cb8:	009b      	lsls	r3, r3, #2
10004cba:	1818      	adds	r0, r3, r0
10004cbc:	0103      	lsls	r3, r0, #4
10004cbe:	4a0b      	ldr	r2, [pc, #44]	; (10004cec <_watchdog_enable+0x6c>)
10004cc0:	6013      	str	r3, [r2, #0]
10004cc2:	4a0b      	ldr	r2, [pc, #44]	; (10004cf0 <_watchdog_enable+0x70>)
10004cc4:	4293      	cmp	r3, r2
10004cc6:	d901      	bls.n	10004ccc <_watchdog_enable+0x4c>
10004cc8:	4b08      	ldr	r3, [pc, #32]	; (10004cec <_watchdog_enable+0x6c>)
10004cca:	601a      	str	r2, [r3, #0]
10004ccc:	f7ff ffce 	bl	10004c6c <watchdog_update>
10004cd0:	4b05      	ldr	r3, [pc, #20]	; (10004ce8 <_watchdog_enable+0x68>)
10004cd2:	2280      	movs	r2, #128	; 0x80
10004cd4:	05d2      	lsls	r2, r2, #23
10004cd6:	601a      	str	r2, [r3, #0]
10004cd8:	e7e6      	b.n	10004ca8 <_watchdog_enable+0x28>
10004cda:	46c0      	nop			; (mov r8, r8)
10004cdc:	4005b000 	.word	0x4005b000
10004ce0:	40012008 	.word	0x40012008
10004ce4:	0001fffc 	.word	0x0001fffc
10004ce8:	4005a000 	.word	0x4005a000
10004cec:	20008f7c 	.word	0x20008f7c
10004cf0:	00ffffff 	.word	0x00ffffff

10004cf4 <watchdog_reboot>:
10004cf4:	b510      	push	{r4, lr}
10004cf6:	4b0c      	ldr	r3, [pc, #48]	; (10004d28 <watchdog_reboot+0x34>)
10004cf8:	2480      	movs	r4, #128	; 0x80
10004cfa:	05e4      	lsls	r4, r4, #23
10004cfc:	601c      	str	r4, [r3, #0]
10004cfe:	2800      	cmp	r0, #0
10004d00:	d00e      	beq.n	10004d20 <watchdog_reboot+0x2c>
10004d02:	2301      	movs	r3, #1
10004d04:	4303      	orrs	r3, r0
10004d06:	4c09      	ldr	r4, [pc, #36]	; (10004d2c <watchdog_reboot+0x38>)
10004d08:	4809      	ldr	r0, [pc, #36]	; (10004d30 <watchdog_reboot+0x3c>)
10004d0a:	61e0      	str	r0, [r4, #28]
10004d0c:	4809      	ldr	r0, [pc, #36]	; (10004d34 <watchdog_reboot+0x40>)
10004d0e:	4058      	eors	r0, r3
10004d10:	6220      	str	r0, [r4, #32]
10004d12:	6261      	str	r1, [r4, #36]	; 0x24
10004d14:	62a3      	str	r3, [r4, #40]	; 0x28
10004d16:	2100      	movs	r1, #0
10004d18:	0010      	movs	r0, r2
10004d1a:	f7ff ffb1 	bl	10004c80 <_watchdog_enable>
10004d1e:	bd10      	pop	{r4, pc}
10004d20:	4b02      	ldr	r3, [pc, #8]	; (10004d2c <watchdog_reboot+0x38>)
10004d22:	2100      	movs	r1, #0
10004d24:	61d9      	str	r1, [r3, #28]
10004d26:	e7f6      	b.n	10004d16 <watchdog_reboot+0x22>
10004d28:	4005b000 	.word	0x4005b000
10004d2c:	40058000 	.word	0x40058000
10004d30:	b007c0d3 	.word	0xb007c0d3
10004d34:	4ff83f2d 	.word	0x4ff83f2d

10004d38 <xosc_init>:
10004d38:	4b06      	ldr	r3, [pc, #24]	; (10004d54 <xosc_init+0x1c>)
10004d3a:	22aa      	movs	r2, #170	; 0xaa
10004d3c:	0112      	lsls	r2, r2, #4
10004d3e:	601a      	str	r2, [r3, #0]
10004d40:	222f      	movs	r2, #47	; 0x2f
10004d42:	60da      	str	r2, [r3, #12]
10004d44:	4b04      	ldr	r3, [pc, #16]	; (10004d58 <xosc_init+0x20>)
10004d46:	4a05      	ldr	r2, [pc, #20]	; (10004d5c <xosc_init+0x24>)
10004d48:	601a      	str	r2, [r3, #0]
10004d4a:	4b02      	ldr	r3, [pc, #8]	; (10004d54 <xosc_init+0x1c>)
10004d4c:	685b      	ldr	r3, [r3, #4]
10004d4e:	2b00      	cmp	r3, #0
10004d50:	dafb      	bge.n	10004d4a <xosc_init+0x12>
10004d52:	4770      	bx	lr
10004d54:	40024000 	.word	0x40024000
10004d58:	40026000 	.word	0x40026000
10004d5c:	00fab000 	.word	0x00fab000

10004d60 <_out_null>:
10004d60:	4770      	bx	lr

10004d62 <_out_fct>:
10004d62:	b510      	push	{r4, lr}
10004d64:	2800      	cmp	r0, #0
10004d66:	d002      	beq.n	10004d6e <_out_fct+0xc>
10004d68:	680b      	ldr	r3, [r1, #0]
10004d6a:	6849      	ldr	r1, [r1, #4]
10004d6c:	4798      	blx	r3
10004d6e:	bd10      	pop	{r4, pc}

10004d70 <_atoi>:
10004d70:	b510      	push	{r4, lr}
10004d72:	0004      	movs	r4, r0
10004d74:	2300      	movs	r3, #0
10004d76:	6821      	ldr	r1, [r4, #0]
10004d78:	780a      	ldrb	r2, [r1, #0]
10004d7a:	3a30      	subs	r2, #48	; 0x30
10004d7c:	b2d2      	uxtb	r2, r2
10004d7e:	2a09      	cmp	r2, #9
10004d80:	d808      	bhi.n	10004d94 <_atoi+0x24>
10004d82:	0098      	lsls	r0, r3, #2
10004d84:	18c3      	adds	r3, r0, r3
10004d86:	0058      	lsls	r0, r3, #1
10004d88:	1c4b      	adds	r3, r1, #1
10004d8a:	6023      	str	r3, [r4, #0]
10004d8c:	780b      	ldrb	r3, [r1, #0]
10004d8e:	181b      	adds	r3, r3, r0
10004d90:	3b30      	subs	r3, #48	; 0x30
10004d92:	e7f0      	b.n	10004d76 <_atoi+0x6>
10004d94:	0018      	movs	r0, r3
10004d96:	bd10      	pop	{r4, pc}

10004d98 <_out_rev>:
10004d98:	b5f0      	push	{r4, r5, r6, r7, lr}
10004d9a:	46d6      	mov	lr, sl
10004d9c:	464f      	mov	r7, r9
10004d9e:	4646      	mov	r6, r8
10004da0:	b5c0      	push	{r6, r7, lr}
10004da2:	b082      	sub	sp, #8
10004da4:	0005      	movs	r5, r0
10004da6:	9100      	str	r1, [sp, #0]
10004da8:	4690      	mov	r8, r2
10004daa:	9301      	str	r3, [sp, #4]
10004dac:	9b0a      	ldr	r3, [sp, #40]	; 0x28
10004dae:	4699      	mov	r9, r3
10004db0:	9c0b      	ldr	r4, [sp, #44]	; 0x2c
10004db2:	9e0c      	ldr	r6, [sp, #48]	; 0x30
10004db4:	9b0d      	ldr	r3, [sp, #52]	; 0x34
10004db6:	079b      	lsls	r3, r3, #30
10004db8:	d00c      	beq.n	10004dd4 <_out_rev+0x3c>
10004dba:	464e      	mov	r6, r9
10004dbc:	9b0c      	ldr	r3, [sp, #48]	; 0x30
10004dbe:	4699      	mov	r9, r3
10004dc0:	2c00      	cmp	r4, #0
10004dc2:	d019      	beq.n	10004df8 <_out_rev+0x60>
10004dc4:	3c01      	subs	r4, #1
10004dc6:	1c57      	adds	r7, r2, #1
10004dc8:	5d30      	ldrb	r0, [r6, r4]
10004dca:	9b01      	ldr	r3, [sp, #4]
10004dcc:	9900      	ldr	r1, [sp, #0]
10004dce:	47a8      	blx	r5
10004dd0:	003a      	movs	r2, r7
10004dd2:	e7f5      	b.n	10004dc0 <_out_rev+0x28>
10004dd4:	0027      	movs	r7, r4
10004dd6:	46a2      	mov	sl, r4
10004dd8:	42b7      	cmp	r7, r6
10004dda:	d207      	bcs.n	10004dec <_out_rev+0x54>
10004ddc:	1c54      	adds	r4, r2, #1
10004dde:	9b01      	ldr	r3, [sp, #4]
10004de0:	9900      	ldr	r1, [sp, #0]
10004de2:	2020      	movs	r0, #32
10004de4:	47a8      	blx	r5
10004de6:	3701      	adds	r7, #1
10004de8:	0022      	movs	r2, r4
10004dea:	e7f5      	b.n	10004dd8 <_out_rev+0x40>
10004dec:	4654      	mov	r4, sl
10004dee:	960c      	str	r6, [sp, #48]	; 0x30
10004df0:	464e      	mov	r6, r9
10004df2:	9b0c      	ldr	r3, [sp, #48]	; 0x30
10004df4:	4699      	mov	r9, r3
10004df6:	e7e3      	b.n	10004dc0 <_out_rev+0x28>
10004df8:	464e      	mov	r6, r9
10004dfa:	9b0d      	ldr	r3, [sp, #52]	; 0x34
10004dfc:	079b      	lsls	r3, r3, #30
10004dfe:	d406      	bmi.n	10004e0e <_out_rev+0x76>
10004e00:	0010      	movs	r0, r2
10004e02:	b002      	add	sp, #8
10004e04:	bc1c      	pop	{r2, r3, r4}
10004e06:	4690      	mov	r8, r2
10004e08:	4699      	mov	r9, r3
10004e0a:	46a2      	mov	sl, r4
10004e0c:	bdf0      	pop	{r4, r5, r6, r7, pc}
10004e0e:	4647      	mov	r7, r8
10004e10:	1bd3      	subs	r3, r2, r7
10004e12:	42b3      	cmp	r3, r6
10004e14:	d2f4      	bcs.n	10004e00 <_out_rev+0x68>
10004e16:	1c54      	adds	r4, r2, #1
10004e18:	9b01      	ldr	r3, [sp, #4]
10004e1a:	9900      	ldr	r1, [sp, #0]
10004e1c:	2020      	movs	r0, #32
10004e1e:	47a8      	blx	r5
10004e20:	0022      	movs	r2, r4
10004e22:	e7f5      	b.n	10004e10 <_out_rev+0x78>

10004e24 <_ntoa_format>:
10004e24:	b5f0      	push	{r4, r5, r6, r7, lr}
10004e26:	46ce      	mov	lr, r9
10004e28:	b500      	push	{lr}
10004e2a:	b086      	sub	sp, #24
10004e2c:	9204      	str	r2, [sp, #16]
10004e2e:	9305      	str	r3, [sp, #20]
10004e30:	9d0c      	ldr	r5, [sp, #48]	; 0x30
10004e32:	9c0d      	ldr	r4, [sp, #52]	; 0x34
10004e34:	ae0e      	add	r6, sp, #56	; 0x38
10004e36:	7833      	ldrb	r3, [r6, #0]
10004e38:	4699      	mov	r9, r3
10004e3a:	9f10      	ldr	r7, [sp, #64]	; 0x40
10004e3c:	9b11      	ldr	r3, [sp, #68]	; 0x44
10004e3e:	9e12      	ldr	r6, [sp, #72]	; 0x48
10004e40:	07b2      	lsls	r2, r6, #30
10004e42:	d41b      	bmi.n	10004e7c <_ntoa_format+0x58>
10004e44:	2b00      	cmp	r3, #0
10004e46:	d008      	beq.n	10004e5a <_ntoa_format+0x36>
10004e48:	07f2      	lsls	r2, r6, #31
10004e4a:	d506      	bpl.n	10004e5a <_ntoa_format+0x36>
10004e4c:	464a      	mov	r2, r9
10004e4e:	2a00      	cmp	r2, #0
10004e50:	d102      	bne.n	10004e58 <_ntoa_format+0x34>
10004e52:	320c      	adds	r2, #12
10004e54:	4232      	tst	r2, r6
10004e56:	d000      	beq.n	10004e5a <_ntoa_format+0x36>
10004e58:	3b01      	subs	r3, #1
10004e5a:	42bc      	cmp	r4, r7
10004e5c:	d208      	bcs.n	10004e70 <_ntoa_format+0x4c>
10004e5e:	2c1f      	cmp	r4, #31
10004e60:	d806      	bhi.n	10004e70 <_ntoa_format+0x4c>
10004e62:	2230      	movs	r2, #48	; 0x30
10004e64:	552a      	strb	r2, [r5, r4]
10004e66:	3401      	adds	r4, #1
10004e68:	e7f7      	b.n	10004e5a <_ntoa_format+0x36>
10004e6a:	2230      	movs	r2, #48	; 0x30
10004e6c:	552a      	strb	r2, [r5, r4]
10004e6e:	3401      	adds	r4, #1
10004e70:	07f2      	lsls	r2, r6, #31
10004e72:	d503      	bpl.n	10004e7c <_ntoa_format+0x58>
10004e74:	429c      	cmp	r4, r3
10004e76:	d201      	bcs.n	10004e7c <_ntoa_format+0x58>
10004e78:	2c1f      	cmp	r4, #31
10004e7a:	d9f6      	bls.n	10004e6a <_ntoa_format+0x46>
10004e7c:	06f2      	lsls	r2, r6, #27
10004e7e:	d515      	bpl.n	10004eac <_ntoa_format+0x88>
10004e80:	0572      	lsls	r2, r6, #21
10004e82:	d405      	bmi.n	10004e90 <_ntoa_format+0x6c>
10004e84:	2c00      	cmp	r4, #0
10004e86:	d003      	beq.n	10004e90 <_ntoa_format+0x6c>
10004e88:	42bc      	cmp	r4, r7
10004e8a:	d023      	beq.n	10004ed4 <_ntoa_format+0xb0>
10004e8c:	429c      	cmp	r4, r3
10004e8e:	d021      	beq.n	10004ed4 <_ntoa_format+0xb0>
10004e90:	9a0f      	ldr	r2, [sp, #60]	; 0x3c
10004e92:	2a10      	cmp	r2, #16
10004e94:	d02a      	beq.n	10004eec <_ntoa_format+0xc8>
10004e96:	9a0f      	ldr	r2, [sp, #60]	; 0x3c
10004e98:	2a10      	cmp	r2, #16
10004e9a:	d02f      	beq.n	10004efc <_ntoa_format+0xd8>
10004e9c:	9a0f      	ldr	r2, [sp, #60]	; 0x3c
10004e9e:	2a02      	cmp	r2, #2
10004ea0:	d034      	beq.n	10004f0c <_ntoa_format+0xe8>
10004ea2:	2c1f      	cmp	r4, #31
10004ea4:	d802      	bhi.n	10004eac <_ntoa_format+0x88>
10004ea6:	2730      	movs	r7, #48	; 0x30
10004ea8:	552f      	strb	r7, [r5, r4]
10004eaa:	3401      	adds	r4, #1
10004eac:	2c1f      	cmp	r4, #31
10004eae:	d805      	bhi.n	10004ebc <_ntoa_format+0x98>
10004eb0:	464a      	mov	r2, r9
10004eb2:	2a00      	cmp	r2, #0
10004eb4:	d030      	beq.n	10004f18 <_ntoa_format+0xf4>
10004eb6:	272d      	movs	r7, #45	; 0x2d
10004eb8:	552f      	strb	r7, [r5, r4]
10004eba:	3401      	adds	r4, #1
10004ebc:	9603      	str	r6, [sp, #12]
10004ebe:	9302      	str	r3, [sp, #8]
10004ec0:	9401      	str	r4, [sp, #4]
10004ec2:	9500      	str	r5, [sp, #0]
10004ec4:	9b05      	ldr	r3, [sp, #20]
10004ec6:	9a04      	ldr	r2, [sp, #16]
10004ec8:	f7ff ff66 	bl	10004d98 <_out_rev>
10004ecc:	b006      	add	sp, #24
10004ece:	bc04      	pop	{r2}
10004ed0:	4691      	mov	r9, r2
10004ed2:	bdf0      	pop	{r4, r5, r6, r7, pc}
10004ed4:	1e67      	subs	r7, r4, #1
10004ed6:	2f00      	cmp	r7, #0
10004ed8:	d006      	beq.n	10004ee8 <_ntoa_format+0xc4>
10004eda:	9a0f      	ldr	r2, [sp, #60]	; 0x3c
10004edc:	2a10      	cmp	r2, #16
10004ede:	d001      	beq.n	10004ee4 <_ntoa_format+0xc0>
10004ee0:	003c      	movs	r4, r7
10004ee2:	e7d5      	b.n	10004e90 <_ntoa_format+0x6c>
10004ee4:	3c02      	subs	r4, #2
10004ee6:	e7d3      	b.n	10004e90 <_ntoa_format+0x6c>
10004ee8:	003c      	movs	r4, r7
10004eea:	e7d1      	b.n	10004e90 <_ntoa_format+0x6c>
10004eec:	06b2      	lsls	r2, r6, #26
10004eee:	d4d2      	bmi.n	10004e96 <_ntoa_format+0x72>
10004ef0:	2c1f      	cmp	r4, #31
10004ef2:	d8d0      	bhi.n	10004e96 <_ntoa_format+0x72>
10004ef4:	2778      	movs	r7, #120	; 0x78
10004ef6:	552f      	strb	r7, [r5, r4]
10004ef8:	3401      	adds	r4, #1
10004efa:	e7d2      	b.n	10004ea2 <_ntoa_format+0x7e>
10004efc:	06b2      	lsls	r2, r6, #26
10004efe:	d5cd      	bpl.n	10004e9c <_ntoa_format+0x78>
10004f00:	2c1f      	cmp	r4, #31
10004f02:	d8cb      	bhi.n	10004e9c <_ntoa_format+0x78>
10004f04:	2758      	movs	r7, #88	; 0x58
10004f06:	552f      	strb	r7, [r5, r4]
10004f08:	3401      	adds	r4, #1
10004f0a:	e7ca      	b.n	10004ea2 <_ntoa_format+0x7e>
10004f0c:	2c1f      	cmp	r4, #31
10004f0e:	d8c8      	bhi.n	10004ea2 <_ntoa_format+0x7e>
10004f10:	2762      	movs	r7, #98	; 0x62
10004f12:	552f      	strb	r7, [r5, r4]
10004f14:	3401      	adds	r4, #1
10004f16:	e7c4      	b.n	10004ea2 <_ntoa_format+0x7e>
10004f18:	0772      	lsls	r2, r6, #29
10004f1a:	d503      	bpl.n	10004f24 <_ntoa_format+0x100>
10004f1c:	272b      	movs	r7, #43	; 0x2b
10004f1e:	552f      	strb	r7, [r5, r4]
10004f20:	3401      	adds	r4, #1
10004f22:	e7cb      	b.n	10004ebc <_ntoa_format+0x98>
10004f24:	0732      	lsls	r2, r6, #28
10004f26:	d5c9      	bpl.n	10004ebc <_ntoa_format+0x98>
10004f28:	2720      	movs	r7, #32
10004f2a:	552f      	strb	r7, [r5, r4]
10004f2c:	3401      	adds	r4, #1
10004f2e:	e7c5      	b.n	10004ebc <_ntoa_format+0x98>

10004f30 <_ntoa_long>:
10004f30:	b5f0      	push	{r4, r5, r6, r7, lr}
10004f32:	46ce      	mov	lr, r9
10004f34:	4647      	mov	r7, r8
10004f36:	b580      	push	{r7, lr}
10004f38:	b095      	sub	sp, #84	; 0x54
10004f3a:	9008      	str	r0, [sp, #32]
10004f3c:	9109      	str	r1, [sp, #36]	; 0x24
10004f3e:	920a      	str	r2, [sp, #40]	; 0x28
10004f40:	930b      	str	r3, [sp, #44]	; 0x2c
10004f42:	ab1c      	add	r3, sp, #112	; 0x70
10004f44:	cb10      	ldmia	r3!, {r4}
10004f46:	781b      	ldrb	r3, [r3, #0]
10004f48:	4698      	mov	r8, r3
10004f4a:	9d1e      	ldr	r5, [sp, #120]	; 0x78
10004f4c:	9b21      	ldr	r3, [sp, #132]	; 0x84
10004f4e:	4699      	mov	r9, r3
10004f50:	2c00      	cmp	r4, #0
10004f52:	d103      	bne.n	10004f5c <_ntoa_long+0x2c>
10004f54:	2310      	movs	r3, #16
10004f56:	464a      	mov	r2, r9
10004f58:	439a      	bics	r2, r3
10004f5a:	4691      	mov	r9, r2
10004f5c:	2780      	movs	r7, #128	; 0x80
10004f5e:	00ff      	lsls	r7, r7, #3
10004f60:	464b      	mov	r3, r9
10004f62:	401f      	ands	r7, r3
10004f64:	d018      	beq.n	10004f98 <_ntoa_long+0x68>
10004f66:	2c00      	cmp	r4, #0
10004f68:	d022      	beq.n	10004fb0 <_ntoa_long+0x80>
10004f6a:	2700      	movs	r7, #0
10004f6c:	e014      	b.n	10004f98 <_ntoa_long+0x68>
10004f6e:	464a      	mov	r2, r9
10004f70:	0692      	lsls	r2, r2, #26
10004f72:	d51b      	bpl.n	10004fac <_ntoa_long+0x7c>
10004f74:	2141      	movs	r1, #65	; 0x41
10004f76:	18c9      	adds	r1, r1, r3
10004f78:	b2c9      	uxtb	r1, r1
10004f7a:	390a      	subs	r1, #10
10004f7c:	b2c9      	uxtb	r1, r1
10004f7e:	1c7e      	adds	r6, r7, #1
10004f80:	ab0c      	add	r3, sp, #48	; 0x30
10004f82:	55d9      	strb	r1, [r3, r7]
10004f84:	0029      	movs	r1, r5
10004f86:	0020      	movs	r0, r4
10004f88:	f000 ffbe 	bl	10005f08 <__wrap___aeabi_uidiv>
10004f8c:	42ac      	cmp	r4, r5
10004f8e:	d310      	bcc.n	10004fb2 <_ntoa_long+0x82>
10004f90:	2e1f      	cmp	r6, #31
10004f92:	d80e      	bhi.n	10004fb2 <_ntoa_long+0x82>
10004f94:	0037      	movs	r7, r6
10004f96:	0004      	movs	r4, r0
10004f98:	0029      	movs	r1, r5
10004f9a:	0020      	movs	r0, r4
10004f9c:	f000 ffb4 	bl	10005f08 <__wrap___aeabi_uidiv>
10004fa0:	b2cb      	uxtb	r3, r1
10004fa2:	2b09      	cmp	r3, #9
10004fa4:	d8e3      	bhi.n	10004f6e <_ntoa_long+0x3e>
10004fa6:	3330      	adds	r3, #48	; 0x30
10004fa8:	b2d9      	uxtb	r1, r3
10004faa:	e7e8      	b.n	10004f7e <_ntoa_long+0x4e>
10004fac:	2161      	movs	r1, #97	; 0x61
10004fae:	e7e2      	b.n	10004f76 <_ntoa_long+0x46>
10004fb0:	0026      	movs	r6, r4
10004fb2:	464b      	mov	r3, r9
10004fb4:	9306      	str	r3, [sp, #24]
10004fb6:	9b20      	ldr	r3, [sp, #128]	; 0x80
10004fb8:	9305      	str	r3, [sp, #20]
10004fba:	9b1f      	ldr	r3, [sp, #124]	; 0x7c
10004fbc:	9304      	str	r3, [sp, #16]
10004fbe:	9503      	str	r5, [sp, #12]
10004fc0:	4643      	mov	r3, r8
10004fc2:	9302      	str	r3, [sp, #8]
10004fc4:	9601      	str	r6, [sp, #4]
10004fc6:	ab0c      	add	r3, sp, #48	; 0x30
10004fc8:	9300      	str	r3, [sp, #0]
10004fca:	9b0b      	ldr	r3, [sp, #44]	; 0x2c
10004fcc:	9a0a      	ldr	r2, [sp, #40]	; 0x28
10004fce:	9909      	ldr	r1, [sp, #36]	; 0x24
10004fd0:	9808      	ldr	r0, [sp, #32]
10004fd2:	f7ff ff27 	bl	10004e24 <_ntoa_format>
10004fd6:	b015      	add	sp, #84	; 0x54
10004fd8:	bc0c      	pop	{r2, r3}
10004fda:	4690      	mov	r8, r2
10004fdc:	4699      	mov	r9, r3
10004fde:	bdf0      	pop	{r4, r5, r6, r7, pc}

10004fe0 <_ntoa_long_long>:
10004fe0:	b5f0      	push	{r4, r5, r6, r7, lr}
10004fe2:	46de      	mov	lr, fp
10004fe4:	4657      	mov	r7, sl
10004fe6:	b580      	push	{r7, lr}
10004fe8:	b097      	sub	sp, #92	; 0x5c
10004fea:	900a      	str	r0, [sp, #40]	; 0x28
10004fec:	910b      	str	r1, [sp, #44]	; 0x2c
10004fee:	920c      	str	r2, [sp, #48]	; 0x30
10004ff0:	930d      	str	r3, [sp, #52]	; 0x34
10004ff2:	9a1e      	ldr	r2, [sp, #120]	; 0x78
10004ff4:	9208      	str	r2, [sp, #32]
10004ff6:	9c1f      	ldr	r4, [sp, #124]	; 0x7c
10004ff8:	ab20      	add	r3, sp, #128	; 0x80
10004ffa:	781b      	ldrb	r3, [r3, #0]
10004ffc:	469b      	mov	fp, r3
10004ffe:	9b22      	ldr	r3, [sp, #136]	; 0x88
10005000:	9309      	str	r3, [sp, #36]	; 0x24
10005002:	9d23      	ldr	r5, [sp, #140]	; 0x8c
10005004:	9b26      	ldr	r3, [sp, #152]	; 0x98
10005006:	469a      	mov	sl, r3
10005008:	4322      	orrs	r2, r4
1000500a:	1e13      	subs	r3, r2, #0
1000500c:	d103      	bne.n	10005016 <_ntoa_long_long+0x36>
1000500e:	3310      	adds	r3, #16
10005010:	4652      	mov	r2, sl
10005012:	439a      	bics	r2, r3
10005014:	4692      	mov	sl, r2
10005016:	2680      	movs	r6, #128	; 0x80
10005018:	00f6      	lsls	r6, r6, #3
1000501a:	4653      	mov	r3, sl
1000501c:	401e      	ands	r6, r3
1000501e:	d006      	beq.n	1000502e <_ntoa_long_long+0x4e>
10005020:	9a08      	ldr	r2, [sp, #32]
10005022:	0013      	movs	r3, r2
10005024:	4323      	orrs	r3, r4
10005026:	d033      	beq.n	10005090 <_ntoa_long_long+0xb0>
10005028:	2600      	movs	r6, #0
1000502a:	0037      	movs	r7, r6
1000502c:	e01a      	b.n	10005064 <_ntoa_long_long+0x84>
1000502e:	0037      	movs	r7, r6
10005030:	e018      	b.n	10005064 <_ntoa_long_long+0x84>
10005032:	4652      	mov	r2, sl
10005034:	0692      	lsls	r2, r2, #26
10005036:	d521      	bpl.n	1000507c <_ntoa_long_long+0x9c>
10005038:	2241      	movs	r2, #65	; 0x41
1000503a:	18d2      	adds	r2, r2, r3
1000503c:	b2d2      	uxtb	r2, r2
1000503e:	3a0a      	subs	r2, #10
10005040:	b2d2      	uxtb	r2, r2
10005042:	1c7e      	adds	r6, r7, #1
10005044:	ab0e      	add	r3, sp, #56	; 0x38
10005046:	55da      	strb	r2, [r3, r7]
10005048:	9a09      	ldr	r2, [sp, #36]	; 0x24
1000504a:	002b      	movs	r3, r5
1000504c:	9808      	ldr	r0, [sp, #32]
1000504e:	0021      	movs	r1, r4
10005050:	f000 ff9c 	bl	10005f8c <__wrap___aeabi_uldivmod>
10005054:	42a5      	cmp	r5, r4
10005056:	d81d      	bhi.n	10005094 <_ntoa_long_long+0xb4>
10005058:	d012      	beq.n	10005080 <_ntoa_long_long+0xa0>
1000505a:	2e1f      	cmp	r6, #31
1000505c:	d816      	bhi.n	1000508c <_ntoa_long_long+0xac>
1000505e:	0037      	movs	r7, r6
10005060:	9008      	str	r0, [sp, #32]
10005062:	000c      	movs	r4, r1
10005064:	9a09      	ldr	r2, [sp, #36]	; 0x24
10005066:	002b      	movs	r3, r5
10005068:	9808      	ldr	r0, [sp, #32]
1000506a:	0021      	movs	r1, r4
1000506c:	f000 ff8e 	bl	10005f8c <__wrap___aeabi_uldivmod>
10005070:	b2d3      	uxtb	r3, r2
10005072:	2b09      	cmp	r3, #9
10005074:	d8dd      	bhi.n	10005032 <_ntoa_long_long+0x52>
10005076:	3330      	adds	r3, #48	; 0x30
10005078:	b2da      	uxtb	r2, r3
1000507a:	e7e2      	b.n	10005042 <_ntoa_long_long+0x62>
1000507c:	2261      	movs	r2, #97	; 0x61
1000507e:	e7dc      	b.n	1000503a <_ntoa_long_long+0x5a>
10005080:	9b09      	ldr	r3, [sp, #36]	; 0x24
10005082:	9a08      	ldr	r2, [sp, #32]
10005084:	4293      	cmp	r3, r2
10005086:	d9e8      	bls.n	1000505a <_ntoa_long_long+0x7a>
10005088:	0037      	movs	r7, r6
1000508a:	e004      	b.n	10005096 <_ntoa_long_long+0xb6>
1000508c:	0037      	movs	r7, r6
1000508e:	e002      	b.n	10005096 <_ntoa_long_long+0xb6>
10005090:	2700      	movs	r7, #0
10005092:	e000      	b.n	10005096 <_ntoa_long_long+0xb6>
10005094:	0037      	movs	r7, r6
10005096:	4653      	mov	r3, sl
10005098:	9306      	str	r3, [sp, #24]
1000509a:	9b25      	ldr	r3, [sp, #148]	; 0x94
1000509c:	9305      	str	r3, [sp, #20]
1000509e:	9b24      	ldr	r3, [sp, #144]	; 0x90
100050a0:	9304      	str	r3, [sp, #16]
100050a2:	9b09      	ldr	r3, [sp, #36]	; 0x24
100050a4:	9303      	str	r3, [sp, #12]
100050a6:	465b      	mov	r3, fp
100050a8:	9302      	str	r3, [sp, #8]
100050aa:	9701      	str	r7, [sp, #4]
100050ac:	ab0e      	add	r3, sp, #56	; 0x38
100050ae:	9300      	str	r3, [sp, #0]
100050b0:	9b0d      	ldr	r3, [sp, #52]	; 0x34
100050b2:	9a0c      	ldr	r2, [sp, #48]	; 0x30
100050b4:	990b      	ldr	r1, [sp, #44]	; 0x2c
100050b6:	980a      	ldr	r0, [sp, #40]	; 0x28
100050b8:	f7ff feb4 	bl	10004e24 <_ntoa_format>
100050bc:	b017      	add	sp, #92	; 0x5c
100050be:	bc0c      	pop	{r2, r3}
100050c0:	4692      	mov	sl, r2
100050c2:	469b      	mov	fp, r3
100050c4:	bdf0      	pop	{r4, r5, r6, r7, pc}
	...

100050c8 <_etoa>:
100050c8:	b5f0      	push	{r4, r5, r6, r7, lr}
100050ca:	46d6      	mov	lr, sl
100050cc:	464f      	mov	r7, r9
100050ce:	4646      	mov	r6, r8
100050d0:	b5c0      	push	{r6, r7, lr}
100050d2:	b094      	sub	sp, #80	; 0x50
100050d4:	900a      	str	r0, [sp, #40]	; 0x28
100050d6:	9106      	str	r1, [sp, #24]
100050d8:	920b      	str	r2, [sp, #44]	; 0x2c
100050da:	9307      	str	r3, [sp, #28]
100050dc:	9c1c      	ldr	r4, [sp, #112]	; 0x70
100050de:	9408      	str	r4, [sp, #32]
100050e0:	9d1d      	ldr	r5, [sp, #116]	; 0x74
100050e2:	9509      	str	r5, [sp, #36]	; 0x24
100050e4:	0022      	movs	r2, r4
100050e6:	002b      	movs	r3, r5
100050e8:	0020      	movs	r0, r4
100050ea:	0029      	movs	r1, r5
100050ec:	f001 f9dd 	bl	100064aa <__wrap___aeabi_dcmpun>
100050f0:	2800      	cmp	r0, #0
100050f2:	d000      	beq.n	100050f6 <_etoa+0x2e>
100050f4:	e0e8      	b.n	100052c8 <_etoa+0x200>
100050f6:	2201      	movs	r2, #1
100050f8:	4252      	negs	r2, r2
100050fa:	4bd6      	ldr	r3, [pc, #856]	; (10005454 <_etoa+0x38c>)
100050fc:	0020      	movs	r0, r4
100050fe:	0029      	movs	r1, r5
10005100:	f001 f9ce 	bl	100064a0 <__wrap___aeabi_dcmpgt>
10005104:	2800      	cmp	r0, #0
10005106:	d000      	beq.n	1000510a <_etoa+0x42>
10005108:	e0de      	b.n	100052c8 <_etoa+0x200>
1000510a:	2201      	movs	r2, #1
1000510c:	4252      	negs	r2, r2
1000510e:	4bd2      	ldr	r3, [pc, #840]	; (10005458 <_etoa+0x390>)
10005110:	0020      	movs	r0, r4
10005112:	0029      	movs	r1, r5
10005114:	f001 f9ae 	bl	10006474 <__wrap___aeabi_dcmplt>
10005118:	2800      	cmp	r0, #0
1000511a:	d000      	beq.n	1000511e <_etoa+0x56>
1000511c:	e0d4      	b.n	100052c8 <_etoa+0x200>
1000511e:	2200      	movs	r2, #0
10005120:	2300      	movs	r3, #0
10005122:	9d08      	ldr	r5, [sp, #32]
10005124:	0028      	movs	r0, r5
10005126:	9c09      	ldr	r4, [sp, #36]	; 0x24
10005128:	0021      	movs	r1, r4
1000512a:	f001 f9a3 	bl	10006474 <__wrap___aeabi_dcmplt>
1000512e:	2800      	cmp	r0, #0
10005130:	d000      	beq.n	10005134 <_etoa+0x6c>
10005132:	e0df      	b.n	100052f4 <_etoa+0x22c>
10005134:	9e08      	ldr	r6, [sp, #32]
10005136:	9f09      	ldr	r7, [sp, #36]	; 0x24
10005138:	2380      	movs	r3, #128	; 0x80
1000513a:	00db      	lsls	r3, r3, #3
1000513c:	9a20      	ldr	r2, [sp, #128]	; 0x80
1000513e:	401a      	ands	r2, r3
10005140:	4690      	mov	r8, r2
10005142:	1e13      	subs	r3, r2, #0
10005144:	d101      	bne.n	1000514a <_etoa+0x82>
10005146:	3306      	adds	r3, #6
10005148:	931e      	str	r3, [sp, #120]	; 0x78
1000514a:	960c      	str	r6, [sp, #48]	; 0x30
1000514c:	970d      	str	r7, [sp, #52]	; 0x34
1000514e:	003a      	movs	r2, r7
10005150:	4332      	orrs	r2, r6
10005152:	d100      	bne.n	10005156 <_etoa+0x8e>
10005154:	e0d5      	b.n	10005302 <_etoa+0x23a>
10005156:	0d38      	lsrs	r0, r7, #20
10005158:	0540      	lsls	r0, r0, #21
1000515a:	0d40      	lsrs	r0, r0, #21
1000515c:	4abf      	ldr	r2, [pc, #764]	; (1000545c <_etoa+0x394>)
1000515e:	4694      	mov	ip, r2
10005160:	4460      	add	r0, ip
10005162:	033a      	lsls	r2, r7, #12
10005164:	0b12      	lsrs	r2, r2, #12
10005166:	4bbe      	ldr	r3, [pc, #760]	; (10005460 <_etoa+0x398>)
10005168:	4313      	orrs	r3, r2
1000516a:	001d      	movs	r5, r3
1000516c:	f001 f9b0 	bl	100064d0 <__wrap___aeabi_i2d>
10005170:	4abc      	ldr	r2, [pc, #752]	; (10005464 <_etoa+0x39c>)
10005172:	4bbd      	ldr	r3, [pc, #756]	; (10005468 <_etoa+0x3a0>)
10005174:	f001 f93b 	bl	100063ee <__wrap___aeabi_dmul>
10005178:	4abc      	ldr	r2, [pc, #752]	; (1000546c <_etoa+0x3a4>)
1000517a:	4bbd      	ldr	r3, [pc, #756]	; (10005470 <_etoa+0x3a8>)
1000517c:	f001 f910 	bl	100063a0 <__wrap___aeabi_dadd>
10005180:	900c      	str	r0, [sp, #48]	; 0x30
10005182:	910d      	str	r1, [sp, #52]	; 0x34
10005184:	2200      	movs	r2, #0
10005186:	4bbb      	ldr	r3, [pc, #748]	; (10005474 <_etoa+0x3ac>)
10005188:	0030      	movs	r0, r6
1000518a:	0029      	movs	r1, r5
1000518c:	f001 f8ff 	bl	1000638e <__wrap___aeabi_dsub>
10005190:	4ab9      	ldr	r2, [pc, #740]	; (10005478 <_etoa+0x3b0>)
10005192:	4bba      	ldr	r3, [pc, #744]	; (1000547c <_etoa+0x3b4>)
10005194:	f001 f92b 	bl	100063ee <__wrap___aeabi_dmul>
10005198:	0002      	movs	r2, r0
1000519a:	000b      	movs	r3, r1
1000519c:	980c      	ldr	r0, [sp, #48]	; 0x30
1000519e:	990d      	ldr	r1, [sp, #52]	; 0x34
100051a0:	f001 f8fe 	bl	100063a0 <__wrap___aeabi_dadd>
100051a4:	f001 f9ac 	bl	10006500 <__wrap___aeabi_d2iz>
100051a8:	4682      	mov	sl, r0
100051aa:	f001 f991 	bl	100064d0 <__wrap___aeabi_i2d>
100051ae:	4ab4      	ldr	r2, [pc, #720]	; (10005480 <_etoa+0x3b8>)
100051b0:	4bb4      	ldr	r3, [pc, #720]	; (10005484 <_etoa+0x3bc>)
100051b2:	900c      	str	r0, [sp, #48]	; 0x30
100051b4:	910d      	str	r1, [sp, #52]	; 0x34
100051b6:	f001 f91a 	bl	100063ee <__wrap___aeabi_dmul>
100051ba:	2200      	movs	r2, #0
100051bc:	4bb2      	ldr	r3, [pc, #712]	; (10005488 <_etoa+0x3c0>)
100051be:	f001 f8ef 	bl	100063a0 <__wrap___aeabi_dadd>
100051c2:	f001 f99d 	bl	10006500 <__wrap___aeabi_d2iz>
100051c6:	0005      	movs	r5, r0
100051c8:	4ab0      	ldr	r2, [pc, #704]	; (1000548c <_etoa+0x3c4>)
100051ca:	4bb1      	ldr	r3, [pc, #708]	; (10005490 <_etoa+0x3c8>)
100051cc:	980c      	ldr	r0, [sp, #48]	; 0x30
100051ce:	990d      	ldr	r1, [sp, #52]	; 0x34
100051d0:	f001 f90d 	bl	100063ee <__wrap___aeabi_dmul>
100051d4:	900c      	str	r0, [sp, #48]	; 0x30
100051d6:	910d      	str	r1, [sp, #52]	; 0x34
100051d8:	0028      	movs	r0, r5
100051da:	f001 f979 	bl	100064d0 <__wrap___aeabi_i2d>
100051de:	4aad      	ldr	r2, [pc, #692]	; (10005494 <_etoa+0x3cc>)
100051e0:	4bad      	ldr	r3, [pc, #692]	; (10005498 <_etoa+0x3d0>)
100051e2:	f001 f904 	bl	100063ee <__wrap___aeabi_dmul>
100051e6:	0002      	movs	r2, r0
100051e8:	000b      	movs	r3, r1
100051ea:	980c      	ldr	r0, [sp, #48]	; 0x30
100051ec:	990d      	ldr	r1, [sp, #52]	; 0x34
100051ee:	f001 f8ce 	bl	1000638e <__wrap___aeabi_dsub>
100051f2:	0002      	movs	r2, r0
100051f4:	000b      	movs	r3, r1
100051f6:	900e      	str	r0, [sp, #56]	; 0x38
100051f8:	910f      	str	r1, [sp, #60]	; 0x3c
100051fa:	f001 f8f8 	bl	100063ee <__wrap___aeabi_dmul>
100051fe:	9010      	str	r0, [sp, #64]	; 0x40
10005200:	9111      	str	r1, [sp, #68]	; 0x44
10005202:	4ba6      	ldr	r3, [pc, #664]	; (1000549c <_etoa+0x3d4>)
10005204:	469c      	mov	ip, r3
10005206:	4465      	add	r5, ip
10005208:	052b      	lsls	r3, r5, #20
1000520a:	930d      	str	r3, [sp, #52]	; 0x34
1000520c:	2300      	movs	r3, #0
1000520e:	930c      	str	r3, [sp, #48]	; 0x30
10005210:	9c0e      	ldr	r4, [sp, #56]	; 0x38
10005212:	9d0f      	ldr	r5, [sp, #60]	; 0x3c
10005214:	0022      	movs	r2, r4
10005216:	002b      	movs	r3, r5
10005218:	0020      	movs	r0, r4
1000521a:	0029      	movs	r1, r5
1000521c:	f001 f8c0 	bl	100063a0 <__wrap___aeabi_dadd>
10005220:	900e      	str	r0, [sp, #56]	; 0x38
10005222:	910f      	str	r1, [sp, #60]	; 0x3c
10005224:	0022      	movs	r2, r4
10005226:	002b      	movs	r3, r5
10005228:	2000      	movs	r0, #0
1000522a:	2180      	movs	r1, #128	; 0x80
1000522c:	05c9      	lsls	r1, r1, #23
1000522e:	f001 f8ae 	bl	1000638e <__wrap___aeabi_dsub>
10005232:	9012      	str	r0, [sp, #72]	; 0x48
10005234:	9113      	str	r1, [sp, #76]	; 0x4c
10005236:	2200      	movs	r2, #0
10005238:	4b99      	ldr	r3, [pc, #612]	; (100054a0 <_etoa+0x3d8>)
1000523a:	9c10      	ldr	r4, [sp, #64]	; 0x40
1000523c:	9d11      	ldr	r5, [sp, #68]	; 0x44
1000523e:	0020      	movs	r0, r4
10005240:	0029      	movs	r1, r5
10005242:	f001 f8b6 	bl	100063b2 <__wrap___aeabi_ddiv>
10005246:	2200      	movs	r2, #0
10005248:	4b96      	ldr	r3, [pc, #600]	; (100054a4 <_etoa+0x3dc>)
1000524a:	f001 f8a9 	bl	100063a0 <__wrap___aeabi_dadd>
1000524e:	0002      	movs	r2, r0
10005250:	000b      	movs	r3, r1
10005252:	0020      	movs	r0, r4
10005254:	0029      	movs	r1, r5
10005256:	f001 f8ac 	bl	100063b2 <__wrap___aeabi_ddiv>
1000525a:	2200      	movs	r2, #0
1000525c:	4b92      	ldr	r3, [pc, #584]	; (100054a8 <_etoa+0x3e0>)
1000525e:	f001 f89f 	bl	100063a0 <__wrap___aeabi_dadd>
10005262:	0002      	movs	r2, r0
10005264:	000b      	movs	r3, r1
10005266:	0020      	movs	r0, r4
10005268:	0029      	movs	r1, r5
1000526a:	f001 f8a2 	bl	100063b2 <__wrap___aeabi_ddiv>
1000526e:	0002      	movs	r2, r0
10005270:	000b      	movs	r3, r1
10005272:	9812      	ldr	r0, [sp, #72]	; 0x48
10005274:	9913      	ldr	r1, [sp, #76]	; 0x4c
10005276:	f001 f893 	bl	100063a0 <__wrap___aeabi_dadd>
1000527a:	0002      	movs	r2, r0
1000527c:	000b      	movs	r3, r1
1000527e:	980e      	ldr	r0, [sp, #56]	; 0x38
10005280:	990f      	ldr	r1, [sp, #60]	; 0x3c
10005282:	f001 f896 	bl	100063b2 <__wrap___aeabi_ddiv>
10005286:	2200      	movs	r2, #0
10005288:	4b75      	ldr	r3, [pc, #468]	; (10005460 <_etoa+0x398>)
1000528a:	f001 f889 	bl	100063a0 <__wrap___aeabi_dadd>
1000528e:	9a0c      	ldr	r2, [sp, #48]	; 0x30
10005290:	9b0d      	ldr	r3, [sp, #52]	; 0x34
10005292:	f001 f8ac 	bl	100063ee <__wrap___aeabi_dmul>
10005296:	0002      	movs	r2, r0
10005298:	000b      	movs	r3, r1
1000529a:	920c      	str	r2, [sp, #48]	; 0x30
1000529c:	930d      	str	r3, [sp, #52]	; 0x34
1000529e:	0032      	movs	r2, r6
100052a0:	003b      	movs	r3, r7
100052a2:	0004      	movs	r4, r0
100052a4:	000d      	movs	r5, r1
100052a6:	f001 f8fb 	bl	100064a0 <__wrap___aeabi_dcmpgt>
100052aa:	2800      	cmp	r0, #0
100052ac:	d02b      	beq.n	10005306 <_etoa+0x23e>
100052ae:	2301      	movs	r3, #1
100052b0:	425b      	negs	r3, r3
100052b2:	469c      	mov	ip, r3
100052b4:	44e2      	add	sl, ip
100052b6:	2200      	movs	r2, #0
100052b8:	4b7a      	ldr	r3, [pc, #488]	; (100054a4 <_etoa+0x3dc>)
100052ba:	0020      	movs	r0, r4
100052bc:	0029      	movs	r1, r5
100052be:	f001 f878 	bl	100063b2 <__wrap___aeabi_ddiv>
100052c2:	900c      	str	r0, [sp, #48]	; 0x30
100052c4:	910d      	str	r1, [sp, #52]	; 0x34
100052c6:	e01e      	b.n	10005306 <_etoa+0x23e>
100052c8:	9b20      	ldr	r3, [sp, #128]	; 0x80
100052ca:	9304      	str	r3, [sp, #16]
100052cc:	9b1f      	ldr	r3, [sp, #124]	; 0x7c
100052ce:	9303      	str	r3, [sp, #12]
100052d0:	9b1e      	ldr	r3, [sp, #120]	; 0x78
100052d2:	9302      	str	r3, [sp, #8]
100052d4:	9a08      	ldr	r2, [sp, #32]
100052d6:	9b09      	ldr	r3, [sp, #36]	; 0x24
100052d8:	9200      	str	r2, [sp, #0]
100052da:	9301      	str	r3, [sp, #4]
100052dc:	9b07      	ldr	r3, [sp, #28]
100052de:	9a0b      	ldr	r2, [sp, #44]	; 0x2c
100052e0:	9906      	ldr	r1, [sp, #24]
100052e2:	980a      	ldr	r0, [sp, #40]	; 0x28
100052e4:	f000 f8f4 	bl	100054d0 <_ftoa>
100052e8:	b014      	add	sp, #80	; 0x50
100052ea:	bc1c      	pop	{r2, r3, r4}
100052ec:	4690      	mov	r8, r2
100052ee:	4699      	mov	r9, r3
100052f0:	46a2      	mov	sl, r4
100052f2:	bdf0      	pop	{r4, r5, r6, r7, pc}
100052f4:	002e      	movs	r6, r5
100052f6:	2380      	movs	r3, #128	; 0x80
100052f8:	061b      	lsls	r3, r3, #24
100052fa:	469c      	mov	ip, r3
100052fc:	4464      	add	r4, ip
100052fe:	0027      	movs	r7, r4
10005300:	e71a      	b.n	10005138 <_etoa+0x70>
10005302:	2300      	movs	r3, #0
10005304:	469a      	mov	sl, r3
10005306:	4653      	mov	r3, sl
10005308:	3363      	adds	r3, #99	; 0x63
1000530a:	2bc6      	cmp	r3, #198	; 0xc6
1000530c:	d821      	bhi.n	10005352 <_etoa+0x28a>
1000530e:	2504      	movs	r5, #4
10005310:	9b20      	ldr	r3, [sp, #128]	; 0x80
10005312:	051b      	lsls	r3, r3, #20
10005314:	d529      	bpl.n	1000536a <_etoa+0x2a2>
10005316:	9a0c      	ldr	r2, [sp, #48]	; 0x30
10005318:	9b0d      	ldr	r3, [sp, #52]	; 0x34
1000531a:	0019      	movs	r1, r3
1000531c:	4311      	orrs	r1, r2
1000531e:	d010      	beq.n	10005342 <_etoa+0x27a>
10005320:	4a62      	ldr	r2, [pc, #392]	; (100054ac <_etoa+0x3e4>)
10005322:	4b63      	ldr	r3, [pc, #396]	; (100054b0 <_etoa+0x3e8>)
10005324:	0030      	movs	r0, r6
10005326:	0039      	movs	r1, r7
10005328:	f001 f8b2 	bl	10006490 <__wrap___aeabi_dcmpge>
1000532c:	2800      	cmp	r0, #0
1000532e:	d100      	bne.n	10005332 <_etoa+0x26a>
10005330:	e082      	b.n	10005438 <_etoa+0x370>
10005332:	2200      	movs	r2, #0
10005334:	4b5f      	ldr	r3, [pc, #380]	; (100054b4 <_etoa+0x3ec>)
10005336:	0030      	movs	r0, r6
10005338:	0039      	movs	r1, r7
1000533a:	f001 f89b 	bl	10006474 <__wrap___aeabi_dcmplt>
1000533e:	2800      	cmp	r0, #0
10005340:	d07a      	beq.n	10005438 <_etoa+0x370>
10005342:	9b1e      	ldr	r3, [sp, #120]	; 0x78
10005344:	4553      	cmp	r3, sl
10005346:	dd06      	ble.n	10005356 <_etoa+0x28e>
10005348:	4652      	mov	r2, sl
1000534a:	1a9c      	subs	r4, r3, r2
1000534c:	1e63      	subs	r3, r4, #1
1000534e:	931e      	str	r3, [sp, #120]	; 0x78
10005350:	e003      	b.n	1000535a <_etoa+0x292>
10005352:	2505      	movs	r5, #5
10005354:	e7dc      	b.n	10005310 <_etoa+0x248>
10005356:	2300      	movs	r3, #0
10005358:	931e      	str	r3, [sp, #120]	; 0x78
1000535a:	2380      	movs	r3, #128	; 0x80
1000535c:	00db      	lsls	r3, r3, #3
1000535e:	9a20      	ldr	r2, [sp, #128]	; 0x80
10005360:	431a      	orrs	r2, r3
10005362:	9220      	str	r2, [sp, #128]	; 0x80
10005364:	2500      	movs	r5, #0
10005366:	2300      	movs	r3, #0
10005368:	469a      	mov	sl, r3
1000536a:	9b1f      	ldr	r3, [sp, #124]	; 0x7c
1000536c:	429d      	cmp	r5, r3
1000536e:	d26d      	bcs.n	1000544c <_etoa+0x384>
10005370:	1b5b      	subs	r3, r3, r5
10005372:	4699      	mov	r9, r3
10005374:	2302      	movs	r3, #2
10005376:	9a20      	ldr	r2, [sp, #128]	; 0x80
10005378:	401a      	ands	r2, r3
1000537a:	4690      	mov	r8, r2
1000537c:	d003      	beq.n	10005386 <_etoa+0x2be>
1000537e:	2d00      	cmp	r5, #0
10005380:	d001      	beq.n	10005386 <_etoa+0x2be>
10005382:	2300      	movs	r3, #0
10005384:	4699      	mov	r9, r3
10005386:	4653      	mov	r3, sl
10005388:	2b00      	cmp	r3, #0
1000538a:	d007      	beq.n	1000539c <_etoa+0x2d4>
1000538c:	9a0c      	ldr	r2, [sp, #48]	; 0x30
1000538e:	9b0d      	ldr	r3, [sp, #52]	; 0x34
10005390:	0030      	movs	r0, r6
10005392:	0039      	movs	r1, r7
10005394:	f001 f80d 	bl	100063b2 <__wrap___aeabi_ddiv>
10005398:	0006      	movs	r6, r0
1000539a:	000f      	movs	r7, r1
1000539c:	2200      	movs	r2, #0
1000539e:	2300      	movs	r3, #0
100053a0:	9808      	ldr	r0, [sp, #32]
100053a2:	9909      	ldr	r1, [sp, #36]	; 0x24
100053a4:	f001 f866 	bl	10006474 <__wrap___aeabi_dcmplt>
100053a8:	2800      	cmp	r0, #0
100053aa:	d000      	beq.n	100053ae <_etoa+0x2e6>
100053ac:	e086      	b.n	100054bc <_etoa+0x3f4>
100053ae:	4b42      	ldr	r3, [pc, #264]	; (100054b8 <_etoa+0x3f0>)
100053b0:	9a20      	ldr	r2, [sp, #128]	; 0x80
100053b2:	4013      	ands	r3, r2
100053b4:	9304      	str	r3, [sp, #16]
100053b6:	464b      	mov	r3, r9
100053b8:	9303      	str	r3, [sp, #12]
100053ba:	9b1e      	ldr	r3, [sp, #120]	; 0x78
100053bc:	9302      	str	r3, [sp, #8]
100053be:	9600      	str	r6, [sp, #0]
100053c0:	9701      	str	r7, [sp, #4]
100053c2:	9b07      	ldr	r3, [sp, #28]
100053c4:	9a0b      	ldr	r2, [sp, #44]	; 0x2c
100053c6:	9906      	ldr	r1, [sp, #24]
100053c8:	980a      	ldr	r0, [sp, #40]	; 0x28
100053ca:	f000 f881 	bl	100054d0 <_ftoa>
100053ce:	2d00      	cmp	r5, #0
100053d0:	d100      	bne.n	100053d4 <_etoa+0x30c>
100053d2:	e789      	b.n	100052e8 <_etoa+0x220>
100053d4:	9b20      	ldr	r3, [sp, #128]	; 0x80
100053d6:	069b      	lsls	r3, r3, #26
100053d8:	d575      	bpl.n	100054c6 <_etoa+0x3fe>
100053da:	2645      	movs	r6, #69	; 0x45
100053dc:	1c47      	adds	r7, r0, #1
100053de:	9b07      	ldr	r3, [sp, #28]
100053e0:	0002      	movs	r2, r0
100053e2:	9906      	ldr	r1, [sp, #24]
100053e4:	0030      	movs	r0, r6
100053e6:	9e0a      	ldr	r6, [sp, #40]	; 0x28
100053e8:	47b0      	blx	r6
100053ea:	4650      	mov	r0, sl
100053ec:	17c2      	asrs	r2, r0, #31
100053ee:	1883      	adds	r3, r0, r2
100053f0:	4053      	eors	r3, r2
100053f2:	2205      	movs	r2, #5
100053f4:	9205      	str	r2, [sp, #20]
100053f6:	3d01      	subs	r5, #1
100053f8:	9504      	str	r5, [sp, #16]
100053fa:	2200      	movs	r2, #0
100053fc:	9203      	str	r2, [sp, #12]
100053fe:	320a      	adds	r2, #10
10005400:	9202      	str	r2, [sp, #8]
10005402:	0fc4      	lsrs	r4, r0, #31
10005404:	9401      	str	r4, [sp, #4]
10005406:	9300      	str	r3, [sp, #0]
10005408:	9b07      	ldr	r3, [sp, #28]
1000540a:	003a      	movs	r2, r7
1000540c:	9906      	ldr	r1, [sp, #24]
1000540e:	0030      	movs	r0, r6
10005410:	f7ff fd8e 	bl	10004f30 <_ntoa_long>
10005414:	4643      	mov	r3, r8
10005416:	2b00      	cmp	r3, #0
10005418:	d100      	bne.n	1000541c <_etoa+0x354>
1000541a:	e765      	b.n	100052e8 <_etoa+0x220>
1000541c:	0002      	movs	r2, r0
1000541e:	9e0a      	ldr	r6, [sp, #40]	; 0x28
10005420:	9c0b      	ldr	r4, [sp, #44]	; 0x2c
10005422:	9d1f      	ldr	r5, [sp, #124]	; 0x7c
10005424:	1b13      	subs	r3, r2, r4
10005426:	42ab      	cmp	r3, r5
10005428:	d24f      	bcs.n	100054ca <_etoa+0x402>
1000542a:	1c57      	adds	r7, r2, #1
1000542c:	9b07      	ldr	r3, [sp, #28]
1000542e:	9906      	ldr	r1, [sp, #24]
10005430:	2020      	movs	r0, #32
10005432:	47b0      	blx	r6
10005434:	003a      	movs	r2, r7
10005436:	e7f5      	b.n	10005424 <_etoa+0x35c>
10005438:	9b1e      	ldr	r3, [sp, #120]	; 0x78
1000543a:	2b00      	cmp	r3, #0
1000543c:	d095      	beq.n	1000536a <_etoa+0x2a2>
1000543e:	4643      	mov	r3, r8
10005440:	2b00      	cmp	r3, #0
10005442:	d092      	beq.n	1000536a <_etoa+0x2a2>
10005444:	9b1e      	ldr	r3, [sp, #120]	; 0x78
10005446:	3b01      	subs	r3, #1
10005448:	931e      	str	r3, [sp, #120]	; 0x78
1000544a:	e78e      	b.n	1000536a <_etoa+0x2a2>
1000544c:	2300      	movs	r3, #0
1000544e:	4699      	mov	r9, r3
10005450:	e790      	b.n	10005374 <_etoa+0x2ac>
10005452:	46c0      	nop			; (mov r8, r8)
10005454:	7fefffff 	.word	0x7fefffff
10005458:	ffefffff 	.word	0xffefffff
1000545c:	fffffc01 	.word	0xfffffc01
10005460:	3ff00000 	.word	0x3ff00000
10005464:	509f79fb 	.word	0x509f79fb
10005468:	3fd34413 	.word	0x3fd34413
1000546c:	8b60c8b3 	.word	0x8b60c8b3
10005470:	3fc68a28 	.word	0x3fc68a28
10005474:	3ff80000 	.word	0x3ff80000
10005478:	636f4361 	.word	0x636f4361
1000547c:	3fd287a7 	.word	0x3fd287a7
10005480:	0979a371 	.word	0x0979a371
10005484:	400a934f 	.word	0x400a934f
10005488:	3fe00000 	.word	0x3fe00000
1000548c:	bbb55516 	.word	0xbbb55516
10005490:	40026bb1 	.word	0x40026bb1
10005494:	fefa39ef 	.word	0xfefa39ef
10005498:	3fe62e42 	.word	0x3fe62e42
1000549c:	000003ff 	.word	0x000003ff
100054a0:	402c0000 	.word	0x402c0000
100054a4:	40240000 	.word	0x40240000
100054a8:	40180000 	.word	0x40180000
100054ac:	eb1c432d 	.word	0xeb1c432d
100054b0:	3f1a36e2 	.word	0x3f1a36e2
100054b4:	412e8480 	.word	0x412e8480
100054b8:	fffff7ff 	.word	0xfffff7ff
100054bc:	2180      	movs	r1, #128	; 0x80
100054be:	0609      	lsls	r1, r1, #24
100054c0:	187b      	adds	r3, r7, r1
100054c2:	001f      	movs	r7, r3
100054c4:	e773      	b.n	100053ae <_etoa+0x2e6>
100054c6:	2665      	movs	r6, #101	; 0x65
100054c8:	e788      	b.n	100053dc <_etoa+0x314>
100054ca:	0010      	movs	r0, r2
100054cc:	e70c      	b.n	100052e8 <_etoa+0x220>
100054ce:	46c0      	nop			; (mov r8, r8)

100054d0 <_ftoa>:
100054d0:	b5f0      	push	{r4, r5, r6, r7, lr}
100054d2:	46d6      	mov	lr, sl
100054d4:	4647      	mov	r7, r8
100054d6:	b580      	push	{r7, lr}
100054d8:	b097      	sub	sp, #92	; 0x5c
100054da:	9006      	str	r0, [sp, #24]
100054dc:	9107      	str	r1, [sp, #28]
100054de:	9208      	str	r2, [sp, #32]
100054e0:	9309      	str	r3, [sp, #36]	; 0x24
100054e2:	9f20      	ldr	r7, [sp, #128]	; 0x80
100054e4:	9a1e      	ldr	r2, [sp, #120]	; 0x78
100054e6:	9b1f      	ldr	r3, [sp, #124]	; 0x7c
100054e8:	0010      	movs	r0, r2
100054ea:	0019      	movs	r1, r3
100054ec:	f000 ffdd 	bl	100064aa <__wrap___aeabi_dcmpun>
100054f0:	2800      	cmp	r0, #0
100054f2:	d139      	bne.n	10005568 <_ftoa+0x98>
100054f4:	2201      	movs	r2, #1
100054f6:	4252      	negs	r2, r2
100054f8:	4bbc      	ldr	r3, [pc, #752]	; (100057ec <_ftoa+0x31c>)
100054fa:	981e      	ldr	r0, [sp, #120]	; 0x78
100054fc:	991f      	ldr	r1, [sp, #124]	; 0x7c
100054fe:	f000 ffb9 	bl	10006474 <__wrap___aeabi_dcmplt>
10005502:	2800      	cmp	r0, #0
10005504:	d13f      	bne.n	10005586 <_ftoa+0xb6>
10005506:	2201      	movs	r2, #1
10005508:	4252      	negs	r2, r2
1000550a:	4bb9      	ldr	r3, [pc, #740]	; (100057f0 <_ftoa+0x320>)
1000550c:	981e      	ldr	r0, [sp, #120]	; 0x78
1000550e:	991f      	ldr	r1, [sp, #124]	; 0x7c
10005510:	f000 ffc6 	bl	100064a0 <__wrap___aeabi_dcmpgt>
10005514:	2800      	cmp	r0, #0
10005516:	d145      	bne.n	100055a4 <_ftoa+0xd4>
10005518:	2200      	movs	r2, #0
1000551a:	4bb6      	ldr	r3, [pc, #728]	; (100057f4 <_ftoa+0x324>)
1000551c:	981e      	ldr	r0, [sp, #120]	; 0x78
1000551e:	991f      	ldr	r1, [sp, #124]	; 0x7c
10005520:	f000 ffbe 	bl	100064a0 <__wrap___aeabi_dcmpgt>
10005524:	2800      	cmp	r0, #0
10005526:	d156      	bne.n	100055d6 <_ftoa+0x106>
10005528:	2200      	movs	r2, #0
1000552a:	4bb3      	ldr	r3, [pc, #716]	; (100057f8 <_ftoa+0x328>)
1000552c:	981e      	ldr	r0, [sp, #120]	; 0x78
1000552e:	991f      	ldr	r1, [sp, #124]	; 0x7c
10005530:	f000 ffa0 	bl	10006474 <__wrap___aeabi_dcmplt>
10005534:	2800      	cmp	r0, #0
10005536:	d14e      	bne.n	100055d6 <_ftoa+0x106>
10005538:	2200      	movs	r2, #0
1000553a:	2300      	movs	r3, #0
1000553c:	981e      	ldr	r0, [sp, #120]	; 0x78
1000553e:	991f      	ldr	r1, [sp, #124]	; 0x7c
10005540:	f000 ff98 	bl	10006474 <__wrap___aeabi_dcmplt>
10005544:	2800      	cmp	r0, #0
10005546:	d156      	bne.n	100055f6 <_ftoa+0x126>
10005548:	2300      	movs	r3, #0
1000554a:	469a      	mov	sl, r3
1000554c:	9b22      	ldr	r3, [sp, #136]	; 0x88
1000554e:	055b      	lsls	r3, r3, #21
10005550:	d55c      	bpl.n	1000560c <_ftoa+0x13c>
10005552:	2600      	movs	r6, #0
10005554:	2e1f      	cmp	r6, #31
10005556:	d85b      	bhi.n	10005610 <_ftoa+0x140>
10005558:	2f09      	cmp	r7, #9
1000555a:	d959      	bls.n	10005610 <_ftoa+0x140>
1000555c:	ab0e      	add	r3, sp, #56	; 0x38
1000555e:	2230      	movs	r2, #48	; 0x30
10005560:	559a      	strb	r2, [r3, r6]
10005562:	3f01      	subs	r7, #1
10005564:	3601      	adds	r6, #1
10005566:	e7f5      	b.n	10005554 <_ftoa+0x84>
10005568:	9b22      	ldr	r3, [sp, #136]	; 0x88
1000556a:	9303      	str	r3, [sp, #12]
1000556c:	9b21      	ldr	r3, [sp, #132]	; 0x84
1000556e:	9302      	str	r3, [sp, #8]
10005570:	2303      	movs	r3, #3
10005572:	9301      	str	r3, [sp, #4]
10005574:	4ba1      	ldr	r3, [pc, #644]	; (100057fc <_ftoa+0x32c>)
10005576:	9300      	str	r3, [sp, #0]
10005578:	9b09      	ldr	r3, [sp, #36]	; 0x24
1000557a:	9a08      	ldr	r2, [sp, #32]
1000557c:	9907      	ldr	r1, [sp, #28]
1000557e:	9806      	ldr	r0, [sp, #24]
10005580:	f7ff fc0a 	bl	10004d98 <_out_rev>
10005584:	e103      	b.n	1000578e <_ftoa+0x2be>
10005586:	9b22      	ldr	r3, [sp, #136]	; 0x88
10005588:	9303      	str	r3, [sp, #12]
1000558a:	9b21      	ldr	r3, [sp, #132]	; 0x84
1000558c:	9302      	str	r3, [sp, #8]
1000558e:	2304      	movs	r3, #4
10005590:	9301      	str	r3, [sp, #4]
10005592:	4b9b      	ldr	r3, [pc, #620]	; (10005800 <_ftoa+0x330>)
10005594:	9300      	str	r3, [sp, #0]
10005596:	9b09      	ldr	r3, [sp, #36]	; 0x24
10005598:	9a08      	ldr	r2, [sp, #32]
1000559a:	9907      	ldr	r1, [sp, #28]
1000559c:	9806      	ldr	r0, [sp, #24]
1000559e:	f7ff fbfb 	bl	10004d98 <_out_rev>
100055a2:	e0f4      	b.n	1000578e <_ftoa+0x2be>
100055a4:	2304      	movs	r3, #4
100055a6:	9a22      	ldr	r2, [sp, #136]	; 0x88
100055a8:	4013      	ands	r3, r2
100055aa:	d010      	beq.n	100055ce <_ftoa+0xfe>
100055ac:	4a95      	ldr	r2, [pc, #596]	; (10005804 <_ftoa+0x334>)
100055ae:	2b00      	cmp	r3, #0
100055b0:	d00f      	beq.n	100055d2 <_ftoa+0x102>
100055b2:	2304      	movs	r3, #4
100055b4:	9922      	ldr	r1, [sp, #136]	; 0x88
100055b6:	9103      	str	r1, [sp, #12]
100055b8:	9921      	ldr	r1, [sp, #132]	; 0x84
100055ba:	9102      	str	r1, [sp, #8]
100055bc:	9301      	str	r3, [sp, #4]
100055be:	9200      	str	r2, [sp, #0]
100055c0:	9b09      	ldr	r3, [sp, #36]	; 0x24
100055c2:	9a08      	ldr	r2, [sp, #32]
100055c4:	9907      	ldr	r1, [sp, #28]
100055c6:	9806      	ldr	r0, [sp, #24]
100055c8:	f7ff fbe6 	bl	10004d98 <_out_rev>
100055cc:	e0df      	b.n	1000578e <_ftoa+0x2be>
100055ce:	4a8e      	ldr	r2, [pc, #568]	; (10005808 <_ftoa+0x338>)
100055d0:	e7ed      	b.n	100055ae <_ftoa+0xde>
100055d2:	2303      	movs	r3, #3
100055d4:	e7ee      	b.n	100055b4 <_ftoa+0xe4>
100055d6:	9b22      	ldr	r3, [sp, #136]	; 0x88
100055d8:	9304      	str	r3, [sp, #16]
100055da:	9b21      	ldr	r3, [sp, #132]	; 0x84
100055dc:	9303      	str	r3, [sp, #12]
100055de:	9702      	str	r7, [sp, #8]
100055e0:	9b1e      	ldr	r3, [sp, #120]	; 0x78
100055e2:	9c1f      	ldr	r4, [sp, #124]	; 0x7c
100055e4:	9300      	str	r3, [sp, #0]
100055e6:	9401      	str	r4, [sp, #4]
100055e8:	9b09      	ldr	r3, [sp, #36]	; 0x24
100055ea:	9a08      	ldr	r2, [sp, #32]
100055ec:	9907      	ldr	r1, [sp, #28]
100055ee:	9806      	ldr	r0, [sp, #24]
100055f0:	f7ff fd6a 	bl	100050c8 <_etoa>
100055f4:	e0cb      	b.n	1000578e <_ftoa+0x2be>
100055f6:	9a1e      	ldr	r2, [sp, #120]	; 0x78
100055f8:	9b1f      	ldr	r3, [sp, #124]	; 0x7c
100055fa:	2000      	movs	r0, #0
100055fc:	2100      	movs	r1, #0
100055fe:	f000 fec6 	bl	1000638e <__wrap___aeabi_dsub>
10005602:	901e      	str	r0, [sp, #120]	; 0x78
10005604:	911f      	str	r1, [sp, #124]	; 0x7c
10005606:	2301      	movs	r3, #1
10005608:	469a      	mov	sl, r3
1000560a:	e79f      	b.n	1000554c <_ftoa+0x7c>
1000560c:	2706      	movs	r7, #6
1000560e:	e7a0      	b.n	10005552 <_ftoa+0x82>
10005610:	981e      	ldr	r0, [sp, #120]	; 0x78
10005612:	991f      	ldr	r1, [sp, #124]	; 0x7c
10005614:	f000 ff74 	bl	10006500 <__wrap___aeabi_d2iz>
10005618:	0004      	movs	r4, r0
1000561a:	f000 ff59 	bl	100064d0 <__wrap___aeabi_i2d>
1000561e:	0002      	movs	r2, r0
10005620:	000b      	movs	r3, r1
10005622:	981e      	ldr	r0, [sp, #120]	; 0x78
10005624:	991f      	ldr	r1, [sp, #124]	; 0x7c
10005626:	f000 feb2 	bl	1000638e <__wrap___aeabi_dsub>
1000562a:	00fa      	lsls	r2, r7, #3
1000562c:	4b77      	ldr	r3, [pc, #476]	; (1000580c <_ftoa+0x33c>)
1000562e:	189b      	adds	r3, r3, r2
10005630:	681a      	ldr	r2, [r3, #0]
10005632:	685b      	ldr	r3, [r3, #4]
10005634:	920c      	str	r2, [sp, #48]	; 0x30
10005636:	930d      	str	r3, [sp, #52]	; 0x34
10005638:	f000 fed9 	bl	100063ee <__wrap___aeabi_dmul>
1000563c:	900a      	str	r0, [sp, #40]	; 0x28
1000563e:	910b      	str	r1, [sp, #44]	; 0x2c
10005640:	f000 ff82 	bl	10006548 <__wrap___aeabi_d2uiz>
10005644:	0005      	movs	r5, r0
10005646:	f000 ff3f 	bl	100064c8 <__wrap___aeabi_ui2d>
1000564a:	0002      	movs	r2, r0
1000564c:	000b      	movs	r3, r1
1000564e:	980a      	ldr	r0, [sp, #40]	; 0x28
10005650:	990b      	ldr	r1, [sp, #44]	; 0x2c
10005652:	f000 fe9c 	bl	1000638e <__wrap___aeabi_dsub>
10005656:	900a      	str	r0, [sp, #40]	; 0x28
10005658:	910b      	str	r1, [sp, #44]	; 0x2c
1000565a:	2200      	movs	r2, #0
1000565c:	4b6c      	ldr	r3, [pc, #432]	; (10005810 <_ftoa+0x340>)
1000565e:	f000 ff1f 	bl	100064a0 <__wrap___aeabi_dcmpgt>
10005662:	2800      	cmp	r0, #0
10005664:	d02c      	beq.n	100056c0 <_ftoa+0x1f0>
10005666:	3501      	adds	r5, #1
10005668:	0028      	movs	r0, r5
1000566a:	f000 ff2d 	bl	100064c8 <__wrap___aeabi_ui2d>
1000566e:	0002      	movs	r2, r0
10005670:	000b      	movs	r3, r1
10005672:	980c      	ldr	r0, [sp, #48]	; 0x30
10005674:	990d      	ldr	r1, [sp, #52]	; 0x34
10005676:	f000 ff03 	bl	10006480 <__wrap___aeabi_dcmple>
1000567a:	2800      	cmp	r0, #0
1000567c:	d001      	beq.n	10005682 <_ftoa+0x1b2>
1000567e:	3401      	adds	r4, #1
10005680:	2500      	movs	r5, #0
10005682:	2f00      	cmp	r7, #0
10005684:	d12a      	bne.n	100056dc <_ftoa+0x20c>
10005686:	0020      	movs	r0, r4
10005688:	f000 ff22 	bl	100064d0 <__wrap___aeabi_i2d>
1000568c:	0002      	movs	r2, r0
1000568e:	000b      	movs	r3, r1
10005690:	981e      	ldr	r0, [sp, #120]	; 0x78
10005692:	991f      	ldr	r1, [sp, #124]	; 0x7c
10005694:	f000 fe7b 	bl	1000638e <__wrap___aeabi_dsub>
10005698:	2200      	movs	r2, #0
1000569a:	4b5d      	ldr	r3, [pc, #372]	; (10005810 <_ftoa+0x340>)
1000569c:	900a      	str	r0, [sp, #40]	; 0x28
1000569e:	910b      	str	r1, [sp, #44]	; 0x2c
100056a0:	f000 fee8 	bl	10006474 <__wrap___aeabi_dcmplt>
100056a4:	2800      	cmp	r0, #0
100056a6:	d144      	bne.n	10005732 <_ftoa+0x262>
100056a8:	2200      	movs	r2, #0
100056aa:	4b59      	ldr	r3, [pc, #356]	; (10005810 <_ftoa+0x340>)
100056ac:	980a      	ldr	r0, [sp, #40]	; 0x28
100056ae:	990b      	ldr	r1, [sp, #44]	; 0x2c
100056b0:	f000 fef6 	bl	100064a0 <__wrap___aeabi_dcmpgt>
100056b4:	2800      	cmp	r0, #0
100056b6:	d13c      	bne.n	10005732 <_ftoa+0x262>
100056b8:	07e3      	lsls	r3, r4, #31
100056ba:	d53a      	bpl.n	10005732 <_ftoa+0x262>
100056bc:	3401      	adds	r4, #1
100056be:	e038      	b.n	10005732 <_ftoa+0x262>
100056c0:	2200      	movs	r2, #0
100056c2:	4b53      	ldr	r3, [pc, #332]	; (10005810 <_ftoa+0x340>)
100056c4:	980a      	ldr	r0, [sp, #40]	; 0x28
100056c6:	990b      	ldr	r1, [sp, #44]	; 0x2c
100056c8:	f000 fed4 	bl	10006474 <__wrap___aeabi_dcmplt>
100056cc:	2800      	cmp	r0, #0
100056ce:	d1d8      	bne.n	10005682 <_ftoa+0x1b2>
100056d0:	2d00      	cmp	r5, #0
100056d2:	d001      	beq.n	100056d8 <_ftoa+0x208>
100056d4:	07eb      	lsls	r3, r5, #31
100056d6:	d5d4      	bpl.n	10005682 <_ftoa+0x1b2>
100056d8:	3501      	adds	r5, #1
100056da:	e7d2      	b.n	10005682 <_ftoa+0x1b2>
100056dc:	940a      	str	r4, [sp, #40]	; 0x28
100056de:	2e1f      	cmp	r6, #31
100056e0:	d811      	bhi.n	10005706 <_ftoa+0x236>
100056e2:	3f01      	subs	r7, #1
100056e4:	210a      	movs	r1, #10
100056e6:	0028      	movs	r0, r5
100056e8:	f000 fc0e 	bl	10005f08 <__wrap___aeabi_uidiv>
100056ec:	1c74      	adds	r4, r6, #1
100056ee:	3130      	adds	r1, #48	; 0x30
100056f0:	ab0e      	add	r3, sp, #56	; 0x38
100056f2:	5599      	strb	r1, [r3, r6]
100056f4:	210a      	movs	r1, #10
100056f6:	0028      	movs	r0, r5
100056f8:	f000 fc06 	bl	10005f08 <__wrap___aeabi_uidiv>
100056fc:	2d09      	cmp	r5, #9
100056fe:	d90e      	bls.n	1000571e <_ftoa+0x24e>
10005700:	0005      	movs	r5, r0
10005702:	0026      	movs	r6, r4
10005704:	e7eb      	b.n	100056de <_ftoa+0x20e>
10005706:	9c0a      	ldr	r4, [sp, #40]	; 0x28
10005708:	2e1f      	cmp	r6, #31
1000570a:	d80c      	bhi.n	10005726 <_ftoa+0x256>
1000570c:	1e7b      	subs	r3, r7, #1
1000570e:	2f00      	cmp	r7, #0
10005710:	d009      	beq.n	10005726 <_ftoa+0x256>
10005712:	aa0e      	add	r2, sp, #56	; 0x38
10005714:	2130      	movs	r1, #48	; 0x30
10005716:	5591      	strb	r1, [r2, r6]
10005718:	001f      	movs	r7, r3
1000571a:	3601      	adds	r6, #1
1000571c:	e7f4      	b.n	10005708 <_ftoa+0x238>
1000571e:	46a0      	mov	r8, r4
10005720:	9c0a      	ldr	r4, [sp, #40]	; 0x28
10005722:	4646      	mov	r6, r8
10005724:	e7f0      	b.n	10005708 <_ftoa+0x238>
10005726:	2e1f      	cmp	r6, #31
10005728:	d803      	bhi.n	10005732 <_ftoa+0x262>
1000572a:	ab0e      	add	r3, sp, #56	; 0x38
1000572c:	222e      	movs	r2, #46	; 0x2e
1000572e:	559a      	strb	r2, [r3, r6]
10005730:	3601      	adds	r6, #1
10005732:	2e1f      	cmp	r6, #31
10005734:	d810      	bhi.n	10005758 <_ftoa+0x288>
10005736:	210a      	movs	r1, #10
10005738:	0020      	movs	r0, r4
1000573a:	f000 fbbd 	bl	10005eb8 <__wrap___aeabi_idiv>
1000573e:	1c75      	adds	r5, r6, #1
10005740:	3130      	adds	r1, #48	; 0x30
10005742:	ab0e      	add	r3, sp, #56	; 0x38
10005744:	5599      	strb	r1, [r3, r6]
10005746:	210a      	movs	r1, #10
10005748:	0020      	movs	r0, r4
1000574a:	f000 fbb5 	bl	10005eb8 <__wrap___aeabi_idiv>
1000574e:	1e04      	subs	r4, r0, #0
10005750:	d001      	beq.n	10005756 <_ftoa+0x286>
10005752:	002e      	movs	r6, r5
10005754:	e7ed      	b.n	10005732 <_ftoa+0x262>
10005756:	002e      	movs	r6, r5
10005758:	2303      	movs	r3, #3
1000575a:	9a22      	ldr	r2, [sp, #136]	; 0x88
1000575c:	4013      	ands	r3, r2
1000575e:	2b01      	cmp	r3, #1
10005760:	d01a      	beq.n	10005798 <_ftoa+0x2c8>
10005762:	2e1f      	cmp	r6, #31
10005764:	d806      	bhi.n	10005774 <_ftoa+0x2a4>
10005766:	4653      	mov	r3, sl
10005768:	2b00      	cmp	r3, #0
1000576a:	d02f      	beq.n	100057cc <_ftoa+0x2fc>
1000576c:	ab0e      	add	r3, sp, #56	; 0x38
1000576e:	222d      	movs	r2, #45	; 0x2d
10005770:	559a      	strb	r2, [r3, r6]
10005772:	3601      	adds	r6, #1
10005774:	9b22      	ldr	r3, [sp, #136]	; 0x88
10005776:	9303      	str	r3, [sp, #12]
10005778:	9b21      	ldr	r3, [sp, #132]	; 0x84
1000577a:	9302      	str	r3, [sp, #8]
1000577c:	9601      	str	r6, [sp, #4]
1000577e:	ab0e      	add	r3, sp, #56	; 0x38
10005780:	9300      	str	r3, [sp, #0]
10005782:	9b09      	ldr	r3, [sp, #36]	; 0x24
10005784:	9a08      	ldr	r2, [sp, #32]
10005786:	9907      	ldr	r1, [sp, #28]
10005788:	9806      	ldr	r0, [sp, #24]
1000578a:	f7ff fb05 	bl	10004d98 <_out_rev>
1000578e:	b017      	add	sp, #92	; 0x5c
10005790:	bc0c      	pop	{r2, r3}
10005792:	4690      	mov	r8, r2
10005794:	469a      	mov	sl, r3
10005796:	bdf0      	pop	{r4, r5, r6, r7, pc}
10005798:	9b21      	ldr	r3, [sp, #132]	; 0x84
1000579a:	2b00      	cmp	r3, #0
1000579c:	d00a      	beq.n	100057b4 <_ftoa+0x2e4>
1000579e:	4653      	mov	r3, sl
100057a0:	2b00      	cmp	r3, #0
100057a2:	d102      	bne.n	100057aa <_ftoa+0x2da>
100057a4:	330c      	adds	r3, #12
100057a6:	4213      	tst	r3, r2
100057a8:	d00e      	beq.n	100057c8 <_ftoa+0x2f8>
100057aa:	9b21      	ldr	r3, [sp, #132]	; 0x84
100057ac:	3b01      	subs	r3, #1
100057ae:	9321      	str	r3, [sp, #132]	; 0x84
100057b0:	0019      	movs	r1, r3
100057b2:	e000      	b.n	100057b6 <_ftoa+0x2e6>
100057b4:	9921      	ldr	r1, [sp, #132]	; 0x84
100057b6:	428e      	cmp	r6, r1
100057b8:	d2d3      	bcs.n	10005762 <_ftoa+0x292>
100057ba:	2e1f      	cmp	r6, #31
100057bc:	d8d1      	bhi.n	10005762 <_ftoa+0x292>
100057be:	ab0e      	add	r3, sp, #56	; 0x38
100057c0:	2230      	movs	r2, #48	; 0x30
100057c2:	559a      	strb	r2, [r3, r6]
100057c4:	3601      	adds	r6, #1
100057c6:	e7f6      	b.n	100057b6 <_ftoa+0x2e6>
100057c8:	9921      	ldr	r1, [sp, #132]	; 0x84
100057ca:	e7f4      	b.n	100057b6 <_ftoa+0x2e6>
100057cc:	9b22      	ldr	r3, [sp, #136]	; 0x88
100057ce:	075b      	lsls	r3, r3, #29
100057d0:	d504      	bpl.n	100057dc <_ftoa+0x30c>
100057d2:	ab0e      	add	r3, sp, #56	; 0x38
100057d4:	222b      	movs	r2, #43	; 0x2b
100057d6:	559a      	strb	r2, [r3, r6]
100057d8:	3601      	adds	r6, #1
100057da:	e7cb      	b.n	10005774 <_ftoa+0x2a4>
100057dc:	9b22      	ldr	r3, [sp, #136]	; 0x88
100057de:	071b      	lsls	r3, r3, #28
100057e0:	d5c8      	bpl.n	10005774 <_ftoa+0x2a4>
100057e2:	ab0e      	add	r3, sp, #56	; 0x38
100057e4:	2220      	movs	r2, #32
100057e6:	559a      	strb	r2, [r3, r6]
100057e8:	3601      	adds	r6, #1
100057ea:	e7c3      	b.n	10005774 <_ftoa+0x2a4>
100057ec:	ffefffff 	.word	0xffefffff
100057f0:	7fefffff 	.word	0x7fefffff
100057f4:	41cdcd65 	.word	0x41cdcd65
100057f8:	c1cdcd65 	.word	0xc1cdcd65
100057fc:	1000b850 	.word	0x1000b850
10005800:	1000b854 	.word	0x1000b854
10005804:	1000b848 	.word	0x1000b848
10005808:	1000b844 	.word	0x1000b844
1000580c:	1000b860 	.word	0x1000b860
10005810:	3fe00000 	.word	0x3fe00000

10005814 <_vsnprintf>:
10005814:	b5f0      	push	{r4, r5, r6, r7, lr}
10005816:	46de      	mov	lr, fp
10005818:	4657      	mov	r7, sl
1000581a:	464e      	mov	r6, r9
1000581c:	4645      	mov	r5, r8
1000581e:	b5e0      	push	{r5, r6, r7, lr}
10005820:	b093      	sub	sp, #76	; 0x4c
10005822:	4683      	mov	fp, r0
10005824:	910b      	str	r1, [sp, #44]	; 0x2c
10005826:	920a      	str	r2, [sp, #40]	; 0x28
10005828:	9311      	str	r3, [sp, #68]	; 0x44
1000582a:	2900      	cmp	r1, #0
1000582c:	d100      	bne.n	10005830 <_vsnprintf+0x1c>
1000582e:	e2e6      	b.n	10005dfe <_vsnprintf+0x5ea>
10005830:	2700      	movs	r7, #0
10005832:	465c      	mov	r4, fp
10005834:	9b11      	ldr	r3, [sp, #68]	; 0x44
10005836:	7818      	ldrb	r0, [r3, #0]
10005838:	2800      	cmp	r0, #0
1000583a:	d100      	bne.n	1000583e <_vsnprintf+0x2a>
1000583c:	e2e2      	b.n	10005e04 <_vsnprintf+0x5f0>
1000583e:	2825      	cmp	r0, #37	; 0x25
10005840:	d009      	beq.n	10005856 <_vsnprintf+0x42>
10005842:	1c7d      	adds	r5, r7, #1
10005844:	9b0a      	ldr	r3, [sp, #40]	; 0x28
10005846:	003a      	movs	r2, r7
10005848:	990b      	ldr	r1, [sp, #44]	; 0x2c
1000584a:	47a0      	blx	r4
1000584c:	9b11      	ldr	r3, [sp, #68]	; 0x44
1000584e:	3301      	adds	r3, #1
10005850:	9311      	str	r3, [sp, #68]	; 0x44
10005852:	002f      	movs	r7, r5
10005854:	e7ee      	b.n	10005834 <_vsnprintf+0x20>
10005856:	3301      	adds	r3, #1
10005858:	9311      	str	r3, [sp, #68]	; 0x44
1000585a:	2600      	movs	r6, #0
1000585c:	e01d      	b.n	1000589a <_vsnprintf+0x86>
1000585e:	000b      	movs	r3, r1
10005860:	3b30      	subs	r3, #48	; 0x30
10005862:	b2db      	uxtb	r3, r3
10005864:	2b09      	cmp	r3, #9
10005866:	d937      	bls.n	100058d8 <_vsnprintf+0xc4>
10005868:	292a      	cmp	r1, #42	; 0x2a
1000586a:	d03a      	beq.n	100058e2 <_vsnprintf+0xce>
1000586c:	2300      	movs	r3, #0
1000586e:	469b      	mov	fp, r3
10005870:	9b11      	ldr	r3, [sp, #68]	; 0x44
10005872:	781a      	ldrb	r2, [r3, #0]
10005874:	2a2e      	cmp	r2, #46	; 0x2e
10005876:	d044      	beq.n	10005902 <_vsnprintf+0xee>
10005878:	2300      	movs	r3, #0
1000587a:	4698      	mov	r8, r3
1000587c:	9a11      	ldr	r2, [sp, #68]	; 0x44
1000587e:	7813      	ldrb	r3, [r2, #0]
10005880:	3b68      	subs	r3, #104	; 0x68
10005882:	b2d9      	uxtb	r1, r3
10005884:	2912      	cmp	r1, #18
10005886:	d900      	bls.n	1000588a <_vsnprintf+0x76>
10005888:	e080      	b.n	1000598c <_vsnprintf+0x178>
1000588a:	008b      	lsls	r3, r1, #2
1000588c:	49cb      	ldr	r1, [pc, #812]	; (10005bbc <_vsnprintf+0x3a8>)
1000588e:	58cb      	ldr	r3, [r1, r3]
10005890:	469f      	mov	pc, r3
10005892:	2301      	movs	r3, #1
10005894:	431e      	orrs	r6, r3
10005896:	3201      	adds	r2, #1
10005898:	9211      	str	r2, [sp, #68]	; 0x44
1000589a:	9a11      	ldr	r2, [sp, #68]	; 0x44
1000589c:	7811      	ldrb	r1, [r2, #0]
1000589e:	000b      	movs	r3, r1
100058a0:	3b20      	subs	r3, #32
100058a2:	b2d8      	uxtb	r0, r3
100058a4:	2810      	cmp	r0, #16
100058a6:	d8da      	bhi.n	1000585e <_vsnprintf+0x4a>
100058a8:	0083      	lsls	r3, r0, #2
100058aa:	48c5      	ldr	r0, [pc, #788]	; (10005bc0 <_vsnprintf+0x3ac>)
100058ac:	58c3      	ldr	r3, [r0, r3]
100058ae:	469f      	mov	pc, r3
100058b0:	2302      	movs	r3, #2
100058b2:	431e      	orrs	r6, r3
100058b4:	3201      	adds	r2, #1
100058b6:	9211      	str	r2, [sp, #68]	; 0x44
100058b8:	e7ef      	b.n	1000589a <_vsnprintf+0x86>
100058ba:	2304      	movs	r3, #4
100058bc:	431e      	orrs	r6, r3
100058be:	3201      	adds	r2, #1
100058c0:	9211      	str	r2, [sp, #68]	; 0x44
100058c2:	e7ea      	b.n	1000589a <_vsnprintf+0x86>
100058c4:	2308      	movs	r3, #8
100058c6:	431e      	orrs	r6, r3
100058c8:	3201      	adds	r2, #1
100058ca:	9211      	str	r2, [sp, #68]	; 0x44
100058cc:	e7e5      	b.n	1000589a <_vsnprintf+0x86>
100058ce:	2310      	movs	r3, #16
100058d0:	431e      	orrs	r6, r3
100058d2:	3201      	adds	r2, #1
100058d4:	9211      	str	r2, [sp, #68]	; 0x44
100058d6:	e7e0      	b.n	1000589a <_vsnprintf+0x86>
100058d8:	a811      	add	r0, sp, #68	; 0x44
100058da:	f7ff fa49 	bl	10004d70 <_atoi>
100058de:	4683      	mov	fp, r0
100058e0:	e7c6      	b.n	10005870 <_vsnprintf+0x5c>
100058e2:	9b1c      	ldr	r3, [sp, #112]	; 0x70
100058e4:	1d1a      	adds	r2, r3, #4
100058e6:	921c      	str	r2, [sp, #112]	; 0x70
100058e8:	681b      	ldr	r3, [r3, #0]
100058ea:	2b00      	cmp	r3, #0
100058ec:	db04      	blt.n	100058f8 <_vsnprintf+0xe4>
100058ee:	469b      	mov	fp, r3
100058f0:	9b11      	ldr	r3, [sp, #68]	; 0x44
100058f2:	3301      	adds	r3, #1
100058f4:	9311      	str	r3, [sp, #68]	; 0x44
100058f6:	e7bb      	b.n	10005870 <_vsnprintf+0x5c>
100058f8:	2202      	movs	r2, #2
100058fa:	4316      	orrs	r6, r2
100058fc:	425b      	negs	r3, r3
100058fe:	469b      	mov	fp, r3
10005900:	e7f6      	b.n	100058f0 <_vsnprintf+0xdc>
10005902:	2280      	movs	r2, #128	; 0x80
10005904:	00d2      	lsls	r2, r2, #3
10005906:	4316      	orrs	r6, r2
10005908:	1c5a      	adds	r2, r3, #1
1000590a:	9211      	str	r2, [sp, #68]	; 0x44
1000590c:	785a      	ldrb	r2, [r3, #1]
1000590e:	0013      	movs	r3, r2
10005910:	3b30      	subs	r3, #48	; 0x30
10005912:	b2db      	uxtb	r3, r3
10005914:	2b09      	cmp	r3, #9
10005916:	d904      	bls.n	10005922 <_vsnprintf+0x10e>
10005918:	2a2a      	cmp	r2, #42	; 0x2a
1000591a:	d007      	beq.n	1000592c <_vsnprintf+0x118>
1000591c:	2300      	movs	r3, #0
1000591e:	4698      	mov	r8, r3
10005920:	e7ac      	b.n	1000587c <_vsnprintf+0x68>
10005922:	a811      	add	r0, sp, #68	; 0x44
10005924:	f7ff fa24 	bl	10004d70 <_atoi>
10005928:	4680      	mov	r8, r0
1000592a:	e7a7      	b.n	1000587c <_vsnprintf+0x68>
1000592c:	9b1c      	ldr	r3, [sp, #112]	; 0x70
1000592e:	1d1a      	adds	r2, r3, #4
10005930:	921c      	str	r2, [sp, #112]	; 0x70
10005932:	681b      	ldr	r3, [r3, #0]
10005934:	2b00      	cmp	r3, #0
10005936:	db04      	blt.n	10005942 <_vsnprintf+0x12e>
10005938:	4698      	mov	r8, r3
1000593a:	9b11      	ldr	r3, [sp, #68]	; 0x44
1000593c:	3301      	adds	r3, #1
1000593e:	9311      	str	r3, [sp, #68]	; 0x44
10005940:	e79c      	b.n	1000587c <_vsnprintf+0x68>
10005942:	2300      	movs	r3, #0
10005944:	e7f8      	b.n	10005938 <_vsnprintf+0x124>
10005946:	2380      	movs	r3, #128	; 0x80
10005948:	005b      	lsls	r3, r3, #1
1000594a:	4333      	orrs	r3, r6
1000594c:	1c51      	adds	r1, r2, #1
1000594e:	9111      	str	r1, [sp, #68]	; 0x44
10005950:	7852      	ldrb	r2, [r2, #1]
10005952:	2a6c      	cmp	r2, #108	; 0x6c
10005954:	d001      	beq.n	1000595a <_vsnprintf+0x146>
10005956:	001e      	movs	r6, r3
10005958:	e018      	b.n	1000598c <_vsnprintf+0x178>
1000595a:	23c0      	movs	r3, #192	; 0xc0
1000595c:	009b      	lsls	r3, r3, #2
1000595e:	431e      	orrs	r6, r3
10005960:	3101      	adds	r1, #1
10005962:	9111      	str	r1, [sp, #68]	; 0x44
10005964:	e012      	b.n	1000598c <_vsnprintf+0x178>
10005966:	2380      	movs	r3, #128	; 0x80
10005968:	4333      	orrs	r3, r6
1000596a:	1c51      	adds	r1, r2, #1
1000596c:	9111      	str	r1, [sp, #68]	; 0x44
1000596e:	7852      	ldrb	r2, [r2, #1]
10005970:	2a68      	cmp	r2, #104	; 0x68
10005972:	d001      	beq.n	10005978 <_vsnprintf+0x164>
10005974:	001e      	movs	r6, r3
10005976:	e009      	b.n	1000598c <_vsnprintf+0x178>
10005978:	23c0      	movs	r3, #192	; 0xc0
1000597a:	431e      	orrs	r6, r3
1000597c:	3101      	adds	r1, #1
1000597e:	9111      	str	r1, [sp, #68]	; 0x44
10005980:	e004      	b.n	1000598c <_vsnprintf+0x178>
10005982:	2380      	movs	r3, #128	; 0x80
10005984:	005b      	lsls	r3, r3, #1
10005986:	431e      	orrs	r6, r3
10005988:	3201      	adds	r2, #1
1000598a:	9211      	str	r2, [sp, #68]	; 0x44
1000598c:	9b11      	ldr	r3, [sp, #68]	; 0x44
1000598e:	7818      	ldrb	r0, [r3, #0]
10005990:	0003      	movs	r3, r0
10005992:	3b25      	subs	r3, #37	; 0x25
10005994:	b2da      	uxtb	r2, r3
10005996:	2a53      	cmp	r2, #83	; 0x53
10005998:	d900      	bls.n	1000599c <_vsnprintf+0x188>
1000599a:	e226      	b.n	10005dea <_vsnprintf+0x5d6>
1000599c:	0093      	lsls	r3, r2, #2
1000599e:	4a89      	ldr	r2, [pc, #548]	; (10005bc4 <_vsnprintf+0x3b0>)
100059a0:	58d3      	ldr	r3, [r2, r3]
100059a2:	469f      	mov	pc, r3
100059a4:	2380      	movs	r3, #128	; 0x80
100059a6:	009b      	lsls	r3, r3, #2
100059a8:	431e      	orrs	r6, r3
100059aa:	3201      	adds	r2, #1
100059ac:	9211      	str	r2, [sp, #68]	; 0x44
100059ae:	e7ed      	b.n	1000598c <_vsnprintf+0x178>
100059b0:	2380      	movs	r3, #128	; 0x80
100059b2:	005b      	lsls	r3, r3, #1
100059b4:	431e      	orrs	r6, r3
100059b6:	3201      	adds	r2, #1
100059b8:	9211      	str	r2, [sp, #68]	; 0x44
100059ba:	e7e7      	b.n	1000598c <_vsnprintf+0x178>
100059bc:	2878      	cmp	r0, #120	; 0x78
100059be:	d009      	beq.n	100059d4 <_vsnprintf+0x1c0>
100059c0:	2858      	cmp	r0, #88	; 0x58
100059c2:	d038      	beq.n	10005a36 <_vsnprintf+0x222>
100059c4:	286f      	cmp	r0, #111	; 0x6f
100059c6:	d038      	beq.n	10005a3a <_vsnprintf+0x226>
100059c8:	2862      	cmp	r0, #98	; 0x62
100059ca:	d038      	beq.n	10005a3e <_vsnprintf+0x22a>
100059cc:	2310      	movs	r3, #16
100059ce:	439e      	bics	r6, r3
100059d0:	250a      	movs	r5, #10
100059d2:	e000      	b.n	100059d6 <_vsnprintf+0x1c2>
100059d4:	2510      	movs	r5, #16
100059d6:	2858      	cmp	r0, #88	; 0x58
100059d8:	d033      	beq.n	10005a42 <_vsnprintf+0x22e>
100059da:	2869      	cmp	r0, #105	; 0x69
100059dc:	d003      	beq.n	100059e6 <_vsnprintf+0x1d2>
100059de:	2864      	cmp	r0, #100	; 0x64
100059e0:	d001      	beq.n	100059e6 <_vsnprintf+0x1d2>
100059e2:	220c      	movs	r2, #12
100059e4:	4396      	bics	r6, r2
100059e6:	0573      	lsls	r3, r6, #21
100059e8:	d501      	bpl.n	100059ee <_vsnprintf+0x1da>
100059ea:	2201      	movs	r2, #1
100059ec:	4396      	bics	r6, r2
100059ee:	2869      	cmp	r0, #105	; 0x69
100059f0:	d02a      	beq.n	10005a48 <_vsnprintf+0x234>
100059f2:	2864      	cmp	r0, #100	; 0x64
100059f4:	d028      	beq.n	10005a48 <_vsnprintf+0x234>
100059f6:	05b3      	lsls	r3, r6, #22
100059f8:	d500      	bpl.n	100059fc <_vsnprintf+0x1e8>
100059fa:	e09f      	b.n	10005b3c <_vsnprintf+0x328>
100059fc:	05f3      	lsls	r3, r6, #23
100059fe:	d500      	bpl.n	10005a02 <_vsnprintf+0x1ee>
10005a00:	e0b8      	b.n	10005b74 <_vsnprintf+0x360>
10005a02:	0673      	lsls	r3, r6, #25
10005a04:	d400      	bmi.n	10005a08 <_vsnprintf+0x1f4>
10005a06:	e0ca      	b.n	10005b9e <_vsnprintf+0x38a>
10005a08:	9a1c      	ldr	r2, [sp, #112]	; 0x70
10005a0a:	1d11      	adds	r1, r2, #4
10005a0c:	911c      	str	r1, [sp, #112]	; 0x70
10005a0e:	6811      	ldr	r1, [r2, #0]
10005a10:	22ff      	movs	r2, #255	; 0xff
10005a12:	400a      	ands	r2, r1
10005a14:	9605      	str	r6, [sp, #20]
10005a16:	465b      	mov	r3, fp
10005a18:	9304      	str	r3, [sp, #16]
10005a1a:	4643      	mov	r3, r8
10005a1c:	9303      	str	r3, [sp, #12]
10005a1e:	9502      	str	r5, [sp, #8]
10005a20:	2300      	movs	r3, #0
10005a22:	9301      	str	r3, [sp, #4]
10005a24:	9200      	str	r2, [sp, #0]
10005a26:	9b0a      	ldr	r3, [sp, #40]	; 0x28
10005a28:	003a      	movs	r2, r7
10005a2a:	990b      	ldr	r1, [sp, #44]	; 0x2c
10005a2c:	0020      	movs	r0, r4
10005a2e:	f7ff fa7f 	bl	10004f30 <_ntoa_long>
10005a32:	0007      	movs	r7, r0
10005a34:	e027      	b.n	10005a86 <_vsnprintf+0x272>
10005a36:	2510      	movs	r5, #16
10005a38:	e7cd      	b.n	100059d6 <_vsnprintf+0x1c2>
10005a3a:	2508      	movs	r5, #8
10005a3c:	e7cb      	b.n	100059d6 <_vsnprintf+0x1c2>
10005a3e:	2502      	movs	r5, #2
10005a40:	e7c9      	b.n	100059d6 <_vsnprintf+0x1c2>
10005a42:	2220      	movs	r2, #32
10005a44:	4316      	orrs	r6, r2
10005a46:	e7c8      	b.n	100059da <_vsnprintf+0x1c6>
10005a48:	05b3      	lsls	r3, r6, #22
10005a4a:	d420      	bmi.n	10005a8e <_vsnprintf+0x27a>
10005a4c:	05f3      	lsls	r3, r6, #23
10005a4e:	d450      	bmi.n	10005af2 <_vsnprintf+0x2de>
10005a50:	0673      	lsls	r3, r6, #25
10005a52:	d566      	bpl.n	10005b22 <_vsnprintf+0x30e>
10005a54:	9a1c      	ldr	r2, [sp, #112]	; 0x70
10005a56:	1d11      	adds	r1, r2, #4
10005a58:	911c      	str	r1, [sp, #112]	; 0x70
10005a5a:	6811      	ldr	r1, [r2, #0]
10005a5c:	22ff      	movs	r2, #255	; 0xff
10005a5e:	400a      	ands	r2, r1
10005a60:	17d3      	asrs	r3, r2, #31
10005a62:	18d1      	adds	r1, r2, r3
10005a64:	4059      	eors	r1, r3
10005a66:	9605      	str	r6, [sp, #20]
10005a68:	465b      	mov	r3, fp
10005a6a:	9304      	str	r3, [sp, #16]
10005a6c:	4643      	mov	r3, r8
10005a6e:	9303      	str	r3, [sp, #12]
10005a70:	9502      	str	r5, [sp, #8]
10005a72:	0fd2      	lsrs	r2, r2, #31
10005a74:	9201      	str	r2, [sp, #4]
10005a76:	9100      	str	r1, [sp, #0]
10005a78:	9b0a      	ldr	r3, [sp, #40]	; 0x28
10005a7a:	003a      	movs	r2, r7
10005a7c:	990b      	ldr	r1, [sp, #44]	; 0x2c
10005a7e:	0020      	movs	r0, r4
10005a80:	f7ff fa56 	bl	10004f30 <_ntoa_long>
10005a84:	0007      	movs	r7, r0
10005a86:	9b11      	ldr	r3, [sp, #68]	; 0x44
10005a88:	3301      	adds	r3, #1
10005a8a:	9311      	str	r3, [sp, #68]	; 0x44
10005a8c:	e6d2      	b.n	10005834 <_vsnprintf+0x20>
10005a8e:	9b1c      	ldr	r3, [sp, #112]	; 0x70
10005a90:	1dda      	adds	r2, r3, #7
10005a92:	2107      	movs	r1, #7
10005a94:	438a      	bics	r2, r1
10005a96:	0011      	movs	r1, r2
10005a98:	3108      	adds	r1, #8
10005a9a:	911c      	str	r1, [sp, #112]	; 0x70
10005a9c:	6811      	ldr	r1, [r2, #0]
10005a9e:	6853      	ldr	r3, [r2, #4]
10005aa0:	469c      	mov	ip, r3
10005aa2:	17db      	asrs	r3, r3, #31
10005aa4:	930c      	str	r3, [sp, #48]	; 0x30
10005aa6:	930d      	str	r3, [sp, #52]	; 0x34
10005aa8:	9a0c      	ldr	r2, [sp, #48]	; 0x30
10005aaa:	9b0d      	ldr	r3, [sp, #52]	; 0x34
10005aac:	0010      	movs	r0, r2
10005aae:	4048      	eors	r0, r1
10005ab0:	900e      	str	r0, [sp, #56]	; 0x38
10005ab2:	4662      	mov	r2, ip
10005ab4:	4053      	eors	r3, r2
10005ab6:	930f      	str	r3, [sp, #60]	; 0x3c
10005ab8:	980e      	ldr	r0, [sp, #56]	; 0x38
10005aba:	990f      	ldr	r1, [sp, #60]	; 0x3c
10005abc:	9a0c      	ldr	r2, [sp, #48]	; 0x30
10005abe:	9b0d      	ldr	r3, [sp, #52]	; 0x34
10005ac0:	1a80      	subs	r0, r0, r2
10005ac2:	4199      	sbcs	r1, r3
10005ac4:	900e      	str	r0, [sp, #56]	; 0x38
10005ac6:	910f      	str	r1, [sp, #60]	; 0x3c
10005ac8:	9608      	str	r6, [sp, #32]
10005aca:	465b      	mov	r3, fp
10005acc:	9307      	str	r3, [sp, #28]
10005ace:	4643      	mov	r3, r8
10005ad0:	9306      	str	r3, [sp, #24]
10005ad2:	9504      	str	r5, [sp, #16]
10005ad4:	2300      	movs	r3, #0
10005ad6:	9305      	str	r3, [sp, #20]
10005ad8:	4663      	mov	r3, ip
10005ada:	0fda      	lsrs	r2, r3, #31
10005adc:	9202      	str	r2, [sp, #8]
10005ade:	9000      	str	r0, [sp, #0]
10005ae0:	9101      	str	r1, [sp, #4]
10005ae2:	9b0a      	ldr	r3, [sp, #40]	; 0x28
10005ae4:	003a      	movs	r2, r7
10005ae6:	990b      	ldr	r1, [sp, #44]	; 0x2c
10005ae8:	0020      	movs	r0, r4
10005aea:	f7ff fa79 	bl	10004fe0 <_ntoa_long_long>
10005aee:	0007      	movs	r7, r0
10005af0:	e7c9      	b.n	10005a86 <_vsnprintf+0x272>
10005af2:	9a1c      	ldr	r2, [sp, #112]	; 0x70
10005af4:	1d11      	adds	r1, r2, #4
10005af6:	911c      	str	r1, [sp, #112]	; 0x70
10005af8:	6812      	ldr	r2, [r2, #0]
10005afa:	17d3      	asrs	r3, r2, #31
10005afc:	18d1      	adds	r1, r2, r3
10005afe:	4059      	eors	r1, r3
10005b00:	9605      	str	r6, [sp, #20]
10005b02:	465b      	mov	r3, fp
10005b04:	9304      	str	r3, [sp, #16]
10005b06:	4643      	mov	r3, r8
10005b08:	9303      	str	r3, [sp, #12]
10005b0a:	9502      	str	r5, [sp, #8]
10005b0c:	0fd2      	lsrs	r2, r2, #31
10005b0e:	9201      	str	r2, [sp, #4]
10005b10:	9100      	str	r1, [sp, #0]
10005b12:	9b0a      	ldr	r3, [sp, #40]	; 0x28
10005b14:	003a      	movs	r2, r7
10005b16:	990b      	ldr	r1, [sp, #44]	; 0x2c
10005b18:	0020      	movs	r0, r4
10005b1a:	f7ff fa09 	bl	10004f30 <_ntoa_long>
10005b1e:	0007      	movs	r7, r0
10005b20:	e7b1      	b.n	10005a86 <_vsnprintf+0x272>
10005b22:	0633      	lsls	r3, r6, #24
10005b24:	d505      	bpl.n	10005b32 <_vsnprintf+0x31e>
10005b26:	9a1c      	ldr	r2, [sp, #112]	; 0x70
10005b28:	1d11      	adds	r1, r2, #4
10005b2a:	911c      	str	r1, [sp, #112]	; 0x70
10005b2c:	2300      	movs	r3, #0
10005b2e:	5ed2      	ldrsh	r2, [r2, r3]
10005b30:	e796      	b.n	10005a60 <_vsnprintf+0x24c>
10005b32:	9a1c      	ldr	r2, [sp, #112]	; 0x70
10005b34:	1d11      	adds	r1, r2, #4
10005b36:	911c      	str	r1, [sp, #112]	; 0x70
10005b38:	6812      	ldr	r2, [r2, #0]
10005b3a:	e791      	b.n	10005a60 <_vsnprintf+0x24c>
10005b3c:	9b1c      	ldr	r3, [sp, #112]	; 0x70
10005b3e:	1dda      	adds	r2, r3, #7
10005b40:	2107      	movs	r1, #7
10005b42:	438a      	bics	r2, r1
10005b44:	0011      	movs	r1, r2
10005b46:	3108      	adds	r1, #8
10005b48:	911c      	str	r1, [sp, #112]	; 0x70
10005b4a:	9608      	str	r6, [sp, #32]
10005b4c:	465b      	mov	r3, fp
10005b4e:	9307      	str	r3, [sp, #28]
10005b50:	4643      	mov	r3, r8
10005b52:	9306      	str	r3, [sp, #24]
10005b54:	9504      	str	r5, [sp, #16]
10005b56:	2300      	movs	r3, #0
10005b58:	9305      	str	r3, [sp, #20]
10005b5a:	9302      	str	r3, [sp, #8]
10005b5c:	6853      	ldr	r3, [r2, #4]
10005b5e:	6812      	ldr	r2, [r2, #0]
10005b60:	9200      	str	r2, [sp, #0]
10005b62:	9301      	str	r3, [sp, #4]
10005b64:	9b0a      	ldr	r3, [sp, #40]	; 0x28
10005b66:	003a      	movs	r2, r7
10005b68:	990b      	ldr	r1, [sp, #44]	; 0x2c
10005b6a:	0020      	movs	r0, r4
10005b6c:	f7ff fa38 	bl	10004fe0 <_ntoa_long_long>
10005b70:	0007      	movs	r7, r0
10005b72:	e788      	b.n	10005a86 <_vsnprintf+0x272>
10005b74:	9a1c      	ldr	r2, [sp, #112]	; 0x70
10005b76:	1d11      	adds	r1, r2, #4
10005b78:	911c      	str	r1, [sp, #112]	; 0x70
10005b7a:	9605      	str	r6, [sp, #20]
10005b7c:	465b      	mov	r3, fp
10005b7e:	9304      	str	r3, [sp, #16]
10005b80:	4643      	mov	r3, r8
10005b82:	9303      	str	r3, [sp, #12]
10005b84:	9502      	str	r5, [sp, #8]
10005b86:	2300      	movs	r3, #0
10005b88:	9301      	str	r3, [sp, #4]
10005b8a:	6813      	ldr	r3, [r2, #0]
10005b8c:	9300      	str	r3, [sp, #0]
10005b8e:	9b0a      	ldr	r3, [sp, #40]	; 0x28
10005b90:	003a      	movs	r2, r7
10005b92:	990b      	ldr	r1, [sp, #44]	; 0x2c
10005b94:	0020      	movs	r0, r4
10005b96:	f7ff f9cb 	bl	10004f30 <_ntoa_long>
10005b9a:	0007      	movs	r7, r0
10005b9c:	e773      	b.n	10005a86 <_vsnprintf+0x272>
10005b9e:	0633      	lsls	r3, r6, #24
10005ba0:	d506      	bpl.n	10005bb0 <_vsnprintf+0x39c>
10005ba2:	9a1c      	ldr	r2, [sp, #112]	; 0x70
10005ba4:	1d11      	adds	r1, r2, #4
10005ba6:	911c      	str	r1, [sp, #112]	; 0x70
10005ba8:	6812      	ldr	r2, [r2, #0]
10005baa:	0412      	lsls	r2, r2, #16
10005bac:	0c12      	lsrs	r2, r2, #16
10005bae:	e731      	b.n	10005a14 <_vsnprintf+0x200>
10005bb0:	9a1c      	ldr	r2, [sp, #112]	; 0x70
10005bb2:	1d11      	adds	r1, r2, #4
10005bb4:	911c      	str	r1, [sp, #112]	; 0x70
10005bb6:	6812      	ldr	r2, [r2, #0]
10005bb8:	e72c      	b.n	10005a14 <_vsnprintf+0x200>
10005bba:	46c0      	nop			; (mov r8, r8)
10005bbc:	1000b664 	.word	0x1000b664
10005bc0:	1000b6b0 	.word	0x1000b6b0
10005bc4:	1000b6f4 	.word	0x1000b6f4
10005bc8:	2846      	cmp	r0, #70	; 0x46
10005bca:	d01a      	beq.n	10005c02 <_vsnprintf+0x3ee>
10005bcc:	9b1c      	ldr	r3, [sp, #112]	; 0x70
10005bce:	3307      	adds	r3, #7
10005bd0:	2207      	movs	r2, #7
10005bd2:	4393      	bics	r3, r2
10005bd4:	001a      	movs	r2, r3
10005bd6:	3208      	adds	r2, #8
10005bd8:	921c      	str	r2, [sp, #112]	; 0x70
10005bda:	9604      	str	r6, [sp, #16]
10005bdc:	465a      	mov	r2, fp
10005bde:	9203      	str	r2, [sp, #12]
10005be0:	4642      	mov	r2, r8
10005be2:	9202      	str	r2, [sp, #8]
10005be4:	681a      	ldr	r2, [r3, #0]
10005be6:	685b      	ldr	r3, [r3, #4]
10005be8:	9200      	str	r2, [sp, #0]
10005bea:	9301      	str	r3, [sp, #4]
10005bec:	9b0a      	ldr	r3, [sp, #40]	; 0x28
10005bee:	003a      	movs	r2, r7
10005bf0:	990b      	ldr	r1, [sp, #44]	; 0x2c
10005bf2:	0020      	movs	r0, r4
10005bf4:	f7ff fc6c 	bl	100054d0 <_ftoa>
10005bf8:	0007      	movs	r7, r0
10005bfa:	9b11      	ldr	r3, [sp, #68]	; 0x44
10005bfc:	3301      	adds	r3, #1
10005bfe:	9311      	str	r3, [sp, #68]	; 0x44
10005c00:	e618      	b.n	10005834 <_vsnprintf+0x20>
10005c02:	2320      	movs	r3, #32
10005c04:	431e      	orrs	r6, r3
10005c06:	e7e1      	b.n	10005bcc <_vsnprintf+0x3b8>
10005c08:	2867      	cmp	r0, #103	; 0x67
10005c0a:	d001      	beq.n	10005c10 <_vsnprintf+0x3fc>
10005c0c:	2847      	cmp	r0, #71	; 0x47
10005c0e:	d102      	bne.n	10005c16 <_vsnprintf+0x402>
10005c10:	2380      	movs	r3, #128	; 0x80
10005c12:	011b      	lsls	r3, r3, #4
10005c14:	431e      	orrs	r6, r3
10005c16:	2845      	cmp	r0, #69	; 0x45
10005c18:	d001      	beq.n	10005c1e <_vsnprintf+0x40a>
10005c1a:	2847      	cmp	r0, #71	; 0x47
10005c1c:	d101      	bne.n	10005c22 <_vsnprintf+0x40e>
10005c1e:	2320      	movs	r3, #32
10005c20:	431e      	orrs	r6, r3
10005c22:	9b1c      	ldr	r3, [sp, #112]	; 0x70
10005c24:	3307      	adds	r3, #7
10005c26:	2207      	movs	r2, #7
10005c28:	4393      	bics	r3, r2
10005c2a:	001a      	movs	r2, r3
10005c2c:	3208      	adds	r2, #8
10005c2e:	921c      	str	r2, [sp, #112]	; 0x70
10005c30:	9604      	str	r6, [sp, #16]
10005c32:	465a      	mov	r2, fp
10005c34:	9203      	str	r2, [sp, #12]
10005c36:	4642      	mov	r2, r8
10005c38:	9202      	str	r2, [sp, #8]
10005c3a:	681a      	ldr	r2, [r3, #0]
10005c3c:	685b      	ldr	r3, [r3, #4]
10005c3e:	9200      	str	r2, [sp, #0]
10005c40:	9301      	str	r3, [sp, #4]
10005c42:	9b0a      	ldr	r3, [sp, #40]	; 0x28
10005c44:	003a      	movs	r2, r7
10005c46:	990b      	ldr	r1, [sp, #44]	; 0x2c
10005c48:	0020      	movs	r0, r4
10005c4a:	f7ff fa3d 	bl	100050c8 <_etoa>
10005c4e:	0007      	movs	r7, r0
10005c50:	9b11      	ldr	r3, [sp, #68]	; 0x44
10005c52:	3301      	adds	r3, #1
10005c54:	9311      	str	r3, [sp, #68]	; 0x44
10005c56:	e5ed      	b.n	10005834 <_vsnprintf+0x20>
10005c58:	2302      	movs	r3, #2
10005c5a:	4033      	ands	r3, r6
10005c5c:	469a      	mov	sl, r3
10005c5e:	d01e      	beq.n	10005c9e <_vsnprintf+0x48a>
10005c60:	2601      	movs	r6, #1
10005c62:	9b1c      	ldr	r3, [sp, #112]	; 0x70
10005c64:	1d1a      	adds	r2, r3, #4
10005c66:	921c      	str	r2, [sp, #112]	; 0x70
10005c68:	1c7d      	adds	r5, r7, #1
10005c6a:	7818      	ldrb	r0, [r3, #0]
10005c6c:	9b0a      	ldr	r3, [sp, #40]	; 0x28
10005c6e:	003a      	movs	r2, r7
10005c70:	990b      	ldr	r1, [sp, #44]	; 0x2c
10005c72:	47a0      	blx	r4
10005c74:	4653      	mov	r3, sl
10005c76:	2b00      	cmp	r3, #0
10005c78:	d115      	bne.n	10005ca6 <_vsnprintf+0x492>
10005c7a:	9b11      	ldr	r3, [sp, #68]	; 0x44
10005c7c:	3301      	adds	r3, #1
10005c7e:	9311      	str	r3, [sp, #68]	; 0x44
10005c80:	002f      	movs	r7, r5
10005c82:	e5d7      	b.n	10005834 <_vsnprintf+0x20>
10005c84:	1c55      	adds	r5, r2, #1
10005c86:	9b0a      	ldr	r3, [sp, #40]	; 0x28
10005c88:	990b      	ldr	r1, [sp, #44]	; 0x2c
10005c8a:	2020      	movs	r0, #32
10005c8c:	47a0      	blx	r4
10005c8e:	0033      	movs	r3, r6
10005c90:	002a      	movs	r2, r5
10005c92:	1c5e      	adds	r6, r3, #1
10005c94:	429f      	cmp	r7, r3
10005c96:	d8f5      	bhi.n	10005c84 <_vsnprintf+0x470>
10005c98:	46bb      	mov	fp, r7
10005c9a:	0017      	movs	r7, r2
10005c9c:	e7e1      	b.n	10005c62 <_vsnprintf+0x44e>
10005c9e:	2301      	movs	r3, #1
10005ca0:	003a      	movs	r2, r7
10005ca2:	465f      	mov	r7, fp
10005ca4:	e7f5      	b.n	10005c92 <_vsnprintf+0x47e>
10005ca6:	002a      	movs	r2, r5
10005ca8:	46a0      	mov	r8, r4
10005caa:	465c      	mov	r4, fp
10005cac:	e006      	b.n	10005cbc <_vsnprintf+0x4a8>
10005cae:	1c57      	adds	r7, r2, #1
10005cb0:	9b0a      	ldr	r3, [sp, #40]	; 0x28
10005cb2:	990b      	ldr	r1, [sp, #44]	; 0x2c
10005cb4:	2020      	movs	r0, #32
10005cb6:	47c0      	blx	r8
10005cb8:	002e      	movs	r6, r5
10005cba:	003a      	movs	r2, r7
10005cbc:	1c75      	adds	r5, r6, #1
10005cbe:	42b4      	cmp	r4, r6
10005cc0:	d8f5      	bhi.n	10005cae <_vsnprintf+0x49a>
10005cc2:	0015      	movs	r5, r2
10005cc4:	4644      	mov	r4, r8
10005cc6:	e7d8      	b.n	10005c7a <_vsnprintf+0x466>
10005cc8:	9b1c      	ldr	r3, [sp, #112]	; 0x70
10005cca:	1d1a      	adds	r2, r3, #4
10005ccc:	921c      	str	r2, [sp, #112]	; 0x70
10005cce:	681b      	ldr	r3, [r3, #0]
10005cd0:	469a      	mov	sl, r3
10005cd2:	4643      	mov	r3, r8
10005cd4:	2b00      	cmp	r3, #0
10005cd6:	d100      	bne.n	10005cda <_vsnprintf+0x4c6>
10005cd8:	3b01      	subs	r3, #1
10005cda:	4655      	mov	r5, sl
10005cdc:	782a      	ldrb	r2, [r5, #0]
10005cde:	2a00      	cmp	r2, #0
10005ce0:	d005      	beq.n	10005cee <_vsnprintf+0x4da>
10005ce2:	1e5a      	subs	r2, r3, #1
10005ce4:	2b00      	cmp	r3, #0
10005ce6:	d002      	beq.n	10005cee <_vsnprintf+0x4da>
10005ce8:	3501      	adds	r5, #1
10005cea:	0013      	movs	r3, r2
10005cec:	e7f6      	b.n	10005cdc <_vsnprintf+0x4c8>
10005cee:	4653      	mov	r3, sl
10005cf0:	1aed      	subs	r5, r5, r3
10005cf2:	2380      	movs	r3, #128	; 0x80
10005cf4:	00db      	lsls	r3, r3, #3
10005cf6:	4033      	ands	r3, r6
10005cf8:	4699      	mov	r9, r3
10005cfa:	d002      	beq.n	10005d02 <_vsnprintf+0x4ee>
10005cfc:	4545      	cmp	r5, r8
10005cfe:	d900      	bls.n	10005d02 <_vsnprintf+0x4ee>
10005d00:	4645      	mov	r5, r8
10005d02:	2302      	movs	r3, #2
10005d04:	4033      	ands	r3, r6
10005d06:	9310      	str	r3, [sp, #64]	; 0x40
10005d08:	d008      	beq.n	10005d1c <_vsnprintf+0x508>
10005d0a:	003a      	movs	r2, r7
10005d0c:	4656      	mov	r6, sl
10005d0e:	0029      	movs	r1, r5
10005d10:	464d      	mov	r5, r9
10005d12:	0023      	movs	r3, r4
10005d14:	4644      	mov	r4, r8
10005d16:	4698      	mov	r8, r3
10005d18:	4689      	mov	r9, r1
10005d1a:	e01f      	b.n	10005d5c <_vsnprintf+0x548>
10005d1c:	003a      	movs	r2, r7
10005d1e:	0023      	movs	r3, r4
10005d20:	465c      	mov	r4, fp
10005d22:	469b      	mov	fp, r3
10005d24:	e006      	b.n	10005d34 <_vsnprintf+0x520>
10005d26:	1c57      	adds	r7, r2, #1
10005d28:	9b0a      	ldr	r3, [sp, #40]	; 0x28
10005d2a:	990b      	ldr	r1, [sp, #44]	; 0x2c
10005d2c:	2020      	movs	r0, #32
10005d2e:	47d8      	blx	fp
10005d30:	0035      	movs	r5, r6
10005d32:	003a      	movs	r2, r7
10005d34:	1c6e      	adds	r6, r5, #1
10005d36:	42ac      	cmp	r4, r5
10005d38:	d8f5      	bhi.n	10005d26 <_vsnprintf+0x512>
10005d3a:	0035      	movs	r5, r6
10005d3c:	465b      	mov	r3, fp
10005d3e:	46a3      	mov	fp, r4
10005d40:	4656      	mov	r6, sl
10005d42:	0029      	movs	r1, r5
10005d44:	464d      	mov	r5, r9
10005d46:	4644      	mov	r4, r8
10005d48:	4698      	mov	r8, r3
10005d4a:	4689      	mov	r9, r1
10005d4c:	e006      	b.n	10005d5c <_vsnprintf+0x548>
10005d4e:	001c      	movs	r4, r3
10005d50:	3601      	adds	r6, #1
10005d52:	1c57      	adds	r7, r2, #1
10005d54:	9b0a      	ldr	r3, [sp, #40]	; 0x28
10005d56:	990b      	ldr	r1, [sp, #44]	; 0x2c
10005d58:	47c0      	blx	r8
10005d5a:	003a      	movs	r2, r7
10005d5c:	7830      	ldrb	r0, [r6, #0]
10005d5e:	2800      	cmp	r0, #0
10005d60:	d004      	beq.n	10005d6c <_vsnprintf+0x558>
10005d62:	2d00      	cmp	r5, #0
10005d64:	d0f4      	beq.n	10005d50 <_vsnprintf+0x53c>
10005d66:	1e63      	subs	r3, r4, #1
10005d68:	2c00      	cmp	r4, #0
10005d6a:	d1f0      	bne.n	10005d4e <_vsnprintf+0x53a>
10005d6c:	0017      	movs	r7, r2
10005d6e:	464d      	mov	r5, r9
10005d70:	4644      	mov	r4, r8
10005d72:	9b10      	ldr	r3, [sp, #64]	; 0x40
10005d74:	2b00      	cmp	r3, #0
10005d76:	d103      	bne.n	10005d80 <_vsnprintf+0x56c>
10005d78:	9b11      	ldr	r3, [sp, #68]	; 0x44
10005d7a:	3301      	adds	r3, #1
10005d7c:	9311      	str	r3, [sp, #68]	; 0x44
10005d7e:	e559      	b.n	10005834 <_vsnprintf+0x20>
10005d80:	465c      	mov	r4, fp
10005d82:	e006      	b.n	10005d92 <_vsnprintf+0x57e>
10005d84:	1c57      	adds	r7, r2, #1
10005d86:	9b0a      	ldr	r3, [sp, #40]	; 0x28
10005d88:	990b      	ldr	r1, [sp, #44]	; 0x2c
10005d8a:	2020      	movs	r0, #32
10005d8c:	47c0      	blx	r8
10005d8e:	0035      	movs	r5, r6
10005d90:	003a      	movs	r2, r7
10005d92:	1c6e      	adds	r6, r5, #1
10005d94:	42ac      	cmp	r4, r5
10005d96:	d8f5      	bhi.n	10005d84 <_vsnprintf+0x570>
10005d98:	0017      	movs	r7, r2
10005d9a:	4644      	mov	r4, r8
10005d9c:	e7ec      	b.n	10005d78 <_vsnprintf+0x564>
10005d9e:	2321      	movs	r3, #33	; 0x21
10005da0:	4333      	orrs	r3, r6
10005da2:	9a1c      	ldr	r2, [sp, #112]	; 0x70
10005da4:	1d11      	adds	r1, r2, #4
10005da6:	911c      	str	r1, [sp, #112]	; 0x70
10005da8:	6812      	ldr	r2, [r2, #0]
10005daa:	9200      	str	r2, [sp, #0]
10005dac:	9305      	str	r3, [sp, #20]
10005dae:	2308      	movs	r3, #8
10005db0:	9304      	str	r3, [sp, #16]
10005db2:	4643      	mov	r3, r8
10005db4:	9303      	str	r3, [sp, #12]
10005db6:	2310      	movs	r3, #16
10005db8:	9302      	str	r3, [sp, #8]
10005dba:	2300      	movs	r3, #0
10005dbc:	9301      	str	r3, [sp, #4]
10005dbe:	9b0a      	ldr	r3, [sp, #40]	; 0x28
10005dc0:	003a      	movs	r2, r7
10005dc2:	990b      	ldr	r1, [sp, #44]	; 0x2c
10005dc4:	0020      	movs	r0, r4
10005dc6:	f7ff f8b3 	bl	10004f30 <_ntoa_long>
10005dca:	0007      	movs	r7, r0
10005dcc:	9b11      	ldr	r3, [sp, #68]	; 0x44
10005dce:	3301      	adds	r3, #1
10005dd0:	9311      	str	r3, [sp, #68]	; 0x44
10005dd2:	e52f      	b.n	10005834 <_vsnprintf+0x20>
10005dd4:	1c7d      	adds	r5, r7, #1
10005dd6:	9b0a      	ldr	r3, [sp, #40]	; 0x28
10005dd8:	003a      	movs	r2, r7
10005dda:	990b      	ldr	r1, [sp, #44]	; 0x2c
10005ddc:	2025      	movs	r0, #37	; 0x25
10005dde:	47a0      	blx	r4
10005de0:	9b11      	ldr	r3, [sp, #68]	; 0x44
10005de2:	3301      	adds	r3, #1
10005de4:	9311      	str	r3, [sp, #68]	; 0x44
10005de6:	002f      	movs	r7, r5
10005de8:	e524      	b.n	10005834 <_vsnprintf+0x20>
10005dea:	1c7d      	adds	r5, r7, #1
10005dec:	9b0a      	ldr	r3, [sp, #40]	; 0x28
10005dee:	003a      	movs	r2, r7
10005df0:	990b      	ldr	r1, [sp, #44]	; 0x2c
10005df2:	47a0      	blx	r4
10005df4:	9b11      	ldr	r3, [sp, #68]	; 0x44
10005df6:	3301      	adds	r3, #1
10005df8:	9311      	str	r3, [sp, #68]	; 0x44
10005dfa:	002f      	movs	r7, r5
10005dfc:	e51a      	b.n	10005834 <_vsnprintf+0x20>
10005dfe:	4b0b      	ldr	r3, [pc, #44]	; (10005e2c <_vsnprintf+0x618>)
10005e00:	469b      	mov	fp, r3
10005e02:	e515      	b.n	10005830 <_vsnprintf+0x1c>
10005e04:	46a3      	mov	fp, r4
10005e06:	9b0a      	ldr	r3, [sp, #40]	; 0x28
10005e08:	429f      	cmp	r7, r3
10005e0a:	d30c      	bcc.n	10005e26 <_vsnprintf+0x612>
10005e0c:	1e5a      	subs	r2, r3, #1
10005e0e:	9b0a      	ldr	r3, [sp, #40]	; 0x28
10005e10:	990b      	ldr	r1, [sp, #44]	; 0x2c
10005e12:	2000      	movs	r0, #0
10005e14:	47d8      	blx	fp
10005e16:	0038      	movs	r0, r7
10005e18:	b013      	add	sp, #76	; 0x4c
10005e1a:	bc3c      	pop	{r2, r3, r4, r5}
10005e1c:	4690      	mov	r8, r2
10005e1e:	4699      	mov	r9, r3
10005e20:	46a2      	mov	sl, r4
10005e22:	46ab      	mov	fp, r5
10005e24:	bdf0      	pop	{r4, r5, r6, r7, pc}
10005e26:	003a      	movs	r2, r7
10005e28:	e7f1      	b.n	10005e0e <_vsnprintf+0x5fa>
10005e2a:	46c0      	nop			; (mov r8, r8)
10005e2c:	10004d61 	.word	0x10004d61

10005e30 <vfctprintf>:
10005e30:	b500      	push	{lr}
10005e32:	b085      	sub	sp, #20
10005e34:	9002      	str	r0, [sp, #8]
10005e36:	9103      	str	r1, [sp, #12]
10005e38:	2101      	movs	r1, #1
10005e3a:	9300      	str	r3, [sp, #0]
10005e3c:	0013      	movs	r3, r2
10005e3e:	424a      	negs	r2, r1
10005e40:	a902      	add	r1, sp, #8
10005e42:	4802      	ldr	r0, [pc, #8]	; (10005e4c <vfctprintf+0x1c>)
10005e44:	f7ff fce6 	bl	10005814 <_vsnprintf>
10005e48:	b005      	add	sp, #20
10005e4a:	bd00      	pop	{pc}
10005e4c:	10004d63 	.word	0x10004d63

10005e50 <__aeabi_bits_init>:
10005e50:	4801      	ldr	r0, [pc, #4]	; (10005e58 <__aeabi_bits_init+0x8>)
10005e52:	2104      	movs	r1, #4
10005e54:	4b01      	ldr	r3, [pc, #4]	; (10005e5c <__aeabi_bits_init+0xc>)
10005e56:	4718      	bx	r3
10005e58:	20008480 	.word	0x20008480
10005e5c:	10005e81 	.word	0x10005e81

10005e60 <rom_func_lookup>:
10005e60:	b510      	push	{r4, lr}
10005e62:	0001      	movs	r1, r0
10005e64:	2318      	movs	r3, #24
10005e66:	881b      	ldrh	r3, [r3, #0]
10005e68:	2214      	movs	r2, #20
10005e6a:	8810      	ldrh	r0, [r2, #0]
10005e6c:	4798      	blx	r3
10005e6e:	bd10      	pop	{r4, pc}

10005e70 <rom_data_lookup>:
10005e70:	b510      	push	{r4, lr}
10005e72:	0001      	movs	r1, r0
10005e74:	2318      	movs	r3, #24
10005e76:	881b      	ldrh	r3, [r3, #0]
10005e78:	2216      	movs	r2, #22
10005e7a:	8810      	ldrh	r0, [r2, #0]
10005e7c:	4798      	blx	r3
10005e7e:	bd10      	pop	{r4, pc}

10005e80 <rom_funcs_lookup>:
10005e80:	b5f0      	push	{r4, r5, r6, r7, lr}
10005e82:	46c6      	mov	lr, r8
10005e84:	b500      	push	{lr}
10005e86:	0007      	movs	r7, r0
10005e88:	000e      	movs	r6, r1
10005e8a:	2500      	movs	r5, #0
10005e8c:	2301      	movs	r3, #1
10005e8e:	4698      	mov	r8, r3
10005e90:	e000      	b.n	10005e94 <rom_funcs_lookup+0x14>
10005e92:	3501      	adds	r5, #1
10005e94:	42b5      	cmp	r5, r6
10005e96:	d20a      	bcs.n	10005eae <rom_funcs_lookup+0x2e>
10005e98:	00ac      	lsls	r4, r5, #2
10005e9a:	193c      	adds	r4, r7, r4
10005e9c:	6820      	ldr	r0, [r4, #0]
10005e9e:	f7ff ffdf 	bl	10005e60 <rom_func_lookup>
10005ea2:	6020      	str	r0, [r4, #0]
10005ea4:	2800      	cmp	r0, #0
10005ea6:	d1f4      	bne.n	10005e92 <rom_funcs_lookup+0x12>
10005ea8:	2300      	movs	r3, #0
10005eaa:	4698      	mov	r8, r3
10005eac:	e7f1      	b.n	10005e92 <rom_funcs_lookup+0x12>
10005eae:	4640      	mov	r0, r8
10005eb0:	bc04      	pop	{r2}
10005eb2:	4690      	mov	r8, r2
10005eb4:	bdf0      	pop	{r4, r5, r6, r7, pc}
	...

10005eb8 <__wrap___aeabi_idiv>:
10005eb8:	4a12      	ldr	r2, [pc, #72]	; (10005f04 <divmod_s32s32_savestate+0x18>)
10005eba:	6f93      	ldr	r3, [r2, #120]	; 0x78
10005ebc:	089b      	lsrs	r3, r3, #2
10005ebe:	d215      	bcs.n	10005eec <divmod_s32s32_savestate>

10005ec0 <divmod_s32s32_unsafe>:
10005ec0:	6690      	str	r0, [r2, #104]	; 0x68
10005ec2:	66d1      	str	r1, [r2, #108]	; 0x6c
10005ec4:	2900      	cmp	r1, #0
10005ec6:	d005      	beq.n	10005ed4 <divmod_s32s32_unsafe+0x14>
10005ec8:	e7ff      	b.n	10005eca <divmod_s32s32_unsafe+0xa>
10005eca:	e7ff      	b.n	10005ecc <divmod_s32s32_unsafe+0xc>
10005ecc:	e7ff      	b.n	10005ece <divmod_s32s32_unsafe+0xe>
10005ece:	6f51      	ldr	r1, [r2, #116]	; 0x74
10005ed0:	6f10      	ldr	r0, [r2, #112]	; 0x70
10005ed2:	4770      	bx	lr
10005ed4:	b504      	push	{r2, lr}
10005ed6:	2180      	movs	r1, #128	; 0x80
10005ed8:	0609      	lsls	r1, r1, #24
10005eda:	17c2      	asrs	r2, r0, #31
10005edc:	4051      	eors	r1, r2
10005ede:	2800      	cmp	r0, #0
10005ee0:	d000      	beq.n	10005ee4 <divmod_s32s32_unsafe+0x24>
10005ee2:	43c8      	mvns	r0, r1
10005ee4:	f003 ff38 	bl	10009d58 <____aeabi_idiv0_veneer>
10005ee8:	2100      	movs	r1, #0
10005eea:	bd04      	pop	{r2, pc}

10005eec <divmod_s32s32_savestate>:
10005eec:	b5f0      	push	{r4, r5, r6, r7, lr}
10005eee:	6e14      	ldr	r4, [r2, #96]	; 0x60
10005ef0:	6e55      	ldr	r5, [r2, #100]	; 0x64
10005ef2:	6f57      	ldr	r7, [r2, #116]	; 0x74
10005ef4:	6f16      	ldr	r6, [r2, #112]	; 0x70
10005ef6:	f7ff ffe3 	bl	10005ec0 <divmod_s32s32_unsafe>
10005efa:	6614      	str	r4, [r2, #96]	; 0x60
10005efc:	6655      	str	r5, [r2, #100]	; 0x64
10005efe:	6757      	str	r7, [r2, #116]	; 0x74
10005f00:	6716      	str	r6, [r2, #112]	; 0x70
10005f02:	bdf0      	pop	{r4, r5, r6, r7, pc}
10005f04:	d0000000 	.word	0xd0000000

10005f08 <__wrap___aeabi_uidiv>:
10005f08:	4a11      	ldr	r2, [pc, #68]	; (10005f50 <divmod_u32u32_savestate+0x18>)
10005f0a:	6f93      	ldr	r3, [r2, #120]	; 0x78
10005f0c:	089b      	lsrs	r3, r3, #2
10005f0e:	d213      	bcs.n	10005f38 <divmod_u32u32_savestate>

10005f10 <divmod_u32u32_unsafe>:
10005f10:	6610      	str	r0, [r2, #96]	; 0x60
10005f12:	6651      	str	r1, [r2, #100]	; 0x64
10005f14:	2900      	cmp	r1, #0
10005f16:	d005      	beq.n	10005f24 <divmod_u32u32_unsafe+0x14>
10005f18:	e7ff      	b.n	10005f1a <divmod_u32u32_unsafe+0xa>
10005f1a:	e7ff      	b.n	10005f1c <divmod_u32u32_unsafe+0xc>
10005f1c:	e7ff      	b.n	10005f1e <divmod_u32u32_unsafe+0xe>
10005f1e:	6f51      	ldr	r1, [r2, #116]	; 0x74
10005f20:	6f10      	ldr	r0, [r2, #112]	; 0x70
10005f22:	4770      	bx	lr
10005f24:	b504      	push	{r2, lr}
10005f26:	2800      	cmp	r0, #0
10005f28:	d001      	beq.n	10005f2e <divmod_u32u32_unsafe+0x1e>
10005f2a:	2000      	movs	r0, #0
10005f2c:	43c0      	mvns	r0, r0
10005f2e:	f003 ff13 	bl	10009d58 <____aeabi_idiv0_veneer>
10005f32:	2100      	movs	r1, #0
10005f34:	bd04      	pop	{r2, pc}
10005f36:	46c0      	nop			; (mov r8, r8)

10005f38 <divmod_u32u32_savestate>:
10005f38:	b5f0      	push	{r4, r5, r6, r7, lr}
10005f3a:	6e14      	ldr	r4, [r2, #96]	; 0x60
10005f3c:	6e55      	ldr	r5, [r2, #100]	; 0x64
10005f3e:	6f57      	ldr	r7, [r2, #116]	; 0x74
10005f40:	6f16      	ldr	r6, [r2, #112]	; 0x70
10005f42:	f7ff ffe5 	bl	10005f10 <divmod_u32u32_unsafe>
10005f46:	6614      	str	r4, [r2, #96]	; 0x60
10005f48:	6655      	str	r5, [r2, #100]	; 0x64
10005f4a:	6757      	str	r7, [r2, #116]	; 0x74
10005f4c:	6716      	str	r6, [r2, #112]	; 0x70
10005f4e:	bdf0      	pop	{r4, r5, r6, r7, pc}
10005f50:	d0000000 	.word	0xd0000000

10005f54 <__wrap___aeabi_ldivmod>:
10005f54:	4694      	mov	ip, r2
10005f56:	4a4e      	ldr	r2, [pc, #312]	; (10006090 <udiv0+0x1a>)
10005f58:	6f92      	ldr	r2, [r2, #120]	; 0x78
10005f5a:	0892      	lsrs	r2, r2, #2
10005f5c:	4662      	mov	r2, ip
10005f5e:	d201      	bcs.n	10005f64 <divmod_s64s64_savestate>
10005f60:	e030      	b.n	10005fc4 <divmod_s64s64_unsafe>
10005f62:	46c0      	nop			; (mov r8, r8)

10005f64 <divmod_s64s64_savestate>:
10005f64:	b5f0      	push	{r4, r5, r6, r7, lr}
10005f66:	4e4a      	ldr	r6, [pc, #296]	; (10006090 <udiv0+0x1a>)
10005f68:	6fb5      	ldr	r5, [r6, #120]	; 0x78
10005f6a:	086d      	lsrs	r5, r5, #1
10005f6c:	d3fc      	bcc.n	10005f68 <divmod_s64s64_savestate+0x4>
10005f6e:	6e34      	ldr	r4, [r6, #96]	; 0x60
10005f70:	6e75      	ldr	r5, [r6, #100]	; 0x64
10005f72:	6f77      	ldr	r7, [r6, #116]	; 0x74
10005f74:	6f36      	ldr	r6, [r6, #112]	; 0x70
10005f76:	f000 f825 	bl	10005fc4 <divmod_s64s64_unsafe>
10005f7a:	4694      	mov	ip, r2
10005f7c:	4a44      	ldr	r2, [pc, #272]	; (10006090 <udiv0+0x1a>)
10005f7e:	6614      	str	r4, [r2, #96]	; 0x60
10005f80:	6655      	str	r5, [r2, #100]	; 0x64
10005f82:	6757      	str	r7, [r2, #116]	; 0x74
10005f84:	6716      	str	r6, [r2, #112]	; 0x70
10005f86:	4662      	mov	r2, ip
10005f88:	bdf0      	pop	{r4, r5, r6, r7, pc}
10005f8a:	46c0      	nop			; (mov r8, r8)

10005f8c <__wrap___aeabi_uldivmod>:
10005f8c:	4694      	mov	ip, r2
10005f8e:	4a40      	ldr	r2, [pc, #256]	; (10006090 <udiv0+0x1a>)
10005f90:	6f92      	ldr	r2, [r2, #120]	; 0x78
10005f92:	0892      	lsrs	r2, r2, #2
10005f94:	4662      	mov	r2, ip
10005f96:	d201      	bcs.n	10005f9c <divmod_u64u64_savestate>
10005f98:	e058      	b.n	1000604c <divmod_u64u64_unsafe>
10005f9a:	46c0      	nop			; (mov r8, r8)

10005f9c <divmod_u64u64_savestate>:
10005f9c:	b5f0      	push	{r4, r5, r6, r7, lr}
10005f9e:	4e3c      	ldr	r6, [pc, #240]	; (10006090 <udiv0+0x1a>)
10005fa0:	6fb5      	ldr	r5, [r6, #120]	; 0x78
10005fa2:	086d      	lsrs	r5, r5, #1
10005fa4:	d3fc      	bcc.n	10005fa0 <divmod_u64u64_savestate+0x4>
10005fa6:	6e34      	ldr	r4, [r6, #96]	; 0x60
10005fa8:	6e75      	ldr	r5, [r6, #100]	; 0x64
10005faa:	6f77      	ldr	r7, [r6, #116]	; 0x74
10005fac:	6f36      	ldr	r6, [r6, #112]	; 0x70
10005fae:	f000 f84d 	bl	1000604c <divmod_u64u64_unsafe>
10005fb2:	4694      	mov	ip, r2
10005fb4:	4a36      	ldr	r2, [pc, #216]	; (10006090 <udiv0+0x1a>)
10005fb6:	6614      	str	r4, [r2, #96]	; 0x60
10005fb8:	6655      	str	r5, [r2, #100]	; 0x64
10005fba:	6757      	str	r7, [r2, #116]	; 0x74
10005fbc:	6716      	str	r6, [r2, #112]	; 0x70
10005fbe:	4662      	mov	r2, ip
10005fc0:	bdf0      	pop	{r4, r5, r6, r7, pc}
10005fc2:	46c0      	nop			; (mov r8, r8)

10005fc4 <divmod_s64s64_unsafe>:
10005fc4:	2b00      	cmp	r3, #0
10005fc6:	db24      	blt.n	10006012 <l41_1+0x26>
10005fc8:	d011      	beq.n	10005fee <l41_1+0x2>
10005fca:	2900      	cmp	r1, #0
10005fcc:	da3e      	bge.n	1000604c <divmod_u64u64_unsafe>
10005fce:	b500      	push	{lr}
10005fd0:	43c9      	mvns	r1, r1
10005fd2:	4240      	negs	r0, r0
10005fd4:	d100      	bne.n	10005fd8 <l39_1>
10005fd6:	3101      	adds	r1, #1

10005fd8 <l39_1>:
10005fd8:	f000 f838 	bl	1000604c <divmod_u64u64_unsafe>
10005fdc:	43c9      	mvns	r1, r1
10005fde:	4240      	negs	r0, r0
10005fe0:	d100      	bne.n	10005fe4 <l40_1>
10005fe2:	3101      	adds	r1, #1

10005fe4 <l40_1>:
10005fe4:	43db      	mvns	r3, r3
10005fe6:	4252      	negs	r2, r2
10005fe8:	d100      	bne.n	10005fec <l41_1>
10005fea:	3301      	adds	r3, #1

10005fec <l41_1>:
10005fec:	bd00      	pop	{pc}
10005fee:	2a00      	cmp	r2, #0
10005ff0:	d1eb      	bne.n	10005fca <divmod_s64s64_unsafe+0x6>
10005ff2:	2800      	cmp	r0, #0
10005ff4:	d101      	bne.n	10005ffa <l41_1+0xe>
10005ff6:	2900      	cmp	r1, #0
10005ff8:	d005      	beq.n	10006006 <l41_1+0x1a>
10005ffa:	2000      	movs	r0, #0
10005ffc:	0fc9      	lsrs	r1, r1, #31
10005ffe:	07c9      	lsls	r1, r1, #31
10006000:	d101      	bne.n	10006006 <l41_1+0x1a>
10006002:	43c0      	mvns	r0, r0
10006004:	0841      	lsrs	r1, r0, #1
10006006:	b500      	push	{lr}
10006008:	f003 fe9e 	bl	10009d48 <____aeabi_ldiv0_veneer>
1000600c:	2200      	movs	r2, #0
1000600e:	2300      	movs	r3, #0
10006010:	bd00      	pop	{pc}
10006012:	b500      	push	{lr}
10006014:	2900      	cmp	r1, #0
10006016:	db0a      	blt.n	1000602e <l43_1+0x2>
10006018:	43db      	mvns	r3, r3
1000601a:	4252      	negs	r2, r2
1000601c:	d100      	bne.n	10006020 <l42_1>
1000601e:	3301      	adds	r3, #1

10006020 <l42_1>:
10006020:	f000 f814 	bl	1000604c <divmod_u64u64_unsafe>
10006024:	43c9      	mvns	r1, r1
10006026:	4240      	negs	r0, r0
10006028:	d100      	bne.n	1000602c <l43_1>
1000602a:	3101      	adds	r1, #1

1000602c <l43_1>:
1000602c:	bd00      	pop	{pc}
1000602e:	43c9      	mvns	r1, r1
10006030:	4240      	negs	r0, r0
10006032:	d100      	bne.n	10006036 <l44_1>
10006034:	3101      	adds	r1, #1

10006036 <l44_1>:
10006036:	43db      	mvns	r3, r3
10006038:	4252      	negs	r2, r2
1000603a:	d100      	bne.n	1000603e <l45_1>
1000603c:	3301      	adds	r3, #1

1000603e <l45_1>:
1000603e:	f000 f805 	bl	1000604c <divmod_u64u64_unsafe>
10006042:	43db      	mvns	r3, r3
10006044:	4252      	negs	r2, r2
10006046:	d100      	bne.n	1000604a <l46_1>
10006048:	3301      	adds	r3, #1

1000604a <l46_1>:
1000604a:	bd00      	pop	{pc}

1000604c <divmod_u64u64_unsafe>:
1000604c:	2900      	cmp	r1, #0
1000604e:	d123      	bne.n	10006098 <y64>
10006050:	2b00      	cmp	r3, #0
10006052:	d118      	bne.n	10006086 <udiv0+0x10>
10006054:	2a00      	cmp	r2, #0
10006056:	d00c      	beq.n	10006072 <divmod_u64u64_unsafe+0x26>
10006058:	46bc      	mov	ip, r7
1000605a:	4f0d      	ldr	r7, [pc, #52]	; (10006090 <udiv0+0x1a>)
1000605c:	6638      	str	r0, [r7, #96]	; 0x60
1000605e:	667a      	str	r2, [r7, #100]	; 0x64
10006060:	2100      	movs	r1, #0
10006062:	2300      	movs	r3, #0
10006064:	e7ff      	b.n	10006066 <divmod_u64u64_unsafe+0x1a>
10006066:	e7ff      	b.n	10006068 <divmod_u64u64_unsafe+0x1c>
10006068:	e7ff      	b.n	1000606a <divmod_u64u64_unsafe+0x1e>
1000606a:	6f7a      	ldr	r2, [r7, #116]	; 0x74
1000606c:	6f38      	ldr	r0, [r7, #112]	; 0x70
1000606e:	4667      	mov	r7, ip
10006070:	4770      	bx	lr
10006072:	2800      	cmp	r0, #0
10006074:	d001      	beq.n	1000607a <udiv0+0x4>

10006076 <udiv0>:
10006076:	4807      	ldr	r0, [pc, #28]	; (10006094 <udiv0+0x1e>)
10006078:	0001      	movs	r1, r0
1000607a:	b500      	push	{lr}
1000607c:	f003 fe64 	bl	10009d48 <____aeabi_ldiv0_veneer>
10006080:	2200      	movs	r2, #0
10006082:	2300      	movs	r3, #0
10006084:	bd00      	pop	{pc}
10006086:	0002      	movs	r2, r0
10006088:	000b      	movs	r3, r1
1000608a:	2000      	movs	r0, #0
1000608c:	2100      	movs	r1, #0
1000608e:	4770      	bx	lr
10006090:	d0000000 	.word	0xd0000000
10006094:	ffffffff 	.word	0xffffffff

10006098 <y64>:
10006098:	2b00      	cmp	r3, #0
1000609a:	d000      	beq.n	1000609e <y64+0x6>
1000609c:	e0bf      	b.n	1000621e <y64_x48>
1000609e:	0c13      	lsrs	r3, r2, #16
100060a0:	d128      	bne.n	100060f4 <y64_x32>
100060a2:	2a00      	cmp	r2, #0
100060a4:	d0e7      	beq.n	10006076 <udiv0>
100060a6:	b480      	push	{r7}
100060a8:	4f11      	ldr	r7, [pc, #68]	; (100060f0 <y64+0x58>)
100060aa:	6639      	str	r1, [r7, #96]	; 0x60
100060ac:	667a      	str	r2, [r7, #100]	; 0x64
100060ae:	e7ff      	b.n	100060b0 <y64+0x18>
100060b0:	e7ff      	b.n	100060b2 <y64+0x1a>
100060b2:	b430      	push	{r4, r5}
100060b4:	0c04      	lsrs	r4, r0, #16
100060b6:	6f7b      	ldr	r3, [r7, #116]	; 0x74
100060b8:	6f39      	ldr	r1, [r7, #112]	; 0x70
100060ba:	041b      	lsls	r3, r3, #16
100060bc:	4323      	orrs	r3, r4
100060be:	663b      	str	r3, [r7, #96]	; 0x60
100060c0:	667a      	str	r2, [r7, #100]	; 0x64
100060c2:	e7ff      	b.n	100060c4 <y64+0x2c>
100060c4:	e7ff      	b.n	100060c6 <y64+0x2e>
100060c6:	e7ff      	b.n	100060c8 <y64+0x30>
100060c8:	46c0      	nop			; (mov r8, r8)
100060ca:	b284      	uxth	r4, r0
100060cc:	6f7b      	ldr	r3, [r7, #116]	; 0x74
100060ce:	6f3d      	ldr	r5, [r7, #112]	; 0x70
100060d0:	041b      	lsls	r3, r3, #16
100060d2:	4323      	orrs	r3, r4
100060d4:	663b      	str	r3, [r7, #96]	; 0x60
100060d6:	667a      	str	r2, [r7, #100]	; 0x64
100060d8:	e7ff      	b.n	100060da <y64+0x42>
100060da:	e7ff      	b.n	100060dc <y64+0x44>
100060dc:	46c0      	nop			; (mov r8, r8)
100060de:	2300      	movs	r3, #0
100060e0:	042c      	lsls	r4, r5, #16
100060e2:	0c2d      	lsrs	r5, r5, #16
100060e4:	6f7a      	ldr	r2, [r7, #116]	; 0x74
100060e6:	6f38      	ldr	r0, [r7, #112]	; 0x70
100060e8:	1900      	adds	r0, r0, r4
100060ea:	4169      	adcs	r1, r5
100060ec:	bcb0      	pop	{r4, r5, r7}
100060ee:	4770      	bx	lr
100060f0:	d0000000 	.word	0xd0000000

100060f4 <y64_x32>:
100060f4:	b5f0      	push	{r4, r5, r6, r7, lr}
100060f6:	4694      	mov	ip, r2
100060f8:	2500      	movs	r5, #0
100060fa:	0e14      	lsrs	r4, r2, #24
100060fc:	d101      	bne.n	10006102 <y64_x32+0xe>
100060fe:	0212      	lsls	r2, r2, #8
10006100:	3508      	adds	r5, #8
10006102:	0f14      	lsrs	r4, r2, #28
10006104:	d101      	bne.n	1000610a <y64_x32+0x16>
10006106:	0112      	lsls	r2, r2, #4
10006108:	3504      	adds	r5, #4
1000610a:	0f94      	lsrs	r4, r2, #30
1000610c:	d101      	bne.n	10006112 <y64_x32+0x1e>
1000610e:	0092      	lsls	r2, r2, #2
10006110:	3502      	adds	r5, #2
10006112:	0fd4      	lsrs	r4, r2, #31
10006114:	d101      	bne.n	1000611a <y64_x32+0x26>
10006116:	0052      	lsls	r2, r2, #1
10006118:	3501      	adds	r5, #1
1000611a:	0bd4      	lsrs	r4, r2, #15
1000611c:	3401      	adds	r4, #1
1000611e:	4f25      	ldr	r7, [pc, #148]	; (100061b4 <y64_x32+0xc0>)
10006120:	667c      	str	r4, [r7, #100]	; 0x64
10006122:	4c25      	ldr	r4, [pc, #148]	; (100061b8 <y64_x32+0xc4>)
10006124:	663c      	str	r4, [r7, #96]	; 0x60
10006126:	0c0e      	lsrs	r6, r1, #16
10006128:	b293      	uxth	r3, r2
1000612a:	e7ff      	b.n	1000612c <y64_x32+0x38>
1000612c:	e7ff      	b.n	1000612e <y64_x32+0x3a>
1000612e:	e7ff      	b.n	10006130 <y64_x32+0x3c>
10006130:	6f3c      	ldr	r4, [r7, #112]	; 0x70
10006132:	4366      	muls	r6, r4
10006134:	0c36      	lsrs	r6, r6, #16
10006136:	0377      	lsls	r7, r6, #13
10006138:	46be      	mov	lr, r7
1000613a:	4373      	muls	r3, r6
1000613c:	0bdf      	lsrs	r7, r3, #15
1000613e:	045b      	lsls	r3, r3, #17
10006140:	1ac0      	subs	r0, r0, r3
10006142:	41b9      	sbcs	r1, r7
10006144:	0c13      	lsrs	r3, r2, #16
10006146:	4373      	muls	r3, r6
10006148:	18db      	adds	r3, r3, r3
1000614a:	1ac9      	subs	r1, r1, r3
1000614c:	08ce      	lsrs	r6, r1, #3
1000614e:	4366      	muls	r6, r4
10006150:	0c36      	lsrs	r6, r6, #16
10006152:	44b6      	add	lr, r6
10006154:	b293      	uxth	r3, r2
10006156:	4373      	muls	r3, r6
10006158:	0f1f      	lsrs	r7, r3, #28
1000615a:	011b      	lsls	r3, r3, #4
1000615c:	1ac0      	subs	r0, r0, r3
1000615e:	41b9      	sbcs	r1, r7
10006160:	0c13      	lsrs	r3, r2, #16
10006162:	4373      	muls	r3, r6
10006164:	0b1f      	lsrs	r7, r3, #12
10006166:	051b      	lsls	r3, r3, #20
10006168:	1ac0      	subs	r0, r0, r3
1000616a:	41b9      	sbcs	r1, r7
1000616c:	0d86      	lsrs	r6, r0, #22
1000616e:	028f      	lsls	r7, r1, #10
10006170:	433e      	orrs	r6, r7
10006172:	4366      	muls	r6, r4
10006174:	0c36      	lsrs	r6, r6, #16
10006176:	2d09      	cmp	r5, #9
10006178:	db24      	blt.n	100061c4 <last0>
1000617a:	0a52      	lsrs	r2, r2, #9
1000617c:	4372      	muls	r2, r6
1000617e:	1a80      	subs	r0, r0, r2
10006180:	0377      	lsls	r7, r6, #13
10006182:	0a46      	lsrs	r6, r0, #9
10006184:	4366      	muls	r6, r4
10006186:	0c36      	lsrs	r6, r6, #16
10006188:	2316      	movs	r3, #22
1000618a:	1b5b      	subs	r3, r3, r5
1000618c:	40de      	lsrs	r6, r3
1000618e:	40df      	lsrs	r7, r3
10006190:	19bf      	adds	r7, r7, r6
10006192:	4664      	mov	r4, ip
10006194:	4366      	muls	r6, r4
10006196:	1b82      	subs	r2, r0, r6
10006198:	4670      	mov	r0, lr
1000619a:	3504      	adds	r5, #4
1000619c:	3306      	adds	r3, #6
1000619e:	0001      	movs	r1, r0
100061a0:	40d9      	lsrs	r1, r3
100061a2:	40a8      	lsls	r0, r5
100061a4:	19c0      	adds	r0, r0, r7
100061a6:	d300      	bcc.n	100061aa <y64_x32+0xb6>
100061a8:	3101      	adds	r1, #1
100061aa:	42a2      	cmp	r2, r4
100061ac:	d206      	bcs.n	100061bc <y64_x32+0xc8>
100061ae:	2300      	movs	r3, #0
100061b0:	bdf0      	pop	{r4, r5, r6, r7, pc}
100061b2:	0000      	.short	0x0000
100061b4:	d0000000 	.word	0xd0000000
100061b8:	ffffffff 	.word	0xffffffff
100061bc:	1b12      	subs	r2, r2, r4
100061be:	3001      	adds	r0, #1
100061c0:	d3f3      	bcc.n	100061aa <y64_x32+0xb6>
100061c2:	e7f1      	b.n	100061a8 <y64_x32+0xb4>

100061c4 <last0>:
100061c4:	2709      	movs	r7, #9
100061c6:	1b7f      	subs	r7, r7, r5
100061c8:	40fe      	lsrs	r6, r7
100061ca:	4664      	mov	r4, ip
100061cc:	b2a2      	uxth	r2, r4
100061ce:	4372      	muls	r2, r6
100061d0:	1a80      	subs	r0, r0, r2
100061d2:	d200      	bcs.n	100061d6 <last0+0x12>
100061d4:	3901      	subs	r1, #1
100061d6:	0c22      	lsrs	r2, r4, #16
100061d8:	4372      	muls	r2, r6
100061da:	0c13      	lsrs	r3, r2, #16
100061dc:	0412      	lsls	r2, r2, #16
100061de:	1a82      	subs	r2, r0, r2
100061e0:	4199      	sbcs	r1, r3
100061e2:	000b      	movs	r3, r1
100061e4:	4670      	mov	r0, lr
100061e6:	3504      	adds	r5, #4
100061e8:	3713      	adds	r7, #19
100061ea:	0001      	movs	r1, r0
100061ec:	40f9      	lsrs	r1, r7
100061ee:	40a8      	lsls	r0, r5
100061f0:	1980      	adds	r0, r0, r6
100061f2:	d300      	bcc.n	100061f6 <last0+0x32>
100061f4:	3101      	adds	r1, #1
100061f6:	2b00      	cmp	r3, #0
100061f8:	d102      	bne.n	10006200 <last0+0x3c>
100061fa:	42a2      	cmp	r2, r4
100061fc:	d20a      	bcs.n	10006214 <last0+0x50>
100061fe:	bdf0      	pop	{r4, r5, r6, r7, pc}
10006200:	3001      	adds	r0, #1
10006202:	d300      	bcc.n	10006206 <last0+0x42>
10006204:	3101      	adds	r1, #1
10006206:	1b12      	subs	r2, r2, r4
10006208:	d2fa      	bcs.n	10006200 <last0+0x3c>
1000620a:	3b01      	subs	r3, #1
1000620c:	d1f8      	bne.n	10006200 <last0+0x3c>
1000620e:	42a2      	cmp	r2, r4
10006210:	d200      	bcs.n	10006214 <last0+0x50>
10006212:	bdf0      	pop	{r4, r5, r6, r7, pc}
10006214:	3001      	adds	r0, #1
10006216:	d300      	bcc.n	1000621a <last0+0x56>
10006218:	3101      	adds	r1, #1
1000621a:	1b12      	subs	r2, r2, r4
1000621c:	e7f7      	b.n	1000620e <last0+0x4a>

1000621e <y64_x48>:
1000621e:	b5f0      	push	{r4, r5, r6, r7, lr}
10006220:	0c1c      	lsrs	r4, r3, #16
10006222:	d000      	beq.n	10006226 <y64_x48+0x8>
10006224:	e080      	b.n	10006328 <y64_x64>
10006226:	b40c      	push	{r2, r3}
10006228:	2500      	movs	r5, #0
1000622a:	0a1c      	lsrs	r4, r3, #8
1000622c:	d104      	bne.n	10006238 <y64_x48+0x1a>
1000622e:	021b      	lsls	r3, r3, #8
10006230:	0e16      	lsrs	r6, r2, #24
10006232:	4333      	orrs	r3, r6
10006234:	0212      	lsls	r2, r2, #8
10006236:	3508      	adds	r5, #8
10006238:	0b1c      	lsrs	r4, r3, #12
1000623a:	d104      	bne.n	10006246 <y64_x48+0x28>
1000623c:	011b      	lsls	r3, r3, #4
1000623e:	0f16      	lsrs	r6, r2, #28
10006240:	4333      	orrs	r3, r6
10006242:	0112      	lsls	r2, r2, #4
10006244:	3504      	adds	r5, #4
10006246:	0b9c      	lsrs	r4, r3, #14
10006248:	d104      	bne.n	10006254 <y64_x48+0x36>
1000624a:	009b      	lsls	r3, r3, #2
1000624c:	0f96      	lsrs	r6, r2, #30
1000624e:	4333      	orrs	r3, r6
10006250:	0092      	lsls	r2, r2, #2
10006252:	3502      	adds	r5, #2
10006254:	0bdc      	lsrs	r4, r3, #15
10006256:	d102      	bne.n	1000625e <y64_x48+0x40>
10006258:	1892      	adds	r2, r2, r2
1000625a:	415b      	adcs	r3, r3
1000625c:	3501      	adds	r5, #1
1000625e:	001c      	movs	r4, r3
10006260:	1897      	adds	r7, r2, r2
10006262:	4164      	adcs	r4, r4
10006264:	3401      	adds	r4, #1
10006266:	4f46      	ldr	r7, [pc, #280]	; (10006380 <y64_x64+0x58>)
10006268:	667c      	str	r4, [r7, #100]	; 0x64
1000626a:	4c46      	ldr	r4, [pc, #280]	; (10006384 <y64_x64+0x5c>)
1000626c:	663c      	str	r4, [r7, #96]	; 0x60
1000626e:	0c0e      	lsrs	r6, r1, #16
10006270:	e7ff      	b.n	10006272 <y64_x48+0x54>
10006272:	e7ff      	b.n	10006274 <y64_x48+0x56>
10006274:	e7ff      	b.n	10006276 <y64_x48+0x58>
10006276:	46c0      	nop			; (mov r8, r8)
10006278:	6f3c      	ldr	r4, [r7, #112]	; 0x70
1000627a:	4366      	muls	r6, r4
1000627c:	0c36      	lsrs	r6, r6, #16
1000627e:	0377      	lsls	r7, r6, #13
10006280:	46be      	mov	lr, r7
10006282:	b297      	uxth	r7, r2
10006284:	4377      	muls	r7, r6
10006286:	1bc0      	subs	r0, r0, r7
10006288:	d200      	bcs.n	1000628c <y64_x48+0x6e>
1000628a:	3901      	subs	r1, #1
1000628c:	1bc0      	subs	r0, r0, r7
1000628e:	d200      	bcs.n	10006292 <y64_x48+0x74>
10006290:	3901      	subs	r1, #1
10006292:	b29f      	uxth	r7, r3
10006294:	4377      	muls	r7, r6
10006296:	1bc9      	subs	r1, r1, r7
10006298:	1bc9      	subs	r1, r1, r7
1000629a:	0c17      	lsrs	r7, r2, #16
1000629c:	4377      	muls	r7, r6
1000629e:	047e      	lsls	r6, r7, #17
100062a0:	0bff      	lsrs	r7, r7, #15
100062a2:	1b80      	subs	r0, r0, r6
100062a4:	41b9      	sbcs	r1, r7
100062a6:	08ce      	lsrs	r6, r1, #3
100062a8:	4366      	muls	r6, r4
100062aa:	0c36      	lsrs	r6, r6, #16
100062ac:	2d0c      	cmp	r5, #12
100062ae:	db33      	blt.n	10006318 <last1>
100062b0:	44b6      	add	lr, r6
100062b2:	0b12      	lsrs	r2, r2, #12
100062b4:	051f      	lsls	r7, r3, #20
100062b6:	433a      	orrs	r2, r7
100062b8:	0b1b      	lsrs	r3, r3, #12
100062ba:	b297      	uxth	r7, r2
100062bc:	4377      	muls	r7, r6
100062be:	1bc0      	subs	r0, r0, r7
100062c0:	d200      	bcs.n	100062c4 <y64_x48+0xa6>
100062c2:	3901      	subs	r1, #1
100062c4:	b29f      	uxth	r7, r3
100062c6:	4377      	muls	r7, r6
100062c8:	1bc9      	subs	r1, r1, r7
100062ca:	0c17      	lsrs	r7, r2, #16
100062cc:	4377      	muls	r7, r6
100062ce:	043e      	lsls	r6, r7, #16
100062d0:	0c3f      	lsrs	r7, r7, #16
100062d2:	1b80      	subs	r0, r0, r6
100062d4:	41b9      	sbcs	r1, r7
100062d6:	0d86      	lsrs	r6, r0, #22
100062d8:	028f      	lsls	r7, r1, #10
100062da:	433e      	orrs	r6, r7
100062dc:	4366      	muls	r6, r4
100062de:	2729      	movs	r7, #41	; 0x29
100062e0:	1b7f      	subs	r7, r7, r5
100062e2:	40fe      	lsrs	r6, r7
100062e4:	3d0c      	subs	r5, #12
100062e6:	4677      	mov	r7, lr
100062e8:	40af      	lsls	r7, r5
100062ea:	19bf      	adds	r7, r7, r6
100062ec:	bc30      	pop	{r4, r5}
100062ee:	b2a2      	uxth	r2, r4
100062f0:	b2ab      	uxth	r3, r5
100062f2:	4372      	muls	r2, r6
100062f4:	4373      	muls	r3, r6
100062f6:	1a80      	subs	r0, r0, r2
100062f8:	4199      	sbcs	r1, r3
100062fa:	0c22      	lsrs	r2, r4, #16
100062fc:	4372      	muls	r2, r6
100062fe:	0c13      	lsrs	r3, r2, #16
10006300:	0412      	lsls	r2, r2, #16
10006302:	1a80      	subs	r0, r0, r2
10006304:	4199      	sbcs	r1, r3
10006306:	0002      	movs	r2, r0
10006308:	000b      	movs	r3, r1
1000630a:	3701      	adds	r7, #1
1000630c:	1b00      	subs	r0, r0, r4
1000630e:	41a9      	sbcs	r1, r5
10006310:	d2f9      	bcs.n	10006306 <y64_x48+0xe8>
10006312:	1e78      	subs	r0, r7, #1
10006314:	2100      	movs	r1, #0
10006316:	bdf0      	pop	{r4, r5, r6, r7, pc}

10006318 <last1>:
10006318:	270c      	movs	r7, #12
1000631a:	1b7f      	subs	r7, r7, r5
1000631c:	40fe      	lsrs	r6, r7
1000631e:	4677      	mov	r7, lr
10006320:	0b7f      	lsrs	r7, r7, #13
10006322:	40af      	lsls	r7, r5
10006324:	19ff      	adds	r7, r7, r7
10006326:	e7e0      	b.n	100062ea <y64_x48+0xcc>

10006328 <y64_x64>:
10006328:	2400      	movs	r4, #0
1000632a:	1c5d      	adds	r5, r3, #1
1000632c:	d007      	beq.n	1000633e <y64_x64+0x16>
1000632e:	4f14      	ldr	r7, [pc, #80]	; (10006380 <y64_x64+0x58>)
10006330:	667d      	str	r5, [r7, #100]	; 0x64
10006332:	6639      	str	r1, [r7, #96]	; 0x60
10006334:	e7ff      	b.n	10006336 <y64_x64+0xe>
10006336:	e7ff      	b.n	10006338 <y64_x64+0x10>
10006338:	e7ff      	b.n	1000633a <y64_x64+0x12>
1000633a:	e7ff      	b.n	1000633c <y64_x64+0x14>
1000633c:	6f3c      	ldr	r4, [r7, #112]	; 0x70
1000633e:	b295      	uxth	r5, r2
10006340:	b29e      	uxth	r6, r3
10006342:	4365      	muls	r5, r4
10006344:	4366      	muls	r6, r4
10006346:	1b40      	subs	r0, r0, r5
10006348:	41b1      	sbcs	r1, r6
1000634a:	0c15      	lsrs	r5, r2, #16
1000634c:	0c1e      	lsrs	r6, r3, #16
1000634e:	4365      	muls	r5, r4
10006350:	4366      	muls	r6, r4
10006352:	0436      	lsls	r6, r6, #16
10006354:	0c2f      	lsrs	r7, r5, #16
10006356:	433e      	orrs	r6, r7
10006358:	042d      	lsls	r5, r5, #16
1000635a:	1b40      	subs	r0, r0, r5
1000635c:	41b1      	sbcs	r1, r6
1000635e:	4299      	cmp	r1, r3
10006360:	d204      	bcs.n	1000636c <y64_x64+0x44>
10006362:	0002      	movs	r2, r0
10006364:	000b      	movs	r3, r1
10006366:	0020      	movs	r0, r4
10006368:	2100      	movs	r1, #0
1000636a:	bdf0      	pop	{r4, r5, r6, r7, pc}
1000636c:	d101      	bne.n	10006372 <y64_x64+0x4a>
1000636e:	4290      	cmp	r0, r2
10006370:	d3f7      	bcc.n	10006362 <y64_x64+0x3a>
10006372:	1a80      	subs	r0, r0, r2
10006374:	4199      	sbcs	r1, r3
10006376:	3401      	adds	r4, #1
10006378:	4299      	cmp	r1, r3
1000637a:	d3f2      	bcc.n	10006362 <y64_x64+0x3a>
1000637c:	e7f6      	b.n	1000636c <y64_x64+0x44>
1000637e:	0000      	.short	0x0000
10006380:	d0000000 	.word	0xd0000000
10006384:	ffffffff 	.word	0xffffffff

10006388 <__wrap___aeabi_drsub>:
10006388:	4048      	eors	r0, r1
1000638a:	4041      	eors	r1, r0
1000638c:	4048      	eors	r0, r1

1000638e <__wrap___aeabi_dsub>:
1000638e:	b418      	push	{r3, r4}
10006390:	4b1b      	ldr	r3, [pc, #108]	; (10006400 <__wrap___aeabi_dmul+0x12>)
10006392:	685b      	ldr	r3, [r3, #4]
10006394:	46fc      	mov	ip, pc
10006396:	9301      	str	r3, [sp, #4]
10006398:	bd08      	pop	{r3, pc}
1000639a:	df04      	.short	0xdf04
1000639c:	10006663 	.word	0x10006663

100063a0 <__wrap___aeabi_dadd>:
100063a0:	b418      	push	{r3, r4}
100063a2:	4b17      	ldr	r3, [pc, #92]	; (10006400 <__wrap___aeabi_dmul+0x12>)
100063a4:	681b      	ldr	r3, [r3, #0]
100063a6:	46fc      	mov	ip, pc
100063a8:	9301      	str	r3, [sp, #4]
100063aa:	bd08      	pop	{r3, pc}
100063ac:	666ddf00 	.word	0x666ddf00
100063b0:	1000      	.short	0x1000

100063b2 <__wrap___aeabi_ddiv>:
100063b2:	4694      	mov	ip, r2
100063b4:	4a13      	ldr	r2, [pc, #76]	; (10006404 <__wrap___aeabi_dmul+0x16>)
100063b6:	6f92      	ldr	r2, [r2, #120]	; 0x78
100063b8:	0892      	lsrs	r2, r2, #2
100063ba:	d209      	bcs.n	100063d0 <ddiv_save_state>
100063bc:	4662      	mov	r2, ip

100063be <ddiv_shim_call>:
100063be:	b418      	push	{r3, r4}
100063c0:	4b0f      	ldr	r3, [pc, #60]	; (10006400 <__wrap___aeabi_dmul+0x12>)
100063c2:	68db      	ldr	r3, [r3, #12]
100063c4:	46fc      	mov	ip, pc
100063c6:	9301      	str	r3, [sp, #4]
100063c8:	bd08      	pop	{r3, pc}
100063ca:	df0c      	.short	0xdf0c
100063cc:	10006925 	.word	0x10006925

100063d0 <ddiv_save_state>:
100063d0:	4a0c      	ldr	r2, [pc, #48]	; (10006404 <__wrap___aeabi_dmul+0x16>)
100063d2:	b5f0      	push	{r4, r5, r6, r7, lr}
100063d4:	6e14      	ldr	r4, [r2, #96]	; 0x60
100063d6:	6e55      	ldr	r5, [r2, #100]	; 0x64
100063d8:	6f57      	ldr	r7, [r2, #116]	; 0x74
100063da:	6f16      	ldr	r6, [r2, #112]	; 0x70
100063dc:	4662      	mov	r2, ip
100063de:	f7ff ffee 	bl	100063be <ddiv_shim_call>
100063e2:	4a08      	ldr	r2, [pc, #32]	; (10006404 <__wrap___aeabi_dmul+0x16>)
100063e4:	6614      	str	r4, [r2, #96]	; 0x60
100063e6:	6655      	str	r5, [r2, #100]	; 0x64
100063e8:	6757      	str	r7, [r2, #116]	; 0x74
100063ea:	6716      	str	r6, [r2, #112]	; 0x70
100063ec:	bdf0      	pop	{r4, r5, r6, r7, pc}

100063ee <__wrap___aeabi_dmul>:
100063ee:	b418      	push	{r3, r4}
100063f0:	4b03      	ldr	r3, [pc, #12]	; (10006400 <__wrap___aeabi_dmul+0x12>)
100063f2:	689b      	ldr	r3, [r3, #8]
100063f4:	46fc      	mov	ip, pc
100063f6:	9301      	str	r3, [sp, #4]
100063f8:	bd08      	pop	{r3, pc}
100063fa:	df08      	.short	0xdf08
100063fc:	100067c9 	.word	0x100067c9
10006400:	20019054 	.word	0x20019054
10006404:	d0000000 	.word	0xd0000000

10006408 <__wrap___aeabi_cdrcmple>:
10006408:	b5ff      	push	{r0, r1, r2, r3, r4, r5, r6, r7, lr}
1000640a:	4050      	eors	r0, r2
1000640c:	4042      	eors	r2, r0
1000640e:	4050      	eors	r0, r2
10006410:	4059      	eors	r1, r3
10006412:	404b      	eors	r3, r1
10006414:	4059      	eors	r1, r3
10006416:	e000      	b.n	1000641a <__aeabi_dfcmple_guts>

10006418 <__wrap___aeabi_cdcmpeq>:
10006418:	b5ff      	push	{r0, r1, r2, r3, r4, r5, r6, r7, lr}

1000641a <__aeabi_dfcmple_guts>:
1000641a:	4f15      	ldr	r7, [pc, #84]	; (10006470 <__aeabi_dfcmple_guts+0x56>)
1000641c:	004c      	lsls	r4, r1, #1
1000641e:	0d64      	lsrs	r4, r4, #21
10006420:	d003      	beq.n	1000642a <__aeabi_dfcmple_guts+0x10>
10006422:	42bc      	cmp	r4, r7
10006424:	d104      	bne.n	10006430 <__aeabi_dfcmple_guts+0x16>
10006426:	030c      	lsls	r4, r1, #12
10006428:	d814      	bhi.n	10006454 <__aeabi_dfcmple_guts+0x3a>
1000642a:	2000      	movs	r0, #0
1000642c:	0d09      	lsrs	r1, r1, #20
1000642e:	0509      	lsls	r1, r1, #20
10006430:	005c      	lsls	r4, r3, #1
10006432:	0d64      	lsrs	r4, r4, #21
10006434:	d003      	beq.n	1000643e <__aeabi_dfcmple_guts+0x24>
10006436:	42bc      	cmp	r4, r7
10006438:	d104      	bne.n	10006444 <__aeabi_dfcmple_guts+0x2a>
1000643a:	031c      	lsls	r4, r3, #12
1000643c:	d80a      	bhi.n	10006454 <__aeabi_dfcmple_guts+0x3a>
1000643e:	2200      	movs	r2, #0
10006440:	0d1b      	lsrs	r3, r3, #20
10006442:	051b      	lsls	r3, r3, #20
10006444:	2601      	movs	r6, #1
10006446:	404b      	eors	r3, r1
10006448:	d409      	bmi.n	1000645e <__aeabi_dfcmple_guts+0x44>
1000644a:	404b      	eors	r3, r1
1000644c:	d503      	bpl.n	10006456 <__aeabi_dfcmple_guts+0x3c>
1000644e:	428b      	cmp	r3, r1
10006450:	d100      	bne.n	10006454 <__aeabi_dfcmple_guts+0x3a>
10006452:	4282      	cmp	r2, r0
10006454:	bdff      	pop	{r0, r1, r2, r3, r4, r5, r6, r7, pc}
10006456:	4299      	cmp	r1, r3
10006458:	d1fc      	bne.n	10006454 <__aeabi_dfcmple_guts+0x3a>
1000645a:	4290      	cmp	r0, r2
1000645c:	bdff      	pop	{r0, r1, r2, r3, r4, r5, r6, r7, pc}
1000645e:	430b      	orrs	r3, r1
10006460:	18db      	adds	r3, r3, r3
10006462:	4303      	orrs	r3, r0
10006464:	4313      	orrs	r3, r2
10006466:	d0f5      	beq.n	10006454 <__aeabi_dfcmple_guts+0x3a>
10006468:	43c9      	mvns	r1, r1
1000646a:	1849      	adds	r1, r1, r1
1000646c:	bdff      	pop	{r0, r1, r2, r3, r4, r5, r6, r7, pc}
1000646e:	0000      	.short	0x0000
10006470:	000007ff 	.word	0x000007ff

10006474 <__wrap___aeabi_dcmplt>:
10006474:	b500      	push	{lr}
10006476:	f7ff ffcf 	bl	10006418 <__wrap___aeabi_cdcmpeq>
1000647a:	4180      	sbcs	r0, r0
1000647c:	bd00      	pop	{pc}
1000647e:	46c0      	nop			; (mov r8, r8)

10006480 <__wrap___aeabi_dcmple>:
10006480:	b500      	push	{lr}
10006482:	f7ff ffc9 	bl	10006418 <__wrap___aeabi_cdcmpeq>
10006486:	d901      	bls.n	1000648c <__wrap___aeabi_dcmple+0xc>
10006488:	2000      	movs	r0, #0
1000648a:	bd00      	pop	{pc}
1000648c:	2001      	movs	r0, #1
1000648e:	bd00      	pop	{pc}

10006490 <__wrap___aeabi_dcmpge>:
10006490:	b500      	push	{lr}
10006492:	f7ff ffb9 	bl	10006408 <__wrap___aeabi_cdrcmple>
10006496:	d901      	bls.n	1000649c <__wrap___aeabi_dcmpge+0xc>
10006498:	2000      	movs	r0, #0
1000649a:	bd00      	pop	{pc}
1000649c:	2001      	movs	r0, #1
1000649e:	bd00      	pop	{pc}

100064a0 <__wrap___aeabi_dcmpgt>:
100064a0:	b500      	push	{lr}
100064a2:	f7ff ffb1 	bl	10006408 <__wrap___aeabi_cdrcmple>
100064a6:	4180      	sbcs	r0, r0
100064a8:	bd00      	pop	{pc}

100064aa <__wrap___aeabi_dcmpun>:
100064aa:	2001      	movs	r0, #1
100064ac:	0540      	lsls	r0, r0, #21
100064ae:	004a      	lsls	r2, r1, #1
100064b0:	1812      	adds	r2, r2, r0
100064b2:	d804      	bhi.n	100064be <__wrap___aeabi_dcmpun+0x14>
100064b4:	005a      	lsls	r2, r3, #1
100064b6:	1812      	adds	r2, r2, r0
100064b8:	d801      	bhi.n	100064be <__wrap___aeabi_dcmpun+0x14>
100064ba:	2000      	movs	r0, #0
100064bc:	4770      	bx	lr
100064be:	2001      	movs	r0, #1
100064c0:	4770      	bx	lr
100064c2:	2000      	movs	r0, #0
100064c4:	4770      	bx	lr
	...

100064c8 <__wrap___aeabi_ui2d>:
100064c8:	2100      	movs	r1, #0
100064ca:	2800      	cmp	r0, #0
100064cc:	d105      	bne.n	100064da <__wrap___aeabi_i2d+0xa>
100064ce:	4770      	bx	lr

100064d0 <__wrap___aeabi_i2d>:
100064d0:	17c1      	asrs	r1, r0, #31
100064d2:	4048      	eors	r0, r1
100064d4:	1a40      	subs	r0, r0, r1
100064d6:	d0fa      	beq.n	100064ce <__wrap___aeabi_ui2d+0x6>
100064d8:	07c9      	lsls	r1, r1, #31
100064da:	b513      	push	{r0, r1, r4, lr}
100064dc:	4b06      	ldr	r3, [pc, #24]	; (100064f8 <__wrap___aeabi_i2d+0x28>)
100064de:	681b      	ldr	r3, [r3, #0]
100064e0:	4798      	blx	r3
100064e2:	bc0c      	pop	{r2, r3}
100064e4:	1c44      	adds	r4, r0, #1
100064e6:	40a2      	lsls	r2, r4
100064e8:	0510      	lsls	r0, r2, #20
100064ea:	0b12      	lsrs	r2, r2, #12
100064ec:	4903      	ldr	r1, [pc, #12]	; (100064fc <__wrap___aeabi_i2d+0x2c>)
100064ee:	1b09      	subs	r1, r1, r4
100064f0:	0509      	lsls	r1, r1, #20
100064f2:	4319      	orrs	r1, r3
100064f4:	4311      	orrs	r1, r2
100064f6:	bd10      	pop	{r4, pc}
100064f8:	20008fa0 	.word	0x20008fa0
100064fc:	0000041f 	.word	0x0000041f

10006500 <__wrap___aeabi_d2iz>:
10006500:	b510      	push	{r4, lr}
10006502:	004c      	lsls	r4, r1, #1
10006504:	0d62      	lsrs	r2, r4, #21
10006506:	2380      	movs	r3, #128	; 0x80
10006508:	18d2      	adds	r2, r2, r3
1000650a:	00db      	lsls	r3, r3, #3
1000650c:	1ad2      	subs	r2, r2, r3
1000650e:	055b      	lsls	r3, r3, #21
10006510:	2a7e      	cmp	r2, #126	; 0x7e
10006512:	dd10      	ble.n	10006536 <__wrap___aeabi_d2iz+0x36>
10006514:	3a9e      	subs	r2, #158	; 0x9e
10006516:	da13      	bge.n	10006540 <__wrap___aeabi_d2iz+0x40>
10006518:	17cc      	asrs	r4, r1, #31
1000651a:	0309      	lsls	r1, r1, #12
1000651c:	0849      	lsrs	r1, r1, #1
1000651e:	4319      	orrs	r1, r3
10006520:	4252      	negs	r2, r2
10006522:	40d1      	lsrs	r1, r2
10006524:	0064      	lsls	r4, r4, #1
10006526:	3401      	adds	r4, #1
10006528:	3215      	adds	r2, #21
1000652a:	2a20      	cmp	r2, #32
1000652c:	da05      	bge.n	1000653a <__wrap___aeabi_d2iz+0x3a>
1000652e:	40d0      	lsrs	r0, r2
10006530:	4308      	orrs	r0, r1
10006532:	4360      	muls	r0, r4
10006534:	bd10      	pop	{r4, pc}
10006536:	2000      	movs	r0, #0
10006538:	bd10      	pop	{r4, pc}
1000653a:	4608      	mov	r0, r1
1000653c:	4360      	muls	r0, r4
1000653e:	bd10      	pop	{r4, pc}
10006540:	0fc8      	lsrs	r0, r1, #31
10006542:	18c0      	adds	r0, r0, r3
10006544:	3801      	subs	r0, #1
10006546:	bd10      	pop	{r4, pc}

10006548 <__wrap___aeabi_d2uiz>:
10006548:	b418      	push	{r3, r4}
1000654a:	4b04      	ldr	r3, [pc, #16]	; (1000655c <__wrap___aeabi_d2uiz+0x14>)
1000654c:	6a5b      	ldr	r3, [r3, #36]	; 0x24
1000654e:	46fc      	mov	ip, pc
10006550:	9301      	str	r3, [sp, #4]
10006552:	bd08      	pop	{r3, pc}
10006554:	6ad5df24 	.word	0x6ad5df24
10006558:	00001000 	.word	0x00001000
1000655c:	20019054 	.word	0x20019054

10006560 <__aeabi_double_init>:
10006560:	b570      	push	{r4, r5, r6, lr}
10006562:	2313      	movs	r3, #19
10006564:	781c      	ldrb	r4, [r3, #0]
10006566:	2c01      	cmp	r4, #1
10006568:	d00c      	beq.n	10006584 <__aeabi_double_init+0x24>
1000656a:	2c01      	cmp	r4, #1
1000656c:	dc13      	bgt.n	10006596 <__aeabi_double_init+0x36>
1000656e:	2c02      	cmp	r4, #2
10006570:	dc02      	bgt.n	10006578 <__aeabi_double_init+0x18>
10006572:	4a1f      	ldr	r2, [pc, #124]	; (100065f0 <__aeabi_double_init+0x90>)
10006574:	4b1f      	ldr	r3, [pc, #124]	; (100065f4 <__aeabi_double_init+0x94>)
10006576:	649a      	str	r2, [r3, #72]	; 0x48
10006578:	481f      	ldr	r0, [pc, #124]	; (100065f8 <__aeabi_double_init+0x98>)
1000657a:	f7ff fc71 	bl	10005e60 <rom_func_lookup>
1000657e:	4b1f      	ldr	r3, [pc, #124]	; (100065fc <__aeabi_double_init+0x9c>)
10006580:	6018      	str	r0, [r3, #0]
10006582:	bd70      	pop	{r4, r5, r6, pc}
10006584:	2300      	movs	r3, #0
10006586:	2b1f      	cmp	r3, #31
10006588:	d8ef      	bhi.n	1000656a <__aeabi_double_init+0xa>
1000658a:	0099      	lsls	r1, r3, #2
1000658c:	4818      	ldr	r0, [pc, #96]	; (100065f0 <__aeabi_double_init+0x90>)
1000658e:	4a19      	ldr	r2, [pc, #100]	; (100065f4 <__aeabi_double_init+0x94>)
10006590:	5088      	str	r0, [r1, r2]
10006592:	3301      	adds	r3, #1
10006594:	e7f7      	b.n	10006586 <__aeabi_double_init+0x26>
10006596:	481a      	ldr	r0, [pc, #104]	; (10006600 <__aeabi_double_init+0xa0>)
10006598:	f7ff fc6a 	bl	10005e70 <rom_data_lookup>
1000659c:	0005      	movs	r5, r0
1000659e:	4819      	ldr	r0, [pc, #100]	; (10006604 <__aeabi_double_init+0xa4>)
100065a0:	f7ff fc66 	bl	10005e70 <rom_data_lookup>
100065a4:	3802      	subs	r0, #2
100065a6:	7803      	ldrb	r3, [r0, #0]
100065a8:	009b      	lsls	r3, r3, #2
100065aa:	2b7f      	cmp	r3, #127	; 0x7f
100065ac:	dd19      	ble.n	100065e2 <__aeabi_double_init+0x82>
100065ae:	2280      	movs	r2, #128	; 0x80
100065b0:	0029      	movs	r1, r5
100065b2:	4810      	ldr	r0, [pc, #64]	; (100065f4 <__aeabi_double_init+0x94>)
100065b4:	f000 fbac 	bl	10006d10 <__wrap___aeabi_memcpy>
100065b8:	2c02      	cmp	r4, #2
100065ba:	d1d8      	bne.n	1000656e <__aeabi_double_init+0xe>
100065bc:	4b12      	ldr	r3, [pc, #72]	; (10006608 <__aeabi_double_init+0xa8>)
100065be:	881a      	ldrh	r2, [r3, #0]
100065c0:	23b5      	movs	r3, #181	; 0xb5
100065c2:	021b      	lsls	r3, r3, #8
100065c4:	429a      	cmp	r2, r3
100065c6:	d109      	bne.n	100065dc <__aeabi_double_init+0x7c>
100065c8:	4b10      	ldr	r3, [pc, #64]	; (1000660c <__aeabi_double_init+0xac>)
100065ca:	881a      	ldrh	r2, [r3, #0]
100065cc:	4b10      	ldr	r3, [pc, #64]	; (10006610 <__aeabi_double_init+0xb0>)
100065ce:	429a      	cmp	r2, r3
100065d0:	d104      	bne.n	100065dc <__aeabi_double_init+0x7c>
100065d2:	4b10      	ldr	r3, [pc, #64]	; (10006614 <__aeabi_double_init+0xb4>)
100065d4:	881a      	ldrh	r2, [r3, #0]
100065d6:	4b10      	ldr	r3, [pc, #64]	; (10006618 <__aeabi_double_init+0xb8>)
100065d8:	429a      	cmp	r2, r3
100065da:	d0c8      	beq.n	1000656e <__aeabi_double_init+0xe>
100065dc:	2000      	movs	r0, #0
100065de:	f7fe f973 	bl	100048c8 <panic>
100065e2:	4b0e      	ldr	r3, [pc, #56]	; (1000661c <__aeabi_double_init+0xbc>)
100065e4:	4a0e      	ldr	r2, [pc, #56]	; (10006620 <__aeabi_double_init+0xc0>)
100065e6:	2132      	movs	r1, #50	; 0x32
100065e8:	480e      	ldr	r0, [pc, #56]	; (10006624 <__aeabi_double_init+0xc4>)
100065ea:	f7fe f8d3 	bl	10004794 <__assert_func>
100065ee:	46c0      	nop			; (mov r8, r8)
100065f0:	10006629 	.word	0x10006629
100065f4:	20019054 	.word	0x20019054
100065f8:	0000334c 	.word	0x0000334c
100065fc:	20008fa0 	.word	0x20008fa0
10006600:	00004453 	.word	0x00004453
10006604:	00004653 	.word	0x00004653
10006608:	00003854 	.word	0x00003854
1000660c:	000038d8 	.word	0x000038d8
10006610:	00004649 	.word	0x00004649
10006614:	0000389c 	.word	0x0000389c
10006618:	00004659 	.word	0x00004659
1000661c:	1000b8b0 	.word	0x1000b8b0
10006620:	1000b960 	.word	0x1000b960
10006624:	1000b910 	.word	0x1000b910

10006628 <double_table_shim_on_use_helper>:
10006628:	b507      	push	{r0, r1, r2, lr}
1000662a:	4660      	mov	r0, ip
1000662c:	2800      	cmp	r0, #0
1000662e:	d100      	bne.n	10006632 <double_table_shim_on_use_helper+0xa>
10006630:	be00      	bkpt	0x0000
10006632:	8801      	ldrh	r1, [r0, #0]
10006634:	0a0a      	lsrs	r2, r1, #8
10006636:	3002      	adds	r0, #2
10006638:	2adf      	cmp	r2, #223	; 0xdf
1000663a:	d1fa      	bne.n	10006632 <double_table_shim_on_use_helper+0xa>
1000663c:	b2c9      	uxtb	r1, r1
1000663e:	0882      	lsrs	r2, r0, #2
10006640:	d304      	bcc.n	1000664c <double_table_shim_on_use_helper+0x24>
10006642:	8802      	ldrh	r2, [r0, #0]
10006644:	8840      	ldrh	r0, [r0, #2]
10006646:	0400      	lsls	r0, r0, #16
10006648:	4310      	orrs	r0, r2
1000664a:	e000      	b.n	1000664e <double_table_shim_on_use_helper+0x26>
1000664c:	6800      	ldr	r0, [r0, #0]
1000664e:	4a02      	ldr	r2, [pc, #8]	; (10006658 <double_table_shim_on_use_helper+0x30>)
10006650:	5050      	str	r0, [r2, r1]
10006652:	9003      	str	r0, [sp, #12]
10006654:	bd07      	pop	{r0, r1, r2, pc}
10006656:	0000      	.short	0x0000
10006658:	20019054 	.word	0x20019054

1000665c <drsub_shim>:
1000665c:	b40f      	push	{r0, r1, r2, r3}
1000665e:	bc03      	pop	{r0, r1}
10006660:	bc0c      	pop	{r2, r3}

10006662 <dsub_shim>:
10006662:	b5f0      	push	{r4, r5, r6, r7, lr}
10006664:	2401      	movs	r4, #1
10006666:	07e4      	lsls	r4, r4, #31
10006668:	4063      	eors	r3, r4
1000666a:	e000      	b.n	1000666e <da_entry>

1000666c <dadd_shim>:
1000666c:	b5f0      	push	{r4, r5, r6, r7, lr}

1000666e <da_entry>:
1000666e:	0d0c      	lsrs	r4, r1, #20
10006670:	0fcf      	lsrs	r7, r1, #31
10006672:	1e66      	subs	r6, r4, #1
10006674:	0536      	lsls	r6, r6, #20
10006676:	1b89      	subs	r1, r1, r6
10006678:	0564      	lsls	r4, r4, #21
1000667a:	d303      	bcc.n	10006684 <l7_1>
1000667c:	43c9      	mvns	r1, r1
1000667e:	4240      	negs	r0, r0
10006680:	d300      	bcc.n	10006684 <l7_1>
10006682:	3101      	adds	r1, #1

10006684 <l7_1>:
10006684:	0d64      	lsrs	r4, r4, #21
10006686:	d003      	beq.n	10006690 <l7_2>
10006688:	1c66      	adds	r6, r4, #1
1000668a:	0af6      	lsrs	r6, r6, #11
1000668c:	d007      	beq.n	1000669e <l7_3>
1000668e:	1be4      	subs	r4, r4, r7

10006690 <l7_2>:
10006690:	2000      	movs	r0, #0
10006692:	007f      	lsls	r7, r7, #1
10006694:	1c79      	adds	r1, r7, #1
10006696:	0789      	lsls	r1, r1, #30
10006698:	1289      	asrs	r1, r1, #10
1000669a:	3c80      	subs	r4, #128	; 0x80
1000669c:	0324      	lsls	r4, r4, #12

1000669e <l7_3>:
1000669e:	0d1d      	lsrs	r5, r3, #20
100066a0:	0fdf      	lsrs	r7, r3, #31
100066a2:	1e6e      	subs	r6, r5, #1
100066a4:	0536      	lsls	r6, r6, #20
100066a6:	1b9b      	subs	r3, r3, r6
100066a8:	056d      	lsls	r5, r5, #21
100066aa:	d303      	bcc.n	100066b4 <l8_1>
100066ac:	43db      	mvns	r3, r3
100066ae:	4252      	negs	r2, r2
100066b0:	d300      	bcc.n	100066b4 <l8_1>
100066b2:	3301      	adds	r3, #1

100066b4 <l8_1>:
100066b4:	0d6d      	lsrs	r5, r5, #21
100066b6:	d003      	beq.n	100066c0 <l8_2>
100066b8:	1c6e      	adds	r6, r5, #1
100066ba:	0af6      	lsrs	r6, r6, #11
100066bc:	d007      	beq.n	100066ce <l8_3>
100066be:	1bed      	subs	r5, r5, r7

100066c0 <l8_2>:
100066c0:	2200      	movs	r2, #0
100066c2:	007f      	lsls	r7, r7, #1
100066c4:	1c7b      	adds	r3, r7, #1
100066c6:	079b      	lsls	r3, r3, #30
100066c8:	129b      	asrs	r3, r3, #10
100066ca:	3d80      	subs	r5, #128	; 0x80
100066cc:	032d      	lsls	r5, r5, #12

100066ce <l8_3>:
100066ce:	1b2f      	subs	r7, r5, r4
100066d0:	1b66      	subs	r6, r4, r5
100066d2:	d458      	bmi.n	10006786 <da_ygtx>
100066d4:	46a4      	mov	ip, r4
100066d6:	2e20      	cmp	r6, #32
100066d8:	da46      	bge.n	10006768 <da_xrgty>
100066da:	3720      	adds	r7, #32
100066dc:	0014      	movs	r4, r2
100066de:	40bc      	lsls	r4, r7

100066e0 <da_xgty0>:
100066e0:	001d      	movs	r5, r3
100066e2:	40bd      	lsls	r5, r7
100066e4:	40f2      	lsrs	r2, r6
100066e6:	4133      	asrs	r3, r6
100066e8:	432a      	orrs	r2, r5

100066ea <da_add>:
100066ea:	1880      	adds	r0, r0, r2
100066ec:	4159      	adcs	r1, r3

100066ee <da_pack>:
100066ee:	0fcb      	lsrs	r3, r1, #31
100066f0:	d005      	beq.n	100066fe <da_pack+0x10>
100066f2:	43c9      	mvns	r1, r1
100066f4:	43c0      	mvns	r0, r0
100066f6:	2200      	movs	r2, #0
100066f8:	4264      	negs	r4, r4
100066fa:	4150      	adcs	r0, r2
100066fc:	4151      	adcs	r1, r2
100066fe:	4662      	mov	r2, ip
10006700:	0d4d      	lsrs	r5, r1, #21
10006702:	d128      	bne.n	10006756 <da_0>
10006704:	0d0d      	lsrs	r5, r1, #20
10006706:	d107      	bne.n	10006718 <da_1>
10006708:	2800      	cmp	r0, #0
1000670a:	d01f      	beq.n	1000674c <da_5>

1000670c <da_2>:
1000670c:	1924      	adds	r4, r4, r4
1000670e:	4140      	adcs	r0, r0
10006710:	4149      	adcs	r1, r1
10006712:	3a01      	subs	r2, #1
10006714:	0d0d      	lsrs	r5, r1, #20
10006716:	d0f9      	beq.n	1000670c <da_2>

10006718 <da_1>:
10006718:	0064      	lsls	r4, r4, #1
1000671a:	d306      	bcc.n	1000672a <da_3>

1000671c <da_4>:
1000671c:	3001      	adds	r0, #1
1000671e:	d300      	bcc.n	10006722 <da_4+0x6>
10006720:	3101      	adds	r1, #1
10006722:	2c00      	cmp	r4, #0
10006724:	d101      	bne.n	1000672a <da_3>
10006726:	0840      	lsrs	r0, r0, #1
10006728:	0040      	lsls	r0, r0, #1

1000672a <da_3>:
1000672a:	3a01      	subs	r2, #1
1000672c:	d40b      	bmi.n	10006746 <da_6>
1000672e:	1c94      	adds	r4, r2, #2
10006730:	0ae4      	lsrs	r4, r4, #11
10006732:	d104      	bne.n	1000673e <da_7>
10006734:	0512      	lsls	r2, r2, #20
10006736:	4411      	add	r1, r2
10006738:	07db      	lsls	r3, r3, #31
1000673a:	4419      	add	r1, r3
1000673c:	bdf0      	pop	{r4, r5, r6, r7, pc}

1000673e <da_7>:
1000673e:	07d9      	lsls	r1, r3, #31
10006740:	4b20      	ldr	r3, [pc, #128]	; (100067c4 <da_xmgty+0x4>)
10006742:	4319      	orrs	r1, r3
10006744:	e000      	b.n	10006748 <da_6+0x2>

10006746 <da_6>:
10006746:	07d9      	lsls	r1, r3, #31
10006748:	2000      	movs	r0, #0
1000674a:	bdf0      	pop	{r4, r5, r6, r7, pc}

1000674c <da_5>:
1000674c:	2900      	cmp	r1, #0
1000674e:	d1dd      	bne.n	1000670c <da_2>
10006750:	2c00      	cmp	r4, #0
10006752:	d1db      	bne.n	1000670c <da_2>
10006754:	bdf0      	pop	{r4, r5, r6, r7, pc}

10006756 <da_0>:
10006756:	3201      	adds	r2, #1
10006758:	07c6      	lsls	r6, r0, #31
1000675a:	0840      	lsrs	r0, r0, #1
1000675c:	07cd      	lsls	r5, r1, #31
1000675e:	4328      	orrs	r0, r5
10006760:	0849      	lsrs	r1, r1, #1
10006762:	2e00      	cmp	r6, #0
10006764:	d0e1      	beq.n	1000672a <da_3>
10006766:	e7d9      	b.n	1000671c <da_4>

10006768 <da_xrgty>:
10006768:	2e3c      	cmp	r6, #60	; 0x3c
1000676a:	da29      	bge.n	100067c0 <da_xmgty>
1000676c:	3e20      	subs	r6, #32
1000676e:	3740      	adds	r7, #64	; 0x40
10006770:	0014      	movs	r4, r2
10006772:	40bc      	lsls	r4, r7
10006774:	d000      	beq.n	10006778 <da_xrgty+0x10>
10006776:	2401      	movs	r4, #1
10006778:	40f2      	lsrs	r2, r6
1000677a:	4314      	orrs	r4, r2
1000677c:	001a      	movs	r2, r3
1000677e:	40bb      	lsls	r3, r7
10006780:	431c      	orrs	r4, r3
10006782:	17d3      	asrs	r3, r2, #31
10006784:	e7ac      	b.n	100066e0 <da_xgty0>

10006786 <da_ygtx>:
10006786:	46ac      	mov	ip, r5
10006788:	2f20      	cmp	r7, #32
1000678a:	da08      	bge.n	1000679e <da_yrgtx>
1000678c:	3620      	adds	r6, #32
1000678e:	0004      	movs	r4, r0
10006790:	40b4      	lsls	r4, r6

10006792 <da_ygtx0>:
10006792:	000d      	movs	r5, r1
10006794:	40b5      	lsls	r5, r6
10006796:	40f8      	lsrs	r0, r7
10006798:	4139      	asrs	r1, r7
1000679a:	4328      	orrs	r0, r5
1000679c:	e7a5      	b.n	100066ea <da_add>

1000679e <da_yrgtx>:
1000679e:	2f3c      	cmp	r7, #60	; 0x3c
100067a0:	da0c      	bge.n	100067bc <da_ymgtx>
100067a2:	3f20      	subs	r7, #32
100067a4:	3640      	adds	r6, #64	; 0x40
100067a6:	0004      	movs	r4, r0
100067a8:	40b4      	lsls	r4, r6
100067aa:	d000      	beq.n	100067ae <da_yrgtx+0x10>
100067ac:	2401      	movs	r4, #1
100067ae:	40f8      	lsrs	r0, r7
100067b0:	4304      	orrs	r4, r0
100067b2:	0008      	movs	r0, r1
100067b4:	40b1      	lsls	r1, r6
100067b6:	430c      	orrs	r4, r1
100067b8:	17c1      	asrs	r1, r0, #31
100067ba:	e7ea      	b.n	10006792 <da_ygtx0>

100067bc <da_ymgtx>:
100067bc:	0010      	movs	r0, r2
100067be:	0019      	movs	r1, r3

100067c0 <da_xmgty>:
100067c0:	2400      	movs	r4, #0
100067c2:	e794      	b.n	100066ee <da_pack>
100067c4:	7ff00000 	.word	0x7ff00000

100067c8 <dmul_shim>:
100067c8:	b5f0      	push	{r4, r5, r6, r7, lr}
100067ca:	0d0c      	lsrs	r4, r1, #20
100067cc:	1e66      	subs	r6, r4, #1
100067ce:	0536      	lsls	r6, r6, #20
100067d0:	1b89      	subs	r1, r1, r6
100067d2:	0ae6      	lsrs	r6, r4, #11
100067d4:	0564      	lsls	r4, r4, #21
100067d6:	0d64      	lsrs	r4, r4, #21
100067d8:	d002      	beq.n	100067e0 <l11_1>
100067da:	1c65      	adds	r5, r4, #1
100067dc:	0aed      	lsrs	r5, r5, #11
100067de:	d004      	beq.n	100067ea <l11_2>

100067e0 <l11_1>:
100067e0:	2000      	movs	r0, #0
100067e2:	2101      	movs	r1, #1
100067e4:	0509      	lsls	r1, r1, #20
100067e6:	3c80      	subs	r4, #128	; 0x80
100067e8:	0324      	lsls	r4, r4, #12

100067ea <l11_2>:
100067ea:	46a4      	mov	ip, r4
100067ec:	0d1c      	lsrs	r4, r3, #20
100067ee:	1e67      	subs	r7, r4, #1
100067f0:	053f      	lsls	r7, r7, #20
100067f2:	1bdb      	subs	r3, r3, r7
100067f4:	0ae7      	lsrs	r7, r4, #11
100067f6:	0564      	lsls	r4, r4, #21
100067f8:	0d64      	lsrs	r4, r4, #21
100067fa:	d002      	beq.n	10006802 <l12_1>
100067fc:	1c65      	adds	r5, r4, #1
100067fe:	0aed      	lsrs	r5, r5, #11
10006800:	d004      	beq.n	1000680c <l12_2>

10006802 <l12_1>:
10006802:	2200      	movs	r2, #0
10006804:	2301      	movs	r3, #1
10006806:	051b      	lsls	r3, r3, #20
10006808:	3c80      	subs	r4, #128	; 0x80
1000680a:	0324      	lsls	r4, r4, #12

1000680c <l12_2>:
1000680c:	4077      	eors	r7, r6
1000680e:	4464      	add	r4, ip
10006810:	b497      	push	{r0, r1, r2, r4, r7}
10006812:	b284      	uxth	r4, r0
10006814:	b296      	uxth	r6, r2
10006816:	4374      	muls	r4, r6
10006818:	0c07      	lsrs	r7, r0, #16
1000681a:	437e      	muls	r6, r7
1000681c:	0c15      	lsrs	r5, r2, #16
1000681e:	436f      	muls	r7, r5
10006820:	b280      	uxth	r0, r0
10006822:	4368      	muls	r0, r5
10006824:	1836      	adds	r6, r6, r0
10006826:	d302      	bcc.n	1000682e <l13_1>
10006828:	2001      	movs	r0, #1
1000682a:	0400      	lsls	r0, r0, #16
1000682c:	183f      	adds	r7, r7, r0

1000682e <l13_1>:
1000682e:	0430      	lsls	r0, r6, #16
10006830:	0c35      	lsrs	r5, r6, #16
10006832:	1900      	adds	r0, r0, r4
10006834:	417d      	adcs	r5, r7
10006836:	4684      	mov	ip, r0
10006838:	b288      	uxth	r0, r1
1000683a:	b29a      	uxth	r2, r3
1000683c:	4350      	muls	r0, r2
1000683e:	0c0c      	lsrs	r4, r1, #16
10006840:	4362      	muls	r2, r4
10006842:	0c1f      	lsrs	r7, r3, #16
10006844:	437c      	muls	r4, r7
10006846:	b28e      	uxth	r6, r1
10006848:	437e      	muls	r6, r7
1000684a:	1992      	adds	r2, r2, r6
1000684c:	d302      	bcc.n	10006854 <l14_1>
1000684e:	2601      	movs	r6, #1
10006850:	0436      	lsls	r6, r6, #16
10006852:	19a4      	adds	r4, r4, r6

10006854 <l14_1>:
10006854:	0416      	lsls	r6, r2, #16
10006856:	0c17      	lsrs	r7, r2, #16
10006858:	1836      	adds	r6, r6, r0
1000685a:	4167      	adcs	r7, r4
1000685c:	bc01      	pop	{r0}
1000685e:	b281      	uxth	r1, r0
10006860:	b29a      	uxth	r2, r3
10006862:	4351      	muls	r1, r2
10006864:	0c04      	lsrs	r4, r0, #16
10006866:	4362      	muls	r2, r4
10006868:	0c1b      	lsrs	r3, r3, #16
1000686a:	435c      	muls	r4, r3
1000686c:	b280      	uxth	r0, r0
1000686e:	4358      	muls	r0, r3
10006870:	1812      	adds	r2, r2, r0
10006872:	d302      	bcc.n	1000687a <l15_1>
10006874:	2001      	movs	r0, #1
10006876:	0400      	lsls	r0, r0, #16
10006878:	1824      	adds	r4, r4, r0

1000687a <l15_1>:
1000687a:	0410      	lsls	r0, r2, #16
1000687c:	0c13      	lsrs	r3, r2, #16
1000687e:	1840      	adds	r0, r0, r1
10006880:	4163      	adcs	r3, r4
10006882:	182d      	adds	r5, r5, r0
10006884:	415e      	adcs	r6, r3
10006886:	2000      	movs	r0, #0
10006888:	4147      	adcs	r7, r0
1000688a:	bc06      	pop	{r1, r2}
1000688c:	b288      	uxth	r0, r1
1000688e:	b293      	uxth	r3, r2
10006890:	4358      	muls	r0, r3
10006892:	0c0c      	lsrs	r4, r1, #16
10006894:	4363      	muls	r3, r4
10006896:	0c12      	lsrs	r2, r2, #16
10006898:	4354      	muls	r4, r2
1000689a:	b289      	uxth	r1, r1
1000689c:	4351      	muls	r1, r2
1000689e:	185b      	adds	r3, r3, r1
100068a0:	d302      	bcc.n	100068a8 <l16_1>
100068a2:	2101      	movs	r1, #1
100068a4:	0409      	lsls	r1, r1, #16
100068a6:	1864      	adds	r4, r4, r1

100068a8 <l16_1>:
100068a8:	0419      	lsls	r1, r3, #16
100068aa:	0c1a      	lsrs	r2, r3, #16
100068ac:	1809      	adds	r1, r1, r0
100068ae:	4162      	adcs	r2, r4
100068b0:	186d      	adds	r5, r5, r1
100068b2:	4156      	adcs	r6, r2
100068b4:	2000      	movs	r0, #0
100068b6:	4147      	adcs	r7, r0
100068b8:	bc18      	pop	{r3, r4}
100068ba:	02f9      	lsls	r1, r7, #11
100068bc:	0d72      	lsrs	r2, r6, #21
100068be:	4311      	orrs	r1, r2
100068c0:	02f0      	lsls	r0, r6, #11
100068c2:	0d6a      	lsrs	r2, r5, #21
100068c4:	4310      	orrs	r0, r2
100068c6:	02ed      	lsls	r5, r5, #11
100068c8:	0d0a      	lsrs	r2, r1, #20
100068ca:	d103      	bne.n	100068d4 <l16_1+0x2c>
100068cc:	196d      	adds	r5, r5, r5
100068ce:	4140      	adcs	r0, r0
100068d0:	4149      	adcs	r1, r1
100068d2:	3b01      	subs	r3, #1
100068d4:	4e12      	ldr	r6, [pc, #72]	; (10006920 <dm_1+0xa>)
100068d6:	1b9b      	subs	r3, r3, r6
100068d8:	0076      	lsls	r6, r6, #1
100068da:	42b3      	cmp	r3, r6
100068dc:	d20e      	bcs.n	100068fc <dm_0>
100068de:	006d      	lsls	r5, r5, #1
100068e0:	d307      	bcc.n	100068f2 <l16_1+0x4a>
100068e2:	3001      	adds	r0, #1
100068e4:	2600      	movs	r6, #0
100068e6:	4171      	adcs	r1, r6
100068e8:	4666      	mov	r6, ip
100068ea:	4335      	orrs	r5, r6
100068ec:	d101      	bne.n	100068f2 <l16_1+0x4a>
100068ee:	0840      	lsrs	r0, r0, #1
100068f0:	0040      	lsls	r0, r0, #1
100068f2:	051b      	lsls	r3, r3, #20
100068f4:	18c9      	adds	r1, r1, r3

100068f6 <dm_2>:
100068f6:	07e4      	lsls	r4, r4, #31
100068f8:	4421      	add	r1, r4
100068fa:	bdf0      	pop	{r4, r5, r6, r7, pc}

100068fc <dm_0>:
100068fc:	da0b      	bge.n	10006916 <dm_1>
100068fe:	3301      	adds	r3, #1
10006900:	d106      	bne.n	10006910 <dm_0+0x14>
10006902:	3001      	adds	r0, #1
10006904:	d104      	bne.n	10006910 <dm_0+0x14>
10006906:	3101      	adds	r1, #1
10006908:	0d4f      	lsrs	r7, r1, #21
1000690a:	d001      	beq.n	10006910 <dm_0+0x14>
1000690c:	0849      	lsrs	r1, r1, #1
1000690e:	e7f2      	b.n	100068f6 <dm_2>
10006910:	07e1      	lsls	r1, r4, #31
10006912:	2000      	movs	r0, #0
10006914:	bdf0      	pop	{r4, r5, r6, r7, pc}

10006916 <dm_1>:
10006916:	3601      	adds	r6, #1
10006918:	0531      	lsls	r1, r6, #20
1000691a:	2000      	movs	r0, #0
1000691c:	e7eb      	b.n	100068f6 <dm_2>
1000691e:	0000      	.short	0x0000
10006920:	000003ff 	.word	0x000003ff

10006924 <ddiv_shim>:
10006924:	b5f0      	push	{r4, r5, r6, r7, lr}

10006926 <ddiv0>:
10006926:	0d1c      	lsrs	r4, r3, #20
10006928:	1e67      	subs	r7, r4, #1
1000692a:	053f      	lsls	r7, r7, #20
1000692c:	1bdb      	subs	r3, r3, r7
1000692e:	0ae7      	lsrs	r7, r4, #11
10006930:	0564      	lsls	r4, r4, #21
10006932:	0d64      	lsrs	r4, r4, #21
10006934:	d002      	beq.n	1000693c <l19_1>
10006936:	1c66      	adds	r6, r4, #1
10006938:	0af6      	lsrs	r6, r6, #11
1000693a:	d004      	beq.n	10006946 <l19_2>

1000693c <l19_1>:
1000693c:	2200      	movs	r2, #0
1000693e:	2301      	movs	r3, #1
10006940:	051b      	lsls	r3, r3, #20
10006942:	3c80      	subs	r4, #128	; 0x80
10006944:	0324      	lsls	r4, r4, #12

10006946 <l19_2>:
10006946:	25d0      	movs	r5, #208	; 0xd0
10006948:	062d      	lsls	r5, r5, #24
1000694a:	2600      	movs	r6, #0
1000694c:	43f6      	mvns	r6, r6
1000694e:	662e      	str	r6, [r5, #96]	; 0x60
10006950:	091e      	lsrs	r6, r3, #4
10006952:	666e      	str	r6, [r5, #100]	; 0x64
10006954:	0fce      	lsrs	r6, r1, #31
10006956:	19f6      	adds	r6, r6, r7
10006958:	46b4      	mov	ip, r6
1000695a:	0049      	lsls	r1, r1, #1
1000695c:	0d4f      	lsrs	r7, r1, #21
1000695e:	d002      	beq.n	10006966 <l19_2+0x20>
10006960:	1c7e      	adds	r6, r7, #1
10006962:	0af6      	lsrs	r6, r6, #11
10006964:	d003      	beq.n	1000696e <l19_2+0x28>
10006966:	2000      	movs	r0, #0
10006968:	2100      	movs	r1, #0
1000696a:	3f40      	subs	r7, #64	; 0x40
1000696c:	033f      	lsls	r7, r7, #12
1000696e:	1b3e      	subs	r6, r7, r4
10006970:	00b6      	lsls	r6, r6, #2
10006972:	44b4      	add	ip, r6
10006974:	3f01      	subs	r7, #1
10006976:	057f      	lsls	r7, r7, #21
10006978:	1bc9      	subs	r1, r1, r7
1000697a:	0849      	lsrs	r1, r1, #1
1000697c:	6f2e      	ldr	r6, [r5, #112]	; 0x70
1000697e:	3601      	adds	r6, #1
10006980:	0876      	lsrs	r6, r6, #1
10006982:	029c      	lsls	r4, r3, #10
10006984:	0d95      	lsrs	r5, r2, #22
10006986:	4325      	orrs	r5, r4
10006988:	4375      	muls	r5, r6
1000698a:	13ed      	asrs	r5, r5, #15
1000698c:	4375      	muls	r5, r6
1000698e:	13ad      	asrs	r5, r5, #14
10006990:	3501      	adds	r5, #1
10006992:	106d      	asrs	r5, r5, #1
10006994:	03f6      	lsls	r6, r6, #15
10006996:	1b76      	subs	r6, r6, r5
10006998:	b40c      	push	{r2, r3}
1000699a:	02cc      	lsls	r4, r1, #11
1000699c:	0d45      	lsrs	r5, r0, #21
1000699e:	432c      	orrs	r4, r5
100069a0:	b2a2      	uxth	r2, r4
100069a2:	b2b3      	uxth	r3, r6
100069a4:	435a      	muls	r2, r3
100069a6:	0c27      	lsrs	r7, r4, #16
100069a8:	437b      	muls	r3, r7
100069aa:	0c35      	lsrs	r5, r6, #16
100069ac:	436f      	muls	r7, r5
100069ae:	b2a4      	uxth	r4, r4
100069b0:	436c      	muls	r4, r5
100069b2:	191b      	adds	r3, r3, r4
100069b4:	d302      	bcc.n	100069bc <l20_1>
100069b6:	2401      	movs	r4, #1
100069b8:	0424      	lsls	r4, r4, #16
100069ba:	193f      	adds	r7, r7, r4

100069bc <l20_1>:
100069bc:	041c      	lsls	r4, r3, #16
100069be:	0c1d      	lsrs	r5, r3, #16
100069c0:	18a4      	adds	r4, r4, r2
100069c2:	417d      	adcs	r5, r7
100069c4:	1924      	adds	r4, r4, r4
100069c6:	416d      	adcs	r5, r5
100069c8:	9a00      	ldr	r2, [sp, #0]
100069ca:	b291      	uxth	r1, r2
100069cc:	b2ac      	uxth	r4, r5
100069ce:	4361      	muls	r1, r4
100069d0:	0c17      	lsrs	r7, r2, #16
100069d2:	437c      	muls	r4, r7
100069d4:	0c2b      	lsrs	r3, r5, #16
100069d6:	435f      	muls	r7, r3
100069d8:	b292      	uxth	r2, r2
100069da:	435a      	muls	r2, r3
100069dc:	18a4      	adds	r4, r4, r2
100069de:	d302      	bcc.n	100069e6 <l21_1>
100069e0:	2201      	movs	r2, #1
100069e2:	0412      	lsls	r2, r2, #16
100069e4:	18bf      	adds	r7, r7, r2

100069e6 <l21_1>:
100069e6:	0422      	lsls	r2, r4, #16
100069e8:	0c23      	lsrs	r3, r4, #16
100069ea:	1852      	adds	r2, r2, r1
100069ec:	417b      	adcs	r3, r7
100069ee:	9c01      	ldr	r4, [sp, #4]
100069f0:	436c      	muls	r4, r5
100069f2:	191b      	adds	r3, r3, r4
100069f4:	0e52      	lsrs	r2, r2, #25
100069f6:	01d9      	lsls	r1, r3, #7
100069f8:	430a      	orrs	r2, r1
100069fa:	0144      	lsls	r4, r0, #5
100069fc:	1aa0      	subs	r0, r4, r2
100069fe:	b281      	uxth	r1, r0
10006a00:	b2b2      	uxth	r2, r6
10006a02:	4351      	muls	r1, r2
10006a04:	1403      	asrs	r3, r0, #16
10006a06:	435a      	muls	r2, r3
10006a08:	0c36      	lsrs	r6, r6, #16
10006a0a:	4373      	muls	r3, r6
10006a0c:	b287      	uxth	r7, r0
10006a0e:	4377      	muls	r7, r6
10006a10:	17d6      	asrs	r6, r2, #31
10006a12:	19d2      	adds	r2, r2, r7
10006a14:	2700      	movs	r7, #0
10006a16:	417e      	adcs	r6, r7
10006a18:	0436      	lsls	r6, r6, #16
10006a1a:	199b      	adds	r3, r3, r6
10006a1c:	0417      	lsls	r7, r2, #16
10006a1e:	0c16      	lsrs	r6, r2, #16
10006a20:	187f      	adds	r7, r7, r1
10006a22:	415e      	adcs	r6, r3
10006a24:	1673      	asrs	r3, r6, #25
10006a26:	18ed      	adds	r5, r5, r3
10006a28:	01f3      	lsls	r3, r6, #7
10006a2a:	2600      	movs	r6, #0
10006a2c:	3380      	adds	r3, #128	; 0x80
10006a2e:	4175      	adcs	r5, r6
10006a30:	0fa9      	lsrs	r1, r5, #30
10006a32:	d106      	bne.n	10006a42 <dd_0>
10006a34:	0064      	lsls	r4, r4, #1
10006a36:	0a69      	lsrs	r1, r5, #9
10006a38:	05e8      	lsls	r0, r5, #23
10006a3a:	0a5b      	lsrs	r3, r3, #9
10006a3c:	4318      	orrs	r0, r3
10006a3e:	d209      	bcs.n	10006a54 <dd_1>
10006a40:	e02f      	b.n	10006aa2 <dd_2>

10006a42 <dd_0>:
10006a42:	2204      	movs	r2, #4
10006a44:	4494      	add	ip, r2
10006a46:	3380      	adds	r3, #128	; 0x80
10006a48:	4175      	adcs	r5, r6
10006a4a:	0aa9      	lsrs	r1, r5, #10
10006a4c:	05a8      	lsls	r0, r5, #22
10006a4e:	0a9b      	lsrs	r3, r3, #10
10006a50:	4318      	orrs	r0, r3
10006a52:	d326      	bcc.n	10006aa2 <dd_2>

10006a54 <dd_1>:
10006a54:	4140      	adcs	r0, r0
10006a56:	4149      	adcs	r1, r1
10006a58:	0424      	lsls	r4, r4, #16
10006a5a:	9a00      	ldr	r2, [sp, #0]
10006a5c:	9b01      	ldr	r3, [sp, #4]
10006a5e:	000d      	movs	r5, r1
10006a60:	4355      	muls	r5, r2
10006a62:	1b64      	subs	r4, r4, r5
10006a64:	4343      	muls	r3, r0
10006a66:	1ae4      	subs	r4, r4, r3
10006a68:	b295      	uxth	r5, r2
10006a6a:	b286      	uxth	r6, r0
10006a6c:	4375      	muls	r5, r6
10006a6e:	0c17      	lsrs	r7, r2, #16
10006a70:	437e      	muls	r6, r7
10006a72:	0c03      	lsrs	r3, r0, #16
10006a74:	435f      	muls	r7, r3
10006a76:	b292      	uxth	r2, r2
10006a78:	435a      	muls	r2, r3
10006a7a:	18b6      	adds	r6, r6, r2
10006a7c:	d302      	bcc.n	10006a84 <l23_1>
10006a7e:	2201      	movs	r2, #1
10006a80:	0412      	lsls	r2, r2, #16
10006a82:	18bf      	adds	r7, r7, r2

10006a84 <l23_1>:
10006a84:	0432      	lsls	r2, r6, #16
10006a86:	0c33      	lsrs	r3, r6, #16
10006a88:	1952      	adds	r2, r2, r5
10006a8a:	417b      	adcs	r3, r7
10006a8c:	4252      	negs	r2, r2
10006a8e:	419c      	sbcs	r4, r3
10006a90:	2c00      	cmp	r4, #0
10006a92:	d402      	bmi.n	10006a9a <l23_1+0x16>
10006a94:	2200      	movs	r2, #0
10006a96:	3001      	adds	r0, #1
10006a98:	4151      	adcs	r1, r2
10006a9a:	0840      	lsrs	r0, r0, #1
10006a9c:	07ca      	lsls	r2, r1, #31
10006a9e:	4310      	orrs	r0, r2
10006aa0:	0849      	lsrs	r1, r1, #1

10006aa2 <dd_2>:
10006aa2:	b002      	add	sp, #8
10006aa4:	4662      	mov	r2, ip
10006aa6:	07d7      	lsls	r7, r2, #31
10006aa8:	1092      	asrs	r2, r2, #2
10006aaa:	4b08      	ldr	r3, [pc, #32]	; (10006acc <dd_4+0x6>)
10006aac:	18d2      	adds	r2, r2, r3
10006aae:	4b08      	ldr	r3, [pc, #32]	; (10006ad0 <dd_4+0xa>)
10006ab0:	429a      	cmp	r2, r3
10006ab2:	d203      	bcs.n	10006abc <dd_3>
10006ab4:	0512      	lsls	r2, r2, #20
10006ab6:	1889      	adds	r1, r1, r2

10006ab8 <dd_5>:
10006ab8:	19c9      	adds	r1, r1, r7
10006aba:	bdf0      	pop	{r4, r5, r6, r7, pc}

10006abc <dd_3>:
10006abc:	2000      	movs	r0, #0
10006abe:	2a00      	cmp	r2, #0
10006ac0:	dc01      	bgt.n	10006ac6 <dd_4>
10006ac2:	0039      	movs	r1, r7
10006ac4:	bdf0      	pop	{r4, r5, r6, r7, pc}

10006ac6 <dd_4>:
10006ac6:	3301      	adds	r3, #1
10006ac8:	0519      	lsls	r1, r3, #20
10006aca:	e7f5      	b.n	10006ab8 <dd_5>
10006acc:	000003fd 	.word	0x000003fd
10006ad0:	000007fe 	.word	0x000007fe

10006ad4 <double2uint_shim>:
10006ad4:	2200      	movs	r2, #0

10006ad6 <double2ufix_shim>:
10006ad6:	b500      	push	{lr}
10006ad8:	3220      	adds	r2, #32
10006ada:	f000 f804 	bl	10006ae6 <double2ufix64_shim>
10006ade:	0008      	movs	r0, r1
10006ae0:	bd00      	pop	{pc}
	...

10006ae4 <double2uint64_shim>:
10006ae4:	2200      	movs	r2, #0

10006ae6 <double2ufix64_shim>:
10006ae6:	150b      	asrs	r3, r1, #20
10006ae8:	d40a      	bmi.n	10006b00 <ret_dzero>

10006aea <d2fix>:
10006aea:	b510      	push	{r4, lr}
10006aec:	4694      	mov	ip, r2
10006aee:	f000 f831 	bl	10006b54 <dunpacks>
10006af2:	1414      	asrs	r4, r2, #16
10006af4:	3401      	adds	r4, #1
10006af6:	da00      	bge.n	10006afa <d2fix+0x10>
10006af8:	2100      	movs	r1, #0
10006afa:	17cb      	asrs	r3, r1, #31
10006afc:	4c14      	ldr	r4, [pc, #80]	; (10006b50 <d2fix_a+0x4a>)
10006afe:	4720      	bx	r4

10006b00 <ret_dzero>:
10006b00:	2000      	movs	r0, #0
10006b02:	2100      	movs	r1, #0
10006b04:	4770      	bx	lr

10006b06 <d2fix_a>:
10006b06:	4462      	add	r2, ip
10006b08:	3a34      	subs	r2, #52	; 0x34
10006b0a:	d40c      	bmi.n	10006b26 <d2fix_a+0x20>
10006b0c:	2a0c      	cmp	r2, #12
10006b0e:	da07      	bge.n	10006b20 <d2fix_a+0x1a>
10006b10:	0004      	movs	r4, r0
10006b12:	4091      	lsls	r1, r2
10006b14:	4090      	lsls	r0, r2
10006b16:	4252      	negs	r2, r2
10006b18:	3220      	adds	r2, #32
10006b1a:	40d4      	lsrs	r4, r2
10006b1c:	4321      	orrs	r1, r4
10006b1e:	bd10      	pop	{r4, pc}
10006b20:	43d8      	mvns	r0, r3
10006b22:	43d9      	mvns	r1, r3
10006b24:	bd10      	pop	{r4, pc}
10006b26:	3220      	adds	r2, #32
10006b28:	d407      	bmi.n	10006b3a <d2fix_a+0x34>
10006b2a:	460c      	mov	r4, r1
10006b2c:	4094      	lsls	r4, r2
10006b2e:	4252      	negs	r2, r2
10006b30:	3220      	adds	r2, #32
10006b32:	4111      	asrs	r1, r2
10006b34:	40d0      	lsrs	r0, r2
10006b36:	4320      	orrs	r0, r4
10006b38:	bd10      	pop	{r4, pc}
10006b3a:	0008      	movs	r0, r1
10006b3c:	17c9      	asrs	r1, r1, #31
10006b3e:	3220      	adds	r2, #32
10006b40:	d403      	bmi.n	10006b4a <d2fix_a+0x44>
10006b42:	4252      	negs	r2, r2
10006b44:	3220      	adds	r2, #32
10006b46:	4110      	asrs	r0, r2
10006b48:	bd10      	pop	{r4, pc}
10006b4a:	0018      	movs	r0, r3
10006b4c:	0019      	movs	r1, r3
10006b4e:	bd10      	pop	{r4, pc}
10006b50:	10006b07 	.word	0x10006b07

10006b54 <dunpacks>:
10006b54:	0d0a      	lsrs	r2, r1, #20
10006b56:	0fcc      	lsrs	r4, r1, #31
10006b58:	1e53      	subs	r3, r2, #1
10006b5a:	051b      	lsls	r3, r3, #20
10006b5c:	1ac9      	subs	r1, r1, r3
10006b5e:	0552      	lsls	r2, r2, #21
10006b60:	d303      	bcc.n	10006b6a <l59_1>
10006b62:	43c9      	mvns	r1, r1
10006b64:	4240      	negs	r0, r0
10006b66:	d300      	bcc.n	10006b6a <l59_1>
10006b68:	3101      	adds	r1, #1

10006b6a <l59_1>:
10006b6a:	0d52      	lsrs	r2, r2, #21
10006b6c:	d003      	beq.n	10006b76 <l59_2>
10006b6e:	1c53      	adds	r3, r2, #1
10006b70:	0adb      	lsrs	r3, r3, #11
10006b72:	d007      	beq.n	10006b84 <l59_3>
10006b74:	1b12      	subs	r2, r2, r4

10006b76 <l59_2>:
10006b76:	2000      	movs	r0, #0
10006b78:	0064      	lsls	r4, r4, #1
10006b7a:	1c61      	adds	r1, r4, #1
10006b7c:	0789      	lsls	r1, r1, #30
10006b7e:	1289      	asrs	r1, r1, #10
10006b80:	3a80      	subs	r2, #128	; 0x80
10006b82:	0312      	lsls	r2, r2, #12

10006b84 <l59_3>:
10006b84:	4b01      	ldr	r3, [pc, #4]	; (10006b8c <l59_3+0x8>)
10006b86:	1ad2      	subs	r2, r2, r3
10006b88:	4770      	bx	lr
10006b8a:	0000      	.short	0x0000
10006b8c:	000003ff 	.word	0x000003ff

10006b90 <__wrap___aeabi_lmul>:
10006b90:	4351      	muls	r1, r2
10006b92:	4343      	muls	r3, r0
10006b94:	18c9      	adds	r1, r1, r3
10006b96:	468c      	mov	ip, r1
10006b98:	0c11      	lsrs	r1, r2, #16
10006b9a:	b283      	uxth	r3, r0
10006b9c:	434b      	muls	r3, r1
10006b9e:	b410      	push	{r4}
10006ba0:	0c04      	lsrs	r4, r0, #16
10006ba2:	4361      	muls	r1, r4
10006ba4:	b292      	uxth	r2, r2
10006ba6:	b280      	uxth	r0, r0
10006ba8:	4350      	muls	r0, r2
10006baa:	4362      	muls	r2, r4
10006bac:	041c      	lsls	r4, r3, #16
10006bae:	0c1b      	lsrs	r3, r3, #16
10006bb0:	1900      	adds	r0, r0, r4
10006bb2:	bc10      	pop	{r4}
10006bb4:	4159      	adcs	r1, r3
10006bb6:	0413      	lsls	r3, r2, #16
10006bb8:	0c12      	lsrs	r2, r2, #16
10006bba:	18c0      	adds	r0, r0, r3
10006bbc:	4151      	adcs	r1, r2
10006bbe:	4461      	add	r1, ip
10006bc0:	4770      	bx	lr
	...

10006bc4 <__aeabi_float_init>:
10006bc4:	b570      	push	{r4, r5, r6, lr}
10006bc6:	2313      	movs	r3, #19
10006bc8:	781d      	ldrb	r5, [r3, #0]
10006bca:	482a      	ldr	r0, [pc, #168]	; (10006c74 <__aeabi_float_init+0xb0>)
10006bcc:	f7ff f950 	bl	10005e70 <rom_data_lookup>
10006bd0:	0004      	movs	r4, r0
10006bd2:	2d01      	cmp	r5, #1
10006bd4:	d011      	beq.n	10006bfa <__aeabi_float_init+0x36>
10006bd6:	2d01      	cmp	r5, #1
10006bd8:	dd09      	ble.n	10006bee <__aeabi_float_init+0x2a>
10006bda:	1ea3      	subs	r3, r4, #2
10006bdc:	781b      	ldrb	r3, [r3, #0]
10006bde:	009b      	lsls	r3, r3, #2
10006be0:	2b7f      	cmp	r3, #127	; 0x7f
10006be2:	dd40      	ble.n	10006c66 <__aeabi_float_init+0xa2>
10006be4:	2280      	movs	r2, #128	; 0x80
10006be6:	0021      	movs	r1, r4
10006be8:	4823      	ldr	r0, [pc, #140]	; (10006c78 <__aeabi_float_init+0xb4>)
10006bea:	f000 f891 	bl	10006d10 <__wrap___aeabi_memcpy>
10006bee:	4823      	ldr	r0, [pc, #140]	; (10006c7c <__aeabi_float_init+0xb8>)
10006bf0:	f7ff f936 	bl	10005e60 <rom_func_lookup>
10006bf4:	4b22      	ldr	r3, [pc, #136]	; (10006c80 <__aeabi_float_init+0xbc>)
10006bf6:	6018      	str	r0, [r3, #0]
10006bf8:	bd70      	pop	{r4, r5, r6, pc}
10006bfa:	2254      	movs	r2, #84	; 0x54
10006bfc:	0001      	movs	r1, r0
10006bfe:	481e      	ldr	r0, [pc, #120]	; (10006c78 <__aeabi_float_init+0xb4>)
10006c00:	f000 f886 	bl	10006d10 <__wrap___aeabi_memcpy>
10006c04:	4b1f      	ldr	r3, [pc, #124]	; (10006c84 <__aeabi_float_init+0xc0>)
10006c06:	881a      	ldrh	r2, [r3, #0]
10006c08:	4b1f      	ldr	r3, [pc, #124]	; (10006c88 <__aeabi_float_init+0xc4>)
10006c0a:	429a      	cmp	r2, r3
10006c0c:	d11c      	bne.n	10006c48 <__aeabi_float_init+0x84>
10006c0e:	23a7      	movs	r3, #167	; 0xa7
10006c10:	019b      	lsls	r3, r3, #6
10006c12:	881a      	ldrh	r2, [r3, #0]
10006c14:	4b1d      	ldr	r3, [pc, #116]	; (10006c8c <__aeabi_float_init+0xc8>)
10006c16:	429a      	cmp	r2, r3
10006c18:	d116      	bne.n	10006c48 <__aeabi_float_init+0x84>
10006c1a:	4b1d      	ldr	r3, [pc, #116]	; (10006c90 <__aeabi_float_init+0xcc>)
10006c1c:	881a      	ldrh	r2, [r3, #0]
10006c1e:	4b1d      	ldr	r3, [pc, #116]	; (10006c94 <__aeabi_float_init+0xd0>)
10006c20:	429a      	cmp	r2, r3
10006c22:	d111      	bne.n	10006c48 <__aeabi_float_init+0x84>
10006c24:	4b1c      	ldr	r3, [pc, #112]	; (10006c98 <__aeabi_float_init+0xd4>)
10006c26:	881a      	ldrh	r2, [r3, #0]
10006c28:	2394      	movs	r3, #148	; 0x94
10006c2a:	019b      	lsls	r3, r3, #6
10006c2c:	429a      	cmp	r2, r3
10006c2e:	d10b      	bne.n	10006c48 <__aeabi_float_init+0x84>
10006c30:	4b1a      	ldr	r3, [pc, #104]	; (10006c9c <__aeabi_float_init+0xd8>)
10006c32:	881a      	ldrh	r2, [r3, #0]
10006c34:	4b1a      	ldr	r3, [pc, #104]	; (10006ca0 <__aeabi_float_init+0xdc>)
10006c36:	429a      	cmp	r2, r3
10006c38:	d106      	bne.n	10006c48 <__aeabi_float_init+0x84>
10006c3a:	4b1a      	ldr	r3, [pc, #104]	; (10006ca4 <__aeabi_float_init+0xe0>)
10006c3c:	681a      	ldr	r2, [r3, #0]
10006c3e:	4b1a      	ldr	r3, [pc, #104]	; (10006ca8 <__aeabi_float_init+0xe4>)
10006c40:	429a      	cmp	r2, r3
10006c42:	d101      	bne.n	10006c48 <__aeabi_float_init+0x84>
10006c44:	2315      	movs	r3, #21
10006c46:	e007      	b.n	10006c58 <__aeabi_float_init+0x94>
10006c48:	4818      	ldr	r0, [pc, #96]	; (10006cac <__aeabi_float_init+0xe8>)
10006c4a:	f7fd fe3d 	bl	100048c8 <panic>
10006c4e:	0099      	lsls	r1, r3, #2
10006c50:	4817      	ldr	r0, [pc, #92]	; (10006cb0 <__aeabi_float_init+0xec>)
10006c52:	4a09      	ldr	r2, [pc, #36]	; (10006c78 <__aeabi_float_init+0xb4>)
10006c54:	5088      	str	r0, [r1, r2]
10006c56:	3301      	adds	r3, #1
10006c58:	2b1f      	cmp	r3, #31
10006c5a:	d9f8      	bls.n	10006c4e <__aeabi_float_init+0x8a>
10006c5c:	4a14      	ldr	r2, [pc, #80]	; (10006cb0 <__aeabi_float_init+0xec>)
10006c5e:	4b06      	ldr	r3, [pc, #24]	; (10006c78 <__aeabi_float_init+0xb4>)
10006c60:	621a      	str	r2, [r3, #32]
10006c62:	61da      	str	r2, [r3, #28]
10006c64:	e7b7      	b.n	10006bd6 <__aeabi_float_init+0x12>
10006c66:	4b13      	ldr	r3, [pc, #76]	; (10006cb4 <__aeabi_float_init+0xf0>)
10006c68:	4a13      	ldr	r2, [pc, #76]	; (10006cb8 <__aeabi_float_init+0xf4>)
10006c6a:	2142      	movs	r1, #66	; 0x42
10006c6c:	4813      	ldr	r0, [pc, #76]	; (10006cbc <__aeabi_float_init+0xf8>)
10006c6e:	f7fd fd91 	bl	10004794 <__assert_func>
10006c72:	46c0      	nop			; (mov r8, r8)
10006c74:	00004653 	.word	0x00004653
10006c78:	20019154 	.word	0x20019154
10006c7c:	0000334c 	.word	0x0000334c
10006c80:	20008fa0 	.word	0x20008fa0
10006c84:	000029ee 	.word	0x000029ee
10006c88:	00000fc4 	.word	0x00000fc4
10006c8c:	00000dc2 	.word	0x00000dc2
10006c90:	00002b96 	.word	0x00002b96
10006c94:	0000b5c0 	.word	0x0000b5c0
10006c98:	00002b18 	.word	0x00002b18
10006c9c:	00002acc 	.word	0x00002acc
10006ca0:	0000b510 	.word	0x0000b510
10006ca4:	00002cfc 	.word	0x00002cfc
10006ca8:	6487ed51 	.word	0x6487ed51
10006cac:	1000a2b8 	.word	0x1000a2b8
10006cb0:	10006cc1 	.word	0x10006cc1
10006cb4:	1000b974 	.word	0x1000b974
10006cb8:	1000b9f4 	.word	0x1000b9f4
10006cbc:	1000b9a8 	.word	0x1000b9a8

10006cc0 <float_table_shim_on_use_helper>:
10006cc0:	b507      	push	{r0, r1, r2, lr}
10006cc2:	4660      	mov	r0, ip
10006cc4:	2800      	cmp	r0, #0
10006cc6:	d100      	bne.n	10006cca <float_table_shim_on_use_helper+0xa>
10006cc8:	be00      	bkpt	0x0000
10006cca:	8801      	ldrh	r1, [r0, #0]
10006ccc:	0a0a      	lsrs	r2, r1, #8
10006cce:	3002      	adds	r0, #2
10006cd0:	2adf      	cmp	r2, #223	; 0xdf
10006cd2:	d1fa      	bne.n	10006cca <float_table_shim_on_use_helper+0xa>
10006cd4:	b2c9      	uxtb	r1, r1
10006cd6:	0882      	lsrs	r2, r0, #2
10006cd8:	d304      	bcc.n	10006ce4 <float_table_shim_on_use_helper+0x24>
10006cda:	8802      	ldrh	r2, [r0, #0]
10006cdc:	8840      	ldrh	r0, [r0, #2]
10006cde:	0400      	lsls	r0, r0, #16
10006ce0:	4310      	orrs	r0, r2
10006ce2:	e000      	b.n	10006ce6 <float_table_shim_on_use_helper+0x26>
10006ce4:	6800      	ldr	r0, [r0, #0]
10006ce6:	4a02      	ldr	r2, [pc, #8]	; (10006cf0 <float_table_shim_on_use_helper+0x30>)
10006ce8:	5050      	str	r0, [r2, r1]
10006cea:	9003      	str	r0, [sp, #12]
10006cec:	bd07      	pop	{r0, r1, r2, pc}
10006cee:	0000      	.short	0x0000
10006cf0:	20019154 	.word	0x20019154

10006cf4 <__aeabi_mem_init>:
10006cf4:	4801      	ldr	r0, [pc, #4]	; (10006cfc <__aeabi_mem_init+0x8>)
10006cf6:	2104      	movs	r1, #4
10006cf8:	4b01      	ldr	r3, [pc, #4]	; (10006d00 <__aeabi_mem_init+0xc>)
10006cfa:	4718      	bx	r3
10006cfc:	20008490 	.word	0x20008490
10006d00:	10005e81 	.word	0x10005e81

10006d04 <__wrap_memset>:
10006d04:	4b01      	ldr	r3, [pc, #4]	; (10006d0c <__wrap_memset+0x8>)
10006d06:	681b      	ldr	r3, [r3, #0]
10006d08:	4718      	bx	r3
10006d0a:	0000      	.short	0x0000
10006d0c:	20008490 	.word	0x20008490

10006d10 <__wrap___aeabi_memcpy>:
10006d10:	4b01      	ldr	r3, [pc, #4]	; (10006d18 <__wrap___aeabi_memcpy+0x8>)
10006d12:	685b      	ldr	r3, [r3, #4]
10006d14:	4718      	bx	r3
10006d16:	0000      	.short	0x0000
10006d18:	20008490 	.word	0x20008490

10006d1c <stdio_out_chars_no_crlf>:
10006d1c:	b510      	push	{r4, lr}
10006d1e:	000c      	movs	r4, r1
10006d20:	6803      	ldr	r3, [r0, #0]
10006d22:	0011      	movs	r1, r2
10006d24:	0020      	movs	r0, r4
10006d26:	4798      	blx	r3
10006d28:	bd10      	pop	{r4, pc}
	...

10006d2c <stdio_out_chars_crlf>:
10006d2c:	b5f8      	push	{r3, r4, r5, r6, r7, lr}
10006d2e:	0007      	movs	r7, r0
10006d30:	000d      	movs	r5, r1
10006d32:	0016      	movs	r6, r2
10006d34:	7c43      	ldrb	r3, [r0, #17]
10006d36:	2b00      	cmp	r3, #0
10006d38:	d002      	beq.n	10006d40 <stdio_out_chars_crlf+0x14>
10006d3a:	2400      	movs	r4, #0
10006d3c:	2000      	movs	r0, #0
10006d3e:	e00c      	b.n	10006d5a <stdio_out_chars_crlf+0x2e>
10006d40:	6803      	ldr	r3, [r0, #0]
10006d42:	0011      	movs	r1, r2
10006d44:	0028      	movs	r0, r5
10006d46:	4798      	blx	r3
10006d48:	e02d      	b.n	10006da6 <stdio_out_chars_crlf+0x7a>
10006d4a:	7c3b      	ldrb	r3, [r7, #16]
10006d4c:	e010      	b.n	10006d70 <stdio_out_chars_crlf+0x44>
10006d4e:	2102      	movs	r1, #2
10006d50:	4815      	ldr	r0, [pc, #84]	; (10006da8 <stdio_out_chars_crlf+0x7c>)
10006d52:	683b      	ldr	r3, [r7, #0]
10006d54:	4798      	blx	r3
10006d56:	1c60      	adds	r0, r4, #1
10006d58:	3401      	adds	r4, #1
10006d5a:	42b4      	cmp	r4, r6
10006d5c:	da14      	bge.n	10006d88 <stdio_out_chars_crlf+0x5c>
10006d5e:	2c00      	cmp	r4, #0
10006d60:	ddf3      	ble.n	10006d4a <stdio_out_chars_crlf+0x1e>
10006d62:	192b      	adds	r3, r5, r4
10006d64:	3b01      	subs	r3, #1
10006d66:	781b      	ldrb	r3, [r3, #0]
10006d68:	3b0d      	subs	r3, #13
10006d6a:	425a      	negs	r2, r3
10006d6c:	4153      	adcs	r3, r2
10006d6e:	b2db      	uxtb	r3, r3
10006d70:	5d2a      	ldrb	r2, [r5, r4]
10006d72:	2a0a      	cmp	r2, #10
10006d74:	d1f0      	bne.n	10006d58 <stdio_out_chars_crlf+0x2c>
10006d76:	2b00      	cmp	r3, #0
10006d78:	d1ee      	bne.n	10006d58 <stdio_out_chars_crlf+0x2c>
10006d7a:	42a0      	cmp	r0, r4
10006d7c:	dae7      	bge.n	10006d4e <stdio_out_chars_crlf+0x22>
10006d7e:	1a21      	subs	r1, r4, r0
10006d80:	1828      	adds	r0, r5, r0
10006d82:	683b      	ldr	r3, [r7, #0]
10006d84:	4798      	blx	r3
10006d86:	e7e2      	b.n	10006d4e <stdio_out_chars_crlf+0x22>
10006d88:	42b0      	cmp	r0, r6
10006d8a:	da03      	bge.n	10006d94 <stdio_out_chars_crlf+0x68>
10006d8c:	1a31      	subs	r1, r6, r0
10006d8e:	1828      	adds	r0, r5, r0
10006d90:	683b      	ldr	r3, [r7, #0]
10006d92:	4798      	blx	r3
10006d94:	2e00      	cmp	r6, #0
10006d96:	dd06      	ble.n	10006da6 <stdio_out_chars_crlf+0x7a>
10006d98:	19ad      	adds	r5, r5, r6
10006d9a:	3d01      	subs	r5, #1
10006d9c:	782b      	ldrb	r3, [r5, #0]
10006d9e:	3b0d      	subs	r3, #13
10006da0:	425a      	negs	r2, r3
10006da2:	4153      	adcs	r3, r2
10006da4:	743b      	strb	r3, [r7, #16]
10006da6:	bdf8      	pop	{r3, r4, r5, r6, r7, pc}
10006da8:	1000bae4 	.word	0x1000bae4

10006dac <stdio_stack_buffer_flush>:
10006dac:	b570      	push	{r4, r5, r6, lr}
10006dae:	0005      	movs	r5, r0
10006db0:	6803      	ldr	r3, [r0, #0]
10006db2:	2b00      	cmp	r3, #0
10006db4:	d016      	beq.n	10006de4 <stdio_stack_buffer_flush+0x38>
10006db6:	4b0c      	ldr	r3, [pc, #48]	; (10006de8 <stdio_stack_buffer_flush+0x3c>)
10006db8:	681c      	ldr	r4, [r3, #0]
10006dba:	e005      	b.n	10006dc8 <stdio_stack_buffer_flush+0x1c>
10006dbc:	0029      	movs	r1, r5
10006dbe:	c904      	ldmia	r1!, {r2}
10006dc0:	0020      	movs	r0, r4
10006dc2:	f7ff ffb3 	bl	10006d2c <stdio_out_chars_crlf>
10006dc6:	68e4      	ldr	r4, [r4, #12]
10006dc8:	2c00      	cmp	r4, #0
10006dca:	d009      	beq.n	10006de0 <stdio_stack_buffer_flush+0x34>
10006dcc:	6823      	ldr	r3, [r4, #0]
10006dce:	2b00      	cmp	r3, #0
10006dd0:	d0f9      	beq.n	10006dc6 <stdio_stack_buffer_flush+0x1a>
10006dd2:	4b06      	ldr	r3, [pc, #24]	; (10006dec <stdio_stack_buffer_flush+0x40>)
10006dd4:	681b      	ldr	r3, [r3, #0]
10006dd6:	2b00      	cmp	r3, #0
10006dd8:	d0f0      	beq.n	10006dbc <stdio_stack_buffer_flush+0x10>
10006dda:	42a3      	cmp	r3, r4
10006ddc:	d1f3      	bne.n	10006dc6 <stdio_stack_buffer_flush+0x1a>
10006dde:	e7ed      	b.n	10006dbc <stdio_stack_buffer_flush+0x10>
10006de0:	2300      	movs	r3, #0
10006de2:	602b      	str	r3, [r5, #0]
10006de4:	bd70      	pop	{r4, r5, r6, pc}
10006de6:	46c0      	nop			; (mov r8, r8)
10006de8:	20008b74 	.word	0x20008b74
10006dec:	20008b78 	.word	0x20008b78

10006df0 <stdio_buffered_printer>:
10006df0:	b570      	push	{r4, r5, r6, lr}
10006df2:	0005      	movs	r5, r0
10006df4:	000c      	movs	r4, r1
10006df6:	680b      	ldr	r3, [r1, #0]
10006df8:	2b80      	cmp	r3, #128	; 0x80
10006dfa:	d005      	beq.n	10006e08 <stdio_buffered_printer+0x18>
10006dfc:	6823      	ldr	r3, [r4, #0]
10006dfe:	1c5a      	adds	r2, r3, #1
10006e00:	6022      	str	r2, [r4, #0]
10006e02:	18e4      	adds	r4, r4, r3
10006e04:	7125      	strb	r5, [r4, #4]
10006e06:	bd70      	pop	{r4, r5, r6, pc}
10006e08:	0008      	movs	r0, r1
10006e0a:	f7ff ffcf 	bl	10006dac <stdio_stack_buffer_flush>
10006e0e:	e7f5      	b.n	10006dfc <stdio_buffered_printer+0xc>

10006e10 <stdio_get_until>:
10006e10:	b5f0      	push	{r4, r5, r6, r7, lr}
10006e12:	b083      	sub	sp, #12
10006e14:	0005      	movs	r5, r0
10006e16:	000c      	movs	r4, r1
10006e18:	0017      	movs	r7, r2
10006e1a:	9301      	str	r3, [sp, #4]
10006e1c:	e027      	b.n	10006e6e <stdio_get_until+0x5e>
10006e1e:	68b3      	ldr	r3, [r6, #8]
10006e20:	2b00      	cmp	r3, #0
10006e22:	d004      	beq.n	10006e2e <stdio_get_until+0x1e>
10006e24:	0021      	movs	r1, r4
10006e26:	0028      	movs	r0, r5
10006e28:	4798      	blx	r3
10006e2a:	2800      	cmp	r0, #0
10006e2c:	dc26      	bgt.n	10006e7c <stdio_get_until+0x6c>
10006e2e:	68f6      	ldr	r6, [r6, #12]
10006e30:	2e00      	cmp	r6, #0
10006e32:	d006      	beq.n	10006e42 <stdio_get_until+0x32>
10006e34:	4b12      	ldr	r3, [pc, #72]	; (10006e80 <stdio_get_until+0x70>)
10006e36:	681b      	ldr	r3, [r3, #0]
10006e38:	2b00      	cmp	r3, #0
10006e3a:	d0f0      	beq.n	10006e1e <stdio_get_until+0xe>
10006e3c:	42b3      	cmp	r3, r6
10006e3e:	d1f6      	bne.n	10006e2e <stdio_get_until+0x1e>
10006e40:	e7ed      	b.n	10006e1e <stdio_get_until+0xe>
10006e42:	9a01      	ldr	r2, [sp, #4]
10006e44:	4b0f      	ldr	r3, [pc, #60]	; (10006e84 <stdio_get_until+0x74>)
10006e46:	6a5b      	ldr	r3, [r3, #36]	; 0x24
10006e48:	429a      	cmp	r2, r3
10006e4a:	d809      	bhi.n	10006e60 <stdio_get_until+0x50>
10006e4c:	480d      	ldr	r0, [pc, #52]	; (10006e84 <stdio_get_until+0x74>)
10006e4e:	6a80      	ldr	r0, [r0, #40]	; 0x28
10006e50:	42b8      	cmp	r0, r7
10006e52:	d20f      	bcs.n	10006e74 <stdio_get_until+0x64>
10006e54:	429a      	cmp	r2, r3
10006e56:	d001      	beq.n	10006e5c <stdio_get_until+0x4c>
10006e58:	2301      	movs	r3, #1
10006e5a:	e002      	b.n	10006e62 <stdio_get_until+0x52>
10006e5c:	2300      	movs	r3, #0
10006e5e:	e000      	b.n	10006e62 <stdio_get_until+0x52>
10006e60:	2300      	movs	r3, #0
10006e62:	2b00      	cmp	r3, #0
10006e64:	d108      	bne.n	10006e78 <stdio_get_until+0x68>
10006e66:	2001      	movs	r0, #1
10006e68:	2100      	movs	r1, #0
10006e6a:	f7fd f94b 	bl	10004104 <busy_wait_us>
10006e6e:	4b06      	ldr	r3, [pc, #24]	; (10006e88 <stdio_get_until+0x78>)
10006e70:	681e      	ldr	r6, [r3, #0]
10006e72:	e7dd      	b.n	10006e30 <stdio_get_until+0x20>
10006e74:	2301      	movs	r3, #1
10006e76:	e7f4      	b.n	10006e62 <stdio_get_until+0x52>
10006e78:	2001      	movs	r0, #1
10006e7a:	4240      	negs	r0, r0
10006e7c:	b003      	add	sp, #12
10006e7e:	bdf0      	pop	{r4, r5, r6, r7, pc}
10006e80:	20008b78 	.word	0x20008b78
10006e84:	40054000 	.word	0x40054000
10006e88:	20008b74 	.word	0x20008b74

10006e8c <stdout_serialize_begin>:
10006e8c:	b510      	push	{r4, lr}
10006e8e:	b082      	sub	sp, #8
10006e90:	23d0      	movs	r3, #208	; 0xd0
10006e92:	061b      	lsls	r3, r3, #24
10006e94:	2400      	movs	r4, #0
10006e96:	571c      	ldrsb	r4, [r3, r4]
10006e98:	a901      	add	r1, sp, #4
10006e9a:	4807      	ldr	r0, [pc, #28]	; (10006eb8 <stdout_serialize_begin+0x2c>)
10006e9c:	f002 ff64 	bl	10009d68 <__mutex_try_enter_veneer>
10006ea0:	2800      	cmp	r0, #0
10006ea2:	d106      	bne.n	10006eb2 <stdout_serialize_begin+0x26>
10006ea4:	9b01      	ldr	r3, [sp, #4]
10006ea6:	429c      	cmp	r4, r3
10006ea8:	d003      	beq.n	10006eb2 <stdout_serialize_begin+0x26>
10006eaa:	4803      	ldr	r0, [pc, #12]	; (10006eb8 <stdout_serialize_begin+0x2c>)
10006eac:	f002 ff6c 	bl	10009d88 <__mutex_enter_blocking_veneer>
10006eb0:	2001      	movs	r0, #1
10006eb2:	b002      	add	sp, #8
10006eb4:	bd10      	pop	{r4, pc}
10006eb6:	46c0      	nop			; (mov r8, r8)
10006eb8:	200084e0 	.word	0x200084e0

10006ebc <stdout_serialize_end>:
10006ebc:	b510      	push	{r4, lr}
10006ebe:	4802      	ldr	r0, [pc, #8]	; (10006ec8 <stdout_serialize_end+0xc>)
10006ec0:	f002 ff3a 	bl	10009d38 <__mutex_exit_veneer>
10006ec4:	bd10      	pop	{r4, pc}
10006ec6:	46c0      	nop			; (mov r8, r8)
10006ec8:	200084e0 	.word	0x200084e0

10006ecc <stdio_put_string>:
10006ecc:	b5f0      	push	{r4, r5, r6, r7, lr}
10006ece:	46c6      	mov	lr, r8
10006ed0:	b500      	push	{lr}
10006ed2:	b084      	sub	sp, #16
10006ed4:	9001      	str	r0, [sp, #4]
10006ed6:	000d      	movs	r5, r1
10006ed8:	0016      	movs	r6, r2
10006eda:	001c      	movs	r4, r3
10006edc:	f7ff ffd6 	bl	10006e8c <stdout_serialize_begin>
10006ee0:	4680      	mov	r8, r0
10006ee2:	1c6b      	adds	r3, r5, #1
10006ee4:	d005      	beq.n	10006ef2 <stdio_put_string+0x26>
10006ee6:	2c00      	cmp	r4, #0
10006ee8:	d008      	beq.n	10006efc <stdio_put_string+0x30>
10006eea:	4f19      	ldr	r7, [pc, #100]	; (10006f50 <stdio_put_string+0x84>)
10006eec:	4b19      	ldr	r3, [pc, #100]	; (10006f54 <stdio_put_string+0x88>)
10006eee:	681c      	ldr	r4, [r3, #0]
10006ef0:	e007      	b.n	10006f02 <stdio_put_string+0x36>
10006ef2:	9801      	ldr	r0, [sp, #4]
10006ef4:	f002 fee0 	bl	10009cb8 <strlen>
10006ef8:	0005      	movs	r5, r0
10006efa:	e7f4      	b.n	10006ee6 <stdio_put_string+0x1a>
10006efc:	4f16      	ldr	r7, [pc, #88]	; (10006f58 <stdio_put_string+0x8c>)
10006efe:	e7f5      	b.n	10006eec <stdio_put_string+0x20>
10006f00:	68e4      	ldr	r4, [r4, #12]
10006f02:	2c00      	cmp	r4, #0
10006f04:	d016      	beq.n	10006f34 <stdio_put_string+0x68>
10006f06:	6823      	ldr	r3, [r4, #0]
10006f08:	2b00      	cmp	r3, #0
10006f0a:	d0f9      	beq.n	10006f00 <stdio_put_string+0x34>
10006f0c:	4b13      	ldr	r3, [pc, #76]	; (10006f5c <stdio_put_string+0x90>)
10006f0e:	681b      	ldr	r3, [r3, #0]
10006f10:	2b00      	cmp	r3, #0
10006f12:	d001      	beq.n	10006f18 <stdio_put_string+0x4c>
10006f14:	42a3      	cmp	r3, r4
10006f16:	d1f3      	bne.n	10006f00 <stdio_put_string+0x34>
10006f18:	002a      	movs	r2, r5
10006f1a:	9901      	ldr	r1, [sp, #4]
10006f1c:	0020      	movs	r0, r4
10006f1e:	47b8      	blx	r7
10006f20:	2e00      	cmp	r6, #0
10006f22:	d0ed      	beq.n	10006f00 <stdio_put_string+0x34>
10006f24:	ab02      	add	r3, sp, #8
10006f26:	1dd9      	adds	r1, r3, #7
10006f28:	230a      	movs	r3, #10
10006f2a:	700b      	strb	r3, [r1, #0]
10006f2c:	2201      	movs	r2, #1
10006f2e:	0020      	movs	r0, r4
10006f30:	47b8      	blx	r7
10006f32:	e7e5      	b.n	10006f00 <stdio_put_string+0x34>
10006f34:	4643      	mov	r3, r8
10006f36:	2b00      	cmp	r3, #0
10006f38:	d106      	bne.n	10006f48 <stdio_put_string+0x7c>
10006f3a:	1e68      	subs	r0, r5, #1
10006f3c:	4185      	sbcs	r5, r0
10006f3e:	b2e8      	uxtb	r0, r5
10006f40:	b004      	add	sp, #16
10006f42:	bc04      	pop	{r2}
10006f44:	4690      	mov	r8, r2
10006f46:	bdf0      	pop	{r4, r5, r6, r7, pc}
10006f48:	f7ff ffb8 	bl	10006ebc <stdout_serialize_end>
10006f4c:	e7f5      	b.n	10006f3a <stdio_put_string+0x6e>
10006f4e:	46c0      	nop			; (mov r8, r8)
10006f50:	10006d1d 	.word	0x10006d1d
10006f54:	20008b74 	.word	0x20008b74
10006f58:	10006d2d 	.word	0x10006d2d
10006f5c:	20008b78 	.word	0x20008b78

10006f60 <__wrap_putchar>:
10006f60:	b510      	push	{r4, lr}
10006f62:	b082      	sub	sp, #8
10006f64:	0004      	movs	r4, r0
10006f66:	466b      	mov	r3, sp
10006f68:	1dd8      	adds	r0, r3, #7
10006f6a:	7004      	strb	r4, [r0, #0]
10006f6c:	2300      	movs	r3, #0
10006f6e:	2200      	movs	r2, #0
10006f70:	2101      	movs	r1, #1
10006f72:	f7ff ffab 	bl	10006ecc <stdio_put_string>
10006f76:	0020      	movs	r0, r4
10006f78:	b002      	add	sp, #8
10006f7a:	bd10      	pop	{r4, pc}

10006f7c <stdio_set_driver_enabled>:
10006f7c:	4a09      	ldr	r2, [pc, #36]	; (10006fa4 <stdio_set_driver_enabled+0x28>)
10006f7e:	6813      	ldr	r3, [r2, #0]
10006f80:	2b00      	cmp	r3, #0
10006f82:	d00b      	beq.n	10006f9c <stdio_set_driver_enabled+0x20>
10006f84:	4283      	cmp	r3, r0
10006f86:	d002      	beq.n	10006f8e <stdio_set_driver_enabled+0x12>
10006f88:	330c      	adds	r3, #12
10006f8a:	001a      	movs	r2, r3
10006f8c:	e7f7      	b.n	10006f7e <stdio_set_driver_enabled+0x2>
10006f8e:	2900      	cmp	r1, #0
10006f90:	d107      	bne.n	10006fa2 <stdio_set_driver_enabled+0x26>
10006f92:	68c3      	ldr	r3, [r0, #12]
10006f94:	6013      	str	r3, [r2, #0]
10006f96:	2300      	movs	r3, #0
10006f98:	60c3      	str	r3, [r0, #12]
10006f9a:	e002      	b.n	10006fa2 <stdio_set_driver_enabled+0x26>
10006f9c:	2900      	cmp	r1, #0
10006f9e:	d000      	beq.n	10006fa2 <stdio_set_driver_enabled+0x26>
10006fa0:	6010      	str	r0, [r2, #0]
10006fa2:	4770      	bx	lr
10006fa4:	20008b74 	.word	0x20008b74

10006fa8 <stdio_flush>:
10006fa8:	b510      	push	{r4, lr}
10006faa:	4b06      	ldr	r3, [pc, #24]	; (10006fc4 <stdio_flush+0x1c>)
10006fac:	681c      	ldr	r4, [r3, #0]
10006fae:	e000      	b.n	10006fb2 <stdio_flush+0xa>
10006fb0:	68e4      	ldr	r4, [r4, #12]
10006fb2:	2c00      	cmp	r4, #0
10006fb4:	d004      	beq.n	10006fc0 <stdio_flush+0x18>
10006fb6:	6863      	ldr	r3, [r4, #4]
10006fb8:	2b00      	cmp	r3, #0
10006fba:	d0f9      	beq.n	10006fb0 <stdio_flush+0x8>
10006fbc:	4798      	blx	r3
10006fbe:	e7f7      	b.n	10006fb0 <stdio_flush+0x8>
10006fc0:	bd10      	pop	{r4, pc}
10006fc2:	46c0      	nop			; (mov r8, r8)
10006fc4:	20008b74 	.word	0x20008b74

10006fc8 <__wrap_puts>:
10006fc8:	b570      	push	{r4, r5, r6, lr}
10006fca:	0005      	movs	r5, r0
10006fcc:	f002 fe74 	bl	10009cb8 <strlen>
10006fd0:	0004      	movs	r4, r0
10006fd2:	2300      	movs	r3, #0
10006fd4:	2201      	movs	r2, #1
10006fd6:	0001      	movs	r1, r0
10006fd8:	0028      	movs	r0, r5
10006fda:	f7ff ff77 	bl	10006ecc <stdio_put_string>
10006fde:	f7ff ffe3 	bl	10006fa8 <stdio_flush>
10006fe2:	0020      	movs	r0, r4
10006fe4:	bd70      	pop	{r4, r5, r6, pc}
	...

10006fe8 <__wrap_vprintf>:
10006fe8:	b570      	push	{r4, r5, r6, lr}
10006fea:	b0a2      	sub	sp, #136	; 0x88
10006fec:	0004      	movs	r4, r0
10006fee:	000e      	movs	r6, r1
10006ff0:	f7ff ff4c 	bl	10006e8c <stdout_serialize_begin>
10006ff4:	0005      	movs	r5, r0
10006ff6:	2284      	movs	r2, #132	; 0x84
10006ff8:	2100      	movs	r1, #0
10006ffa:	a801      	add	r0, sp, #4
10006ffc:	f7ff fe82 	bl	10006d04 <__wrap_memset>
10007000:	0033      	movs	r3, r6
10007002:	0022      	movs	r2, r4
10007004:	a901      	add	r1, sp, #4
10007006:	4808      	ldr	r0, [pc, #32]	; (10007028 <__wrap_vprintf+0x40>)
10007008:	f7fe ff12 	bl	10005e30 <vfctprintf>
1000700c:	0004      	movs	r4, r0
1000700e:	a801      	add	r0, sp, #4
10007010:	f7ff fecc 	bl	10006dac <stdio_stack_buffer_flush>
10007014:	f7ff ffc8 	bl	10006fa8 <stdio_flush>
10007018:	2d00      	cmp	r5, #0
1000701a:	d102      	bne.n	10007022 <__wrap_vprintf+0x3a>
1000701c:	0020      	movs	r0, r4
1000701e:	b022      	add	sp, #136	; 0x88
10007020:	bd70      	pop	{r4, r5, r6, pc}
10007022:	f7ff ff4b 	bl	10006ebc <stdout_serialize_end>
10007026:	e7f9      	b.n	1000701c <__wrap_vprintf+0x34>
10007028:	10006df1 	.word	0x10006df1

1000702c <__wrap_printf>:
1000702c:	b40f      	push	{r0, r1, r2, r3}
1000702e:	b500      	push	{lr}
10007030:	b083      	sub	sp, #12
10007032:	a904      	add	r1, sp, #16
10007034:	c901      	ldmia	r1!, {r0}
10007036:	9101      	str	r1, [sp, #4]
10007038:	f7ff ffd6 	bl	10006fe8 <__wrap_vprintf>
1000703c:	b003      	add	sp, #12
1000703e:	bc08      	pop	{r3}
10007040:	b004      	add	sp, #16
10007042:	4718      	bx	r3

10007044 <stdio_init_all>:
10007044:	b510      	push	{r4, lr}
10007046:	f000 f995 	bl	10007374 <stdio_usb_init>
1000704a:	bd10      	pop	{r4, pc}

1000704c <getchar_timeout_us>:
1000704c:	b5f0      	push	{r4, r5, r6, r7, lr}
1000704e:	b083      	sub	sp, #12
10007050:	0004      	movs	r4, r0
10007052:	2500      	movs	r5, #0
10007054:	f7fd f838 	bl	100040c8 <time_us_64>
10007058:	2900      	cmp	r1, #0
1000705a:	db18      	blt.n	1000708e <getchar_timeout_us+0x42>
1000705c:	0022      	movs	r2, r4
1000705e:	002b      	movs	r3, r5
10007060:	1812      	adds	r2, r2, r0
10007062:	414b      	adcs	r3, r1
10007064:	4299      	cmp	r1, r3
10007066:	d802      	bhi.n	1000706e <getchar_timeout_us+0x22>
10007068:	d104      	bne.n	10007074 <getchar_timeout_us+0x28>
1000706a:	4290      	cmp	r0, r2
1000706c:	d902      	bls.n	10007074 <getchar_timeout_us+0x28>
1000706e:	2201      	movs	r2, #1
10007070:	4252      	negs	r2, r2
10007072:	17d3      	asrs	r3, r2, #31
10007074:	2b00      	cmp	r3, #0
10007076:	db10      	blt.n	1000709a <getchar_timeout_us+0x4e>
10007078:	2101      	movs	r1, #1
1000707a:	a801      	add	r0, sp, #4
1000707c:	f7ff fec8 	bl	10006e10 <stdio_get_until>
10007080:	2800      	cmp	r0, #0
10007082:	db02      	blt.n	1000708a <getchar_timeout_us+0x3e>
10007084:	d00f      	beq.n	100070a6 <getchar_timeout_us+0x5a>
10007086:	ab01      	add	r3, sp, #4
10007088:	7818      	ldrb	r0, [r3, #0]
1000708a:	b003      	add	sp, #12
1000708c:	bdf0      	pop	{r4, r5, r6, r7, pc}
1000708e:	4b09      	ldr	r3, [pc, #36]	; (100070b4 <getchar_timeout_us+0x68>)
10007090:	4a09      	ldr	r2, [pc, #36]	; (100070b8 <getchar_timeout_us+0x6c>)
10007092:	213f      	movs	r1, #63	; 0x3f
10007094:	4809      	ldr	r0, [pc, #36]	; (100070bc <getchar_timeout_us+0x70>)
10007096:	f7fd fb7d 	bl	10004794 <__assert_func>
1000709a:	4b06      	ldr	r3, [pc, #24]	; (100070b4 <getchar_timeout_us+0x68>)
1000709c:	4a06      	ldr	r2, [pc, #24]	; (100070b8 <getchar_timeout_us+0x6c>)
1000709e:	213f      	movs	r1, #63	; 0x3f
100070a0:	4806      	ldr	r0, [pc, #24]	; (100070bc <getchar_timeout_us+0x70>)
100070a2:	f7fd fb77 	bl	10004794 <__assert_func>
100070a6:	2195      	movs	r1, #149	; 0x95
100070a8:	4b05      	ldr	r3, [pc, #20]	; (100070c0 <getchar_timeout_us+0x74>)
100070aa:	4a06      	ldr	r2, [pc, #24]	; (100070c4 <getchar_timeout_us+0x78>)
100070ac:	0049      	lsls	r1, r1, #1
100070ae:	4806      	ldr	r0, [pc, #24]	; (100070c8 <getchar_timeout_us+0x7c>)
100070b0:	f7fd fb70 	bl	10004794 <__assert_func>
100070b4:	1000a2c8 	.word	0x1000a2c8
100070b8:	1000ba68 	.word	0x1000ba68
100070bc:	1000a2e4 	.word	0x1000a2e4
100070c0:	1000afac 	.word	0x1000afac
100070c4:	1000ba80 	.word	0x1000ba80
100070c8:	1000baa0 	.word	0x1000baa0

100070cc <resetd_init>:
100070cc:	4770      	bx	lr
	...

100070d0 <resetd_reset>:
100070d0:	4b01      	ldr	r3, [pc, #4]	; (100070d8 <resetd_reset+0x8>)
100070d2:	2200      	movs	r2, #0
100070d4:	701a      	strb	r2, [r3, #0]
100070d6:	4770      	bx	lr
100070d8:	20008fdc 	.word	0x20008fdc

100070dc <resetd_open>:
100070dc:	794b      	ldrb	r3, [r1, #5]
100070de:	2bff      	cmp	r3, #255	; 0xff
100070e0:	d10c      	bne.n	100070fc <resetd_open+0x20>
100070e2:	798b      	ldrb	r3, [r1, #6]
100070e4:	2b00      	cmp	r3, #0
100070e6:	d10b      	bne.n	10007100 <resetd_open+0x24>
100070e8:	79cb      	ldrb	r3, [r1, #7]
100070ea:	2b01      	cmp	r3, #1
100070ec:	d10a      	bne.n	10007104 <resetd_open+0x28>
100070ee:	2a08      	cmp	r2, #8
100070f0:	d90a      	bls.n	10007108 <resetd_open+0x2c>
100070f2:	788a      	ldrb	r2, [r1, #2]
100070f4:	4b05      	ldr	r3, [pc, #20]	; (1000710c <resetd_open+0x30>)
100070f6:	701a      	strb	r2, [r3, #0]
100070f8:	2009      	movs	r0, #9
100070fa:	e000      	b.n	100070fe <resetd_open+0x22>
100070fc:	2000      	movs	r0, #0
100070fe:	4770      	bx	lr
10007100:	2000      	movs	r0, #0
10007102:	e7fc      	b.n	100070fe <resetd_open+0x22>
10007104:	2000      	movs	r0, #0
10007106:	e7fa      	b.n	100070fe <resetd_open+0x22>
10007108:	2000      	movs	r0, #0
1000710a:	e7f8      	b.n	100070fe <resetd_open+0x22>
1000710c:	20008fdc 	.word	0x20008fdc

10007110 <resetd_xfer_cb>:
10007110:	2001      	movs	r0, #1
10007112:	4770      	bx	lr

10007114 <resetd_control_xfer_cb>:
10007114:	b570      	push	{r4, r5, r6, lr}
10007116:	2900      	cmp	r1, #0
10007118:	d12b      	bne.n	10007172 <resetd_control_xfer_cb+0x5e>
1000711a:	7911      	ldrb	r1, [r2, #4]
1000711c:	7953      	ldrb	r3, [r2, #5]
1000711e:	021b      	lsls	r3, r3, #8
10007120:	430b      	orrs	r3, r1
10007122:	4915      	ldr	r1, [pc, #84]	; (10007178 <resetd_control_xfer_cb+0x64>)
10007124:	7809      	ldrb	r1, [r1, #0]
10007126:	428b      	cmp	r3, r1
10007128:	d001      	beq.n	1000712e <resetd_control_xfer_cb+0x1a>
1000712a:	2000      	movs	r0, #0
1000712c:	bd70      	pop	{r4, r5, r6, pc}
1000712e:	7853      	ldrb	r3, [r2, #1]
10007130:	2b01      	cmp	r3, #1
10007132:	d003      	beq.n	1000713c <resetd_control_xfer_cb+0x28>
10007134:	2b02      	cmp	r3, #2
10007136:	d015      	beq.n	10007164 <resetd_control_xfer_cb+0x50>
10007138:	2000      	movs	r0, #0
1000713a:	e7f7      	b.n	1000712c <resetd_control_xfer_cb+0x18>
1000713c:	7891      	ldrb	r1, [r2, #2]
1000713e:	78d3      	ldrb	r3, [r2, #3]
10007140:	021b      	lsls	r3, r3, #8
10007142:	430b      	orrs	r3, r1
10007144:	05da      	lsls	r2, r3, #23
10007146:	d50b      	bpl.n	10007160 <resetd_control_xfer_cb+0x4c>
10007148:	0a5a      	lsrs	r2, r3, #9
1000714a:	2501      	movs	r5, #1
1000714c:	4095      	lsls	r5, r2
1000714e:	247f      	movs	r4, #127	; 0x7f
10007150:	401c      	ands	r4, r3
10007152:	480a      	ldr	r0, [pc, #40]	; (1000717c <resetd_control_xfer_cb+0x68>)
10007154:	f7fe fe84 	bl	10005e60 <rom_func_lookup>
10007158:	0003      	movs	r3, r0
1000715a:	0021      	movs	r1, r4
1000715c:	0028      	movs	r0, r5
1000715e:	4798      	blx	r3
10007160:	2500      	movs	r5, #0
10007162:	e7f4      	b.n	1000714e <resetd_control_xfer_cb+0x3a>
10007164:	2264      	movs	r2, #100	; 0x64
10007166:	2100      	movs	r1, #0
10007168:	2000      	movs	r0, #0
1000716a:	f7fd fdc3 	bl	10004cf4 <watchdog_reboot>
1000716e:	2001      	movs	r0, #1
10007170:	e7dc      	b.n	1000712c <resetd_control_xfer_cb+0x18>
10007172:	2001      	movs	r0, #1
10007174:	e7da      	b.n	1000712c <resetd_control_xfer_cb+0x18>
10007176:	46c0      	nop			; (mov r8, r8)
10007178:	20008fdc 	.word	0x20008fdc
1000717c:	00004255 	.word	0x00004255

10007180 <usbd_app_driver_get_cb>:
10007180:	2301      	movs	r3, #1
10007182:	7003      	strb	r3, [r0, #0]
10007184:	4800      	ldr	r0, [pc, #0]	; (10007188 <usbd_app_driver_get_cb+0x8>)
10007186:	4770      	bx	lr
10007188:	1000bae8 	.word	0x1000bae8

1000718c <tud_cdc_line_coding_cb>:
1000718c:	b510      	push	{r4, lr}
1000718e:	780b      	ldrb	r3, [r1, #0]
10007190:	784a      	ldrb	r2, [r1, #1]
10007192:	0212      	lsls	r2, r2, #8
10007194:	431a      	orrs	r2, r3
10007196:	788b      	ldrb	r3, [r1, #2]
10007198:	041b      	lsls	r3, r3, #16
1000719a:	431a      	orrs	r2, r3
1000719c:	78cb      	ldrb	r3, [r1, #3]
1000719e:	061b      	lsls	r3, r3, #24
100071a0:	4313      	orrs	r3, r2
100071a2:	2296      	movs	r2, #150	; 0x96
100071a4:	00d2      	lsls	r2, r2, #3
100071a6:	4293      	cmp	r3, r2
100071a8:	d000      	beq.n	100071ac <tud_cdc_line_coding_cb+0x20>
100071aa:	bd10      	pop	{r4, pc}
100071ac:	4803      	ldr	r0, [pc, #12]	; (100071bc <tud_cdc_line_coding_cb+0x30>)
100071ae:	f7fe fe57 	bl	10005e60 <rom_func_lookup>
100071b2:	0003      	movs	r3, r0
100071b4:	2100      	movs	r1, #0
100071b6:	0008      	movs	r0, r1
100071b8:	4798      	blx	r3
100071ba:	46c0      	nop			; (mov r8, r8)
100071bc:	00004255 	.word	0x00004255

100071c0 <stdio_usb_in_chars>:
100071c0:	b530      	push	{r4, r5, lr}
100071c2:	b083      	sub	sp, #12
100071c4:	0004      	movs	r4, r0
100071c6:	000d      	movs	r5, r1
100071c8:	a901      	add	r1, sp, #4
100071ca:	4818      	ldr	r0, [pc, #96]	; (1000722c <stdio_usb_in_chars+0x6c>)
100071cc:	f002 fdcc 	bl	10009d68 <__mutex_try_enter_veneer>
100071d0:	2800      	cmp	r0, #0
100071d2:	d108      	bne.n	100071e6 <stdio_usb_in_chars+0x26>
100071d4:	23d0      	movs	r3, #208	; 0xd0
100071d6:	061b      	lsls	r3, r3, #24
100071d8:	681b      	ldr	r3, [r3, #0]
100071da:	9a01      	ldr	r2, [sp, #4]
100071dc:	429a      	cmp	r2, r3
100071de:	d021      	beq.n	10007224 <stdio_usb_in_chars+0x64>
100071e0:	4812      	ldr	r0, [pc, #72]	; (1000722c <stdio_usb_in_chars+0x6c>)
100071e2:	f002 fdd1 	bl	10009d88 <__mutex_enter_blocking_veneer>
100071e6:	2000      	movs	r0, #0
100071e8:	f001 fe54 	bl	10008e94 <tud_cdc_n_connected>
100071ec:	2800      	cmp	r0, #0
100071ee:	d107      	bne.n	10007200 <stdio_usb_in_chars+0x40>
100071f0:	2403      	movs	r4, #3
100071f2:	4264      	negs	r4, r4
100071f4:	480d      	ldr	r0, [pc, #52]	; (1000722c <stdio_usb_in_chars+0x6c>)
100071f6:	f002 fd9f 	bl	10009d38 <__mutex_exit_veneer>
100071fa:	0020      	movs	r0, r4
100071fc:	b003      	add	sp, #12
100071fe:	bd30      	pop	{r4, r5, pc}
10007200:	2000      	movs	r0, #0
10007202:	f001 fe69 	bl	10008ed8 <tud_cdc_n_available>
10007206:	2800      	cmp	r0, #0
10007208:	d102      	bne.n	10007210 <stdio_usb_in_chars+0x50>
1000720a:	2403      	movs	r4, #3
1000720c:	4264      	negs	r4, r4
1000720e:	e7f1      	b.n	100071f4 <stdio_usb_in_chars+0x34>
10007210:	002a      	movs	r2, r5
10007212:	0021      	movs	r1, r4
10007214:	2000      	movs	r0, #0
10007216:	f001 fe6b 	bl	10008ef0 <tud_cdc_n_read>
1000721a:	1e04      	subs	r4, r0, #0
1000721c:	d1ea      	bne.n	100071f4 <stdio_usb_in_chars+0x34>
1000721e:	2403      	movs	r4, #3
10007220:	4264      	negs	r4, r4
10007222:	e7e7      	b.n	100071f4 <stdio_usb_in_chars+0x34>
10007224:	2403      	movs	r4, #3
10007226:	4264      	negs	r4, r4
10007228:	e7e7      	b.n	100071fa <stdio_usb_in_chars+0x3a>
1000722a:	46c0      	nop			; (mov r8, r8)
1000722c:	20008fa8 	.word	0x20008fa8

10007230 <low_priority_worker_irq>:
10007230:	b510      	push	{r4, lr}
10007232:	2100      	movs	r1, #0
10007234:	4805      	ldr	r0, [pc, #20]	; (1000724c <low_priority_worker_irq+0x1c>)
10007236:	f002 fd97 	bl	10009d68 <__mutex_try_enter_veneer>
1000723a:	2800      	cmp	r0, #0
1000723c:	d100      	bne.n	10007240 <low_priority_worker_irq+0x10>
1000723e:	bd10      	pop	{r4, pc}
10007240:	f001 fbc2 	bl	100089c8 <tud_task>
10007244:	4801      	ldr	r0, [pc, #4]	; (1000724c <low_priority_worker_irq+0x1c>)
10007246:	f002 fd77 	bl	10009d38 <__mutex_exit_veneer>
1000724a:	e7f8      	b.n	1000723e <low_priority_worker_irq+0xe>
1000724c:	20008fa8 	.word	0x20008fa8

10007250 <stdio_usb_out_chars>:
10007250:	b5f0      	push	{r4, r5, r6, r7, lr}
10007252:	46c6      	mov	lr, r8
10007254:	b500      	push	{lr}
10007256:	b082      	sub	sp, #8
10007258:	4680      	mov	r8, r0
1000725a:	000d      	movs	r5, r1
1000725c:	a901      	add	r1, sp, #4
1000725e:	482e      	ldr	r0, [pc, #184]	; (10007318 <stdio_usb_out_chars+0xc8>)
10007260:	f002 fd82 	bl	10009d68 <__mutex_try_enter_veneer>
10007264:	2800      	cmp	r0, #0
10007266:	d108      	bne.n	1000727a <stdio_usb_out_chars+0x2a>
10007268:	23d0      	movs	r3, #208	; 0xd0
1000726a:	061b      	lsls	r3, r3, #24
1000726c:	681b      	ldr	r3, [r3, #0]
1000726e:	9a01      	ldr	r2, [sp, #4]
10007270:	429a      	cmp	r2, r3
10007272:	d00f      	beq.n	10007294 <stdio_usb_out_chars+0x44>
10007274:	4828      	ldr	r0, [pc, #160]	; (10007318 <stdio_usb_out_chars+0xc8>)
10007276:	f002 fd87 	bl	10009d88 <__mutex_enter_blocking_veneer>
1000727a:	2000      	movs	r0, #0
1000727c:	f001 fe0a 	bl	10008e94 <tud_cdc_n_connected>
10007280:	2800      	cmp	r0, #0
10007282:	d147      	bne.n	10007314 <stdio_usb_out_chars+0xc4>
10007284:	4b25      	ldr	r3, [pc, #148]	; (1000731c <stdio_usb_out_chars+0xcc>)
10007286:	2000      	movs	r0, #0
10007288:	2100      	movs	r1, #0
1000728a:	6018      	str	r0, [r3, #0]
1000728c:	6059      	str	r1, [r3, #4]
1000728e:	4822      	ldr	r0, [pc, #136]	; (10007318 <stdio_usb_out_chars+0xc8>)
10007290:	f002 fd52 	bl	10009d38 <__mutex_exit_veneer>
10007294:	b002      	add	sp, #8
10007296:	bc04      	pop	{r2}
10007298:	4690      	mov	r8, r2
1000729a:	bdf0      	pop	{r4, r5, r6, r7, pc}
1000729c:	f001 fb94 	bl	100089c8 <tud_task>
100072a0:	2000      	movs	r0, #0
100072a2:	f001 fe39 	bl	10008f18 <tud_cdc_n_write_flush>
100072a6:	2000      	movs	r0, #0
100072a8:	f001 fdf4 	bl	10008e94 <tud_cdc_n_connected>
100072ac:	2800      	cmp	r0, #0
100072ae:	d0ee      	beq.n	1000728e <stdio_usb_out_chars+0x3e>
100072b0:	2000      	movs	r0, #0
100072b2:	f001 feb3 	bl	1000901c <tud_cdc_n_write_available>
100072b6:	2800      	cmp	r0, #0
100072b8:	d01d      	beq.n	100072f6 <stdio_usb_out_chars+0xa6>
100072ba:	42ac      	cmp	r4, r5
100072bc:	dae7      	bge.n	1000728e <stdio_usb_out_chars+0x3e>
100072be:	1b2e      	subs	r6, r5, r4
100072c0:	2000      	movs	r0, #0
100072c2:	f001 feab 	bl	1000901c <tud_cdc_n_write_available>
100072c6:	4286      	cmp	r6, r0
100072c8:	dc00      	bgt.n	100072cc <stdio_usb_out_chars+0x7c>
100072ca:	0030      	movs	r0, r6
100072cc:	2800      	cmp	r0, #0
100072ce:	d0e5      	beq.n	1000729c <stdio_usb_out_chars+0x4c>
100072d0:	4643      	mov	r3, r8
100072d2:	1919      	adds	r1, r3, r4
100072d4:	0002      	movs	r2, r0
100072d6:	2000      	movs	r0, #0
100072d8:	f001 fe84 	bl	10008fe4 <tud_cdc_n_write>
100072dc:	0006      	movs	r6, r0
100072de:	f001 fb73 	bl	100089c8 <tud_task>
100072e2:	2000      	movs	r0, #0
100072e4:	f001 fe18 	bl	10008f18 <tud_cdc_n_write_flush>
100072e8:	19a4      	adds	r4, r4, r6
100072ea:	f7fc feed 	bl	100040c8 <time_us_64>
100072ee:	4b0b      	ldr	r3, [pc, #44]	; (1000731c <stdio_usb_out_chars+0xcc>)
100072f0:	6018      	str	r0, [r3, #0]
100072f2:	6059      	str	r1, [r3, #4]
100072f4:	e7e1      	b.n	100072ba <stdio_usb_out_chars+0x6a>
100072f6:	f7fc fee7 	bl	100040c8 <time_us_64>
100072fa:	4b08      	ldr	r3, [pc, #32]	; (1000731c <stdio_usb_out_chars+0xcc>)
100072fc:	681e      	ldr	r6, [r3, #0]
100072fe:	685f      	ldr	r7, [r3, #4]
10007300:	4a07      	ldr	r2, [pc, #28]	; (10007320 <stdio_usb_out_chars+0xd0>)
10007302:	2300      	movs	r3, #0
10007304:	1992      	adds	r2, r2, r6
10007306:	417b      	adcs	r3, r7
10007308:	4299      	cmp	r1, r3
1000730a:	d8c0      	bhi.n	1000728e <stdio_usb_out_chars+0x3e>
1000730c:	d1d5      	bne.n	100072ba <stdio_usb_out_chars+0x6a>
1000730e:	4290      	cmp	r0, r2
10007310:	d9d3      	bls.n	100072ba <stdio_usb_out_chars+0x6a>
10007312:	e7bc      	b.n	1000728e <stdio_usb_out_chars+0x3e>
10007314:	2400      	movs	r4, #0
10007316:	e7d0      	b.n	100072ba <stdio_usb_out_chars+0x6a>
10007318:	20008fa8 	.word	0x20008fa8
1000731c:	20008608 	.word	0x20008608
10007320:	0007a120 	.word	0x0007a120

10007324 <timer_task>:
10007324:	b510      	push	{r4, lr}
10007326:	4b0a      	ldr	r3, [pc, #40]	; (10007350 <timer_task+0x2c>)
10007328:	781a      	ldrb	r2, [r3, #0]
1000732a:	23d0      	movs	r3, #208	; 0xd0
1000732c:	061b      	lsls	r3, r3, #24
1000732e:	681b      	ldr	r3, [r3, #0]
10007330:	429a      	cmp	r2, r3
10007332:	d107      	bne.n	10007344 <timer_task+0x20>
10007334:	4b07      	ldr	r3, [pc, #28]	; (10007354 <timer_task+0x30>)
10007336:	7818      	ldrb	r0, [r3, #0]
10007338:	f7fb fe22 	bl	10002f80 <irq_set_pending>
1000733c:	20fa      	movs	r0, #250	; 0xfa
1000733e:	0080      	lsls	r0, r0, #2
10007340:	2100      	movs	r1, #0
10007342:	bd10      	pop	{r4, pc}
10007344:	4b04      	ldr	r3, [pc, #16]	; (10007358 <timer_task+0x34>)
10007346:	4a05      	ldr	r2, [pc, #20]	; (1000735c <timer_task+0x38>)
10007348:	2134      	movs	r1, #52	; 0x34
1000734a:	4805      	ldr	r0, [pc, #20]	; (10007360 <timer_task+0x3c>)
1000734c:	f7fd fa22 	bl	10004794 <__assert_func>
10007350:	20008fde 	.word	0x20008fde
10007354:	20008fdd 	.word	0x20008fdd
10007358:	1000bb44 	.word	0x1000bb44
1000735c:	1000bb24 	.word	0x1000bb24
10007360:	1000bb6c 	.word	0x1000bb6c

10007364 <usb_irq>:
10007364:	b510      	push	{r4, lr}
10007366:	4b02      	ldr	r3, [pc, #8]	; (10007370 <usb_irq+0xc>)
10007368:	7818      	ldrb	r0, [r3, #0]
1000736a:	f7fb fe09 	bl	10002f80 <irq_set_pending>
1000736e:	bd10      	pop	{r4, pc}
10007370:	20008fdd 	.word	0x20008fdd

10007374 <stdio_usb_init>:
10007374:	b570      	push	{r4, r5, r6, lr}
10007376:	b084      	sub	sp, #16
10007378:	23d0      	movs	r3, #208	; 0xd0
1000737a:	061b      	lsls	r3, r3, #24
1000737c:	781a      	ldrb	r2, [r3, #0]
1000737e:	4b2c      	ldr	r3, [pc, #176]	; (10007430 <stdio_usb_init+0xbc>)
10007380:	701a      	strb	r2, [r3, #0]
10007382:	4b2c      	ldr	r3, [pc, #176]	; (10007434 <stdio_usb_init+0xc0>)
10007384:	781b      	ldrb	r3, [r3, #0]
10007386:	f002 f889 	bl	1000949c <tusb_init>
1000738a:	482b      	ldr	r0, [pc, #172]	; (10007438 <stdio_usb_init+0xc4>)
1000738c:	f7fd f9cc 	bl	10004728 <mutex_init>
10007390:	2001      	movs	r0, #1
10007392:	f7fc f8a9 	bl	100034e8 <user_irq_claim_unused>
10007396:	b2c0      	uxtb	r0, r0
10007398:	4c28      	ldr	r4, [pc, #160]	; (1000743c <stdio_usb_init+0xc8>)
1000739a:	7020      	strb	r0, [r4, #0]
1000739c:	4928      	ldr	r1, [pc, #160]	; (10007440 <stdio_usb_init+0xcc>)
1000739e:	f7fb fe11 	bl	10002fc4 <irq_set_exclusive_handler>
100073a2:	7820      	ldrb	r0, [r4, #0]
100073a4:	2101      	movs	r1, #1
100073a6:	f7fb fde3 	bl	10002f70 <irq_set_enabled>
100073aa:	2005      	movs	r0, #5
100073ac:	f7fb fdf8 	bl	10002fa0 <irq_has_shared_handler>
100073b0:	1e04      	subs	r4, r0, #0
100073b2:	d00b      	beq.n	100073cc <stdio_usb_init+0x58>
100073b4:	2200      	movs	r2, #0
100073b6:	4923      	ldr	r1, [pc, #140]	; (10007444 <stdio_usb_init+0xd0>)
100073b8:	2005      	movs	r0, #5
100073ba:	f7fb fe2d 	bl	10003018 <irq_add_shared_handler>
100073be:	2101      	movs	r1, #1
100073c0:	4821      	ldr	r0, [pc, #132]	; (10007448 <stdio_usb_init+0xd4>)
100073c2:	f7ff fddb 	bl	10006f7c <stdio_set_driver_enabled>
100073c6:	0020      	movs	r0, r4
100073c8:	b004      	add	sp, #16
100073ca:	bd70      	pop	{r4, r5, r6, pc}
100073cc:	f7fc fc04 	bl	10003bd8 <alarm_pool_get_default>
100073d0:	0004      	movs	r4, r0
100073d2:	f7fc fe79 	bl	100040c8 <time_us_64>
100073d6:	2900      	cmp	r1, #0
100073d8:	db1d      	blt.n	10007416 <stdio_usb_init+0xa2>
100073da:	22fa      	movs	r2, #250	; 0xfa
100073dc:	0092      	lsls	r2, r2, #2
100073de:	2300      	movs	r3, #0
100073e0:	1812      	adds	r2, r2, r0
100073e2:	414b      	adcs	r3, r1
100073e4:	4299      	cmp	r1, r3
100073e6:	d802      	bhi.n	100073ee <stdio_usb_init+0x7a>
100073e8:	d104      	bne.n	100073f4 <stdio_usb_init+0x80>
100073ea:	4290      	cmp	r0, r2
100073ec:	d902      	bls.n	100073f4 <stdio_usb_init+0x80>
100073ee:	2201      	movs	r2, #1
100073f0:	4252      	negs	r2, r2
100073f2:	17d3      	asrs	r3, r2, #31
100073f4:	2b00      	cmp	r3, #0
100073f6:	db14      	blt.n	10007422 <stdio_usb_init+0xae>
100073f8:	2101      	movs	r1, #1
100073fa:	9102      	str	r1, [sp, #8]
100073fc:	2100      	movs	r1, #0
100073fe:	9101      	str	r1, [sp, #4]
10007400:	4912      	ldr	r1, [pc, #72]	; (1000744c <stdio_usb_init+0xd8>)
10007402:	9100      	str	r1, [sp, #0]
10007404:	0020      	movs	r0, r4
10007406:	f7fc fbfd 	bl	10003c04 <alarm_pool_add_alarm_at>
1000740a:	1e44      	subs	r4, r0, #1
1000740c:	41a0      	sbcs	r0, r4
1000740e:	b2c4      	uxtb	r4, r0
10007410:	2c00      	cmp	r4, #0
10007412:	d0d8      	beq.n	100073c6 <stdio_usb_init+0x52>
10007414:	e7d3      	b.n	100073be <stdio_usb_init+0x4a>
10007416:	4b0e      	ldr	r3, [pc, #56]	; (10007450 <stdio_usb_init+0xdc>)
10007418:	4a0e      	ldr	r2, [pc, #56]	; (10007454 <stdio_usb_init+0xe0>)
1000741a:	213f      	movs	r1, #63	; 0x3f
1000741c:	480e      	ldr	r0, [pc, #56]	; (10007458 <stdio_usb_init+0xe4>)
1000741e:	f7fd f9b9 	bl	10004794 <__assert_func>
10007422:	4b0b      	ldr	r3, [pc, #44]	; (10007450 <stdio_usb_init+0xdc>)
10007424:	4a0b      	ldr	r2, [pc, #44]	; (10007454 <stdio_usb_init+0xe0>)
10007426:	213f      	movs	r1, #63	; 0x3f
10007428:	480b      	ldr	r0, [pc, #44]	; (10007458 <stdio_usb_init+0xe4>)
1000742a:	f7fd f9b3 	bl	10004794 <__assert_func>
1000742e:	46c0      	nop			; (mov r8, r8)
10007430:	20008fde 	.word	0x20008fde
10007434:	1000c2ac 	.word	0x1000c2ac
10007438:	20008fa8 	.word	0x20008fa8
1000743c:	20008fdd 	.word	0x20008fdd
10007440:	10007231 	.word	0x10007231
10007444:	10007365 	.word	0x10007365
10007448:	200084a0 	.word	0x200084a0
1000744c:	10007325 	.word	0x10007325
10007450:	1000a2c8 	.word	0x1000a2c8
10007454:	1000bb0c 	.word	0x1000bb0c
10007458:	1000a2e4 	.word	0x1000a2e4

1000745c <tud_descriptor_device_cb>:
1000745c:	4800      	ldr	r0, [pc, #0]	; (10007460 <tud_descriptor_device_cb+0x4>)
1000745e:	4770      	bx	lr
10007460:	1000bc38 	.word	0x1000bc38

10007464 <tud_descriptor_configuration_cb>:
10007464:	4800      	ldr	r0, [pc, #0]	; (10007468 <tud_descriptor_configuration_cb+0x4>)
10007466:	4770      	bx	lr
10007468:	1000bbe4 	.word	0x1000bbe4

1000746c <tud_descriptor_string_cb>:
1000746c:	b510      	push	{r4, lr}
1000746e:	0004      	movs	r4, r0
10007470:	4b15      	ldr	r3, [pc, #84]	; (100074c8 <tud_descriptor_string_cb+0x5c>)
10007472:	781b      	ldrb	r3, [r3, #0]
10007474:	2b00      	cmp	r3, #0
10007476:	d00d      	beq.n	10007494 <tud_descriptor_string_cb+0x28>
10007478:	2c00      	cmp	r4, #0
1000747a:	d110      	bne.n	1000749e <tud_descriptor_string_cb+0x32>
1000747c:	4b13      	ldr	r3, [pc, #76]	; (100074cc <tud_descriptor_string_cb+0x60>)
1000747e:	4a14      	ldr	r2, [pc, #80]	; (100074d0 <tud_descriptor_string_cb+0x64>)
10007480:	805a      	strh	r2, [r3, #2]
10007482:	2301      	movs	r3, #1
10007484:	3301      	adds	r3, #1
10007486:	005b      	lsls	r3, r3, #1
10007488:	22c0      	movs	r2, #192	; 0xc0
1000748a:	0092      	lsls	r2, r2, #2
1000748c:	4313      	orrs	r3, r2
1000748e:	480f      	ldr	r0, [pc, #60]	; (100074cc <tud_descriptor_string_cb+0x60>)
10007490:	8003      	strh	r3, [r0, #0]
10007492:	bd10      	pop	{r4, pc}
10007494:	2111      	movs	r1, #17
10007496:	480c      	ldr	r0, [pc, #48]	; (100074c8 <tud_descriptor_string_cb+0x5c>)
10007498:	f002 fbbe 	bl	10009c18 <pico_get_unique_board_id_string>
1000749c:	e7ec      	b.n	10007478 <tud_descriptor_string_cb+0xc>
1000749e:	2c05      	cmp	r4, #5
100074a0:	d80f      	bhi.n	100074c2 <tud_descriptor_string_cb+0x56>
100074a2:	00a4      	lsls	r4, r4, #2
100074a4:	4b0b      	ldr	r3, [pc, #44]	; (100074d4 <tud_descriptor_string_cb+0x68>)
100074a6:	58e4      	ldr	r4, [r4, r3]
100074a8:	2300      	movs	r3, #0
100074aa:	e004      	b.n	100074b6 <tud_descriptor_string_cb+0x4a>
100074ac:	3301      	adds	r3, #1
100074ae:	0059      	lsls	r1, r3, #1
100074b0:	4806      	ldr	r0, [pc, #24]	; (100074cc <tud_descriptor_string_cb+0x60>)
100074b2:	5242      	strh	r2, [r0, r1]
100074b4:	b2db      	uxtb	r3, r3
100074b6:	2b12      	cmp	r3, #18
100074b8:	d8e4      	bhi.n	10007484 <tud_descriptor_string_cb+0x18>
100074ba:	5ce2      	ldrb	r2, [r4, r3]
100074bc:	2a00      	cmp	r2, #0
100074be:	d1f5      	bne.n	100074ac <tud_descriptor_string_cb+0x40>
100074c0:	e7e0      	b.n	10007484 <tud_descriptor_string_cb+0x18>
100074c2:	2000      	movs	r0, #0
100074c4:	e7e5      	b.n	10007492 <tud_descriptor_string_cb+0x26>
100074c6:	46c0      	nop			; (mov r8, r8)
100074c8:	20008fc0 	.word	0x20008fc0
100074cc:	20008b4c 	.word	0x20008b4c
100074d0:	00000409 	.word	0x00000409
100074d4:	1000bc4c 	.word	0x1000bc4c

100074d8 <hw_endpoint_get_by_addr>:
100074d8:	237f      	movs	r3, #127	; 0x7f
100074da:	4003      	ands	r3, r0
100074dc:	09c2      	lsrs	r2, r0, #7
100074de:	0058      	lsls	r0, r3, #1
100074e0:	1880      	adds	r0, r0, r2
100074e2:	0140      	lsls	r0, r0, #5
100074e4:	4b01      	ldr	r3, [pc, #4]	; (100074ec <hw_endpoint_get_by_addr+0x14>)
100074e6:	18c0      	adds	r0, r0, r3
100074e8:	4770      	bx	lr
100074ea:	46c0      	nop			; (mov r8, r8)
100074ec:	20008b7c 	.word	0x20008b7c

100074f0 <reset_ep0_pid>:
100074f0:	b510      	push	{r4, lr}
100074f2:	b082      	sub	sp, #8
100074f4:	ab01      	add	r3, sp, #4
100074f6:	2200      	movs	r2, #0
100074f8:	701a      	strb	r2, [r3, #0]
100074fa:	3280      	adds	r2, #128	; 0x80
100074fc:	705a      	strb	r2, [r3, #1]
100074fe:	2400      	movs	r4, #0
10007500:	e006      	b.n	10007510 <reset_ep0_pid+0x20>
10007502:	ab01      	add	r3, sp, #4
10007504:	5d18      	ldrb	r0, [r3, r4]
10007506:	f7ff ffe7 	bl	100074d8 <hw_endpoint_get_by_addr>
1000750a:	2301      	movs	r3, #1
1000750c:	70c3      	strb	r3, [r0, #3]
1000750e:	3401      	adds	r4, #1
10007510:	2c01      	cmp	r4, #1
10007512:	d9f6      	bls.n	10007502 <reset_ep0_pid+0x12>
10007514:	b002      	add	sp, #8
10007516:	bd10      	pop	{r4, pc}

10007518 <_hw_endpoint_alloc>:
10007518:	b510      	push	{r4, lr}
1000751a:	8b83      	ldrh	r3, [r0, #28]
1000751c:	333f      	adds	r3, #63	; 0x3f
1000751e:	223f      	movs	r2, #63	; 0x3f
10007520:	4393      	bics	r3, r2
10007522:	2902      	cmp	r1, #2
10007524:	d015      	beq.n	10007552 <_hw_endpoint_alloc+0x3a>
10007526:	4c12      	ldr	r4, [pc, #72]	; (10007570 <_hw_endpoint_alloc+0x58>)
10007528:	6822      	ldr	r2, [r4, #0]
1000752a:	60c2      	str	r2, [r0, #12]
1000752c:	18d3      	adds	r3, r2, r3
1000752e:	6023      	str	r3, [r4, #0]
10007530:	069c      	lsls	r4, r3, #26
10007532:	d110      	bne.n	10007556 <_hw_endpoint_alloc+0x3e>
10007534:	4c0f      	ldr	r4, [pc, #60]	; (10007574 <_hw_endpoint_alloc+0x5c>)
10007536:	4062      	eors	r2, r4
10007538:	4063      	eors	r3, r4
1000753a:	2480      	movs	r4, #128	; 0x80
1000753c:	0164      	lsls	r4, r4, #5
1000753e:	42a3      	cmp	r3, r4
10007540:	d80f      	bhi.n	10007562 <_hw_endpoint_alloc+0x4a>
10007542:	0689      	lsls	r1, r1, #26
10007544:	4311      	orrs	r1, r2
10007546:	2380      	movs	r3, #128	; 0x80
10007548:	061b      	lsls	r3, r3, #24
1000754a:	4319      	orrs	r1, r3
1000754c:	6843      	ldr	r3, [r0, #4]
1000754e:	6019      	str	r1, [r3, #0]
10007550:	bd10      	pop	{r4, pc}
10007552:	005b      	lsls	r3, r3, #1
10007554:	e7e7      	b.n	10007526 <_hw_endpoint_alloc+0xe>
10007556:	4b08      	ldr	r3, [pc, #32]	; (10007578 <_hw_endpoint_alloc+0x60>)
10007558:	4a08      	ldr	r2, [pc, #32]	; (1000757c <_hw_endpoint_alloc+0x64>)
1000755a:	2154      	movs	r1, #84	; 0x54
1000755c:	4808      	ldr	r0, [pc, #32]	; (10007580 <_hw_endpoint_alloc+0x68>)
1000755e:	f7fd f919 	bl	10004794 <__assert_func>
10007562:	4b08      	ldr	r3, [pc, #32]	; (10007584 <_hw_endpoint_alloc+0x6c>)
10007564:	4a05      	ldr	r2, [pc, #20]	; (1000757c <_hw_endpoint_alloc+0x64>)
10007566:	2156      	movs	r1, #86	; 0x56
10007568:	4805      	ldr	r0, [pc, #20]	; (10007580 <_hw_endpoint_alloc+0x68>)
1000756a:	f7fd f913 	bl	10004794 <__assert_func>
1000756e:	46c0      	nop			; (mov r8, r8)
10007570:	20008f80 	.word	0x20008f80
10007574:	50100000 	.word	0x50100000
10007578:	1000bcc4 	.word	0x1000bcc4
1000757c:	1000bc64 	.word	0x1000bc64
10007580:	1000bcf4 	.word	0x1000bcf4
10007584:	1000bd50 	.word	0x1000bd50

10007588 <hw_endpoint_init>:
10007588:	b5f8      	push	{r3, r4, r5, r6, r7, lr}
1000758a:	0005      	movs	r5, r0
1000758c:	000e      	movs	r6, r1
1000758e:	0014      	movs	r4, r2
10007590:	f7ff ffa2 	bl	100074d8 <hw_endpoint_get_by_addr>
10007594:	237f      	movs	r3, #127	; 0x7f
10007596:	402b      	ands	r3, r5
10007598:	09ef      	lsrs	r7, r5, #7
1000759a:	7085      	strb	r5, [r0, #2]
1000759c:	427a      	negs	r2, r7
1000759e:	417a      	adcs	r2, r7
100075a0:	7042      	strb	r2, [r0, #1]
100075a2:	2200      	movs	r2, #0
100075a4:	70c2      	strb	r2, [r0, #3]
100075a6:	8386      	strh	r6, [r0, #28]
100075a8:	7784      	strb	r4, [r0, #30]
100075aa:	2f01      	cmp	r7, #1
100075ac:	d00d      	beq.n	100075ca <hw_endpoint_init+0x42>
100075ae:	00da      	lsls	r2, r3, #3
100075b0:	4912      	ldr	r1, [pc, #72]	; (100075fc <hw_endpoint_init+0x74>)
100075b2:	468c      	mov	ip, r1
100075b4:	4462      	add	r2, ip
100075b6:	6082      	str	r2, [r0, #8]
100075b8:	6882      	ldr	r2, [r0, #8]
100075ba:	2100      	movs	r1, #0
100075bc:	6011      	str	r1, [r2, #0]
100075be:	2b00      	cmp	r3, #0
100075c0:	d109      	bne.n	100075d6 <hw_endpoint_init+0x4e>
100075c2:	6043      	str	r3, [r0, #4]
100075c4:	4b0e      	ldr	r3, [pc, #56]	; (10007600 <hw_endpoint_init+0x78>)
100075c6:	60c3      	str	r3, [r0, #12]
100075c8:	bdf8      	pop	{r3, r4, r5, r6, r7, pc}
100075ca:	00da      	lsls	r2, r3, #3
100075cc:	490d      	ldr	r1, [pc, #52]	; (10007604 <hw_endpoint_init+0x7c>)
100075ce:	468c      	mov	ip, r1
100075d0:	4462      	add	r2, ip
100075d2:	6082      	str	r2, [r0, #8]
100075d4:	e7f0      	b.n	100075b8 <hw_endpoint_init+0x30>
100075d6:	2f01      	cmp	r7, #1
100075d8:	d009      	beq.n	100075ee <hw_endpoint_init+0x66>
100075da:	3b01      	subs	r3, #1
100075dc:	00db      	lsls	r3, r3, #3
100075de:	4a0a      	ldr	r2, [pc, #40]	; (10007608 <hw_endpoint_init+0x80>)
100075e0:	4694      	mov	ip, r2
100075e2:	4463      	add	r3, ip
100075e4:	6043      	str	r3, [r0, #4]
100075e6:	0021      	movs	r1, r4
100075e8:	f7ff ff96 	bl	10007518 <_hw_endpoint_alloc>
100075ec:	e7ec      	b.n	100075c8 <hw_endpoint_init+0x40>
100075ee:	3b01      	subs	r3, #1
100075f0:	00db      	lsls	r3, r3, #3
100075f2:	4a06      	ldr	r2, [pc, #24]	; (1000760c <hw_endpoint_init+0x84>)
100075f4:	4694      	mov	ip, r2
100075f6:	4463      	add	r3, ip
100075f8:	6043      	str	r3, [r0, #4]
100075fa:	e7f4      	b.n	100075e6 <hw_endpoint_init+0x5e>
100075fc:	50100084 	.word	0x50100084
10007600:	50100100 	.word	0x50100100
10007604:	50100080 	.word	0x50100080
10007608:	5010000c 	.word	0x5010000c
1000760c:	50100008 	.word	0x50100008

10007610 <reset_non_control_endpoints>:
10007610:	b510      	push	{r4, lr}
10007612:	2300      	movs	r3, #0
10007614:	2b0e      	cmp	r3, #14
10007616:	d809      	bhi.n	1000762c <reset_non_control_endpoints+0x1c>
10007618:	3301      	adds	r3, #1
1000761a:	00da      	lsls	r2, r3, #3
1000761c:	2100      	movs	r1, #0
1000761e:	4808      	ldr	r0, [pc, #32]	; (10007640 <reset_non_control_endpoints+0x30>)
10007620:	5011      	str	r1, [r2, r0]
10007622:	4684      	mov	ip, r0
10007624:	4462      	add	r2, ip
10007626:	6051      	str	r1, [r2, #4]
10007628:	b2db      	uxtb	r3, r3
1000762a:	e7f3      	b.n	10007614 <reset_non_control_endpoints+0x4>
1000762c:	22f0      	movs	r2, #240	; 0xf0
1000762e:	0092      	lsls	r2, r2, #2
10007630:	2100      	movs	r1, #0
10007632:	4804      	ldr	r0, [pc, #16]	; (10007644 <reset_non_control_endpoints+0x34>)
10007634:	f7ff fb66 	bl	10006d04 <__wrap_memset>
10007638:	4b03      	ldr	r3, [pc, #12]	; (10007648 <reset_non_control_endpoints+0x38>)
1000763a:	4a04      	ldr	r2, [pc, #16]	; (1000764c <reset_non_control_endpoints+0x3c>)
1000763c:	601a      	str	r2, [r3, #0]
1000763e:	bd10      	pop	{r4, pc}
10007640:	50100000 	.word	0x50100000
10007644:	20008bbc 	.word	0x20008bbc
10007648:	20008f80 	.word	0x20008f80
1000764c:	50100180 	.word	0x50100180

10007650 <hw_handle_buff_status>:
10007650:	b5f0      	push	{r4, r5, r6, r7, lr}
10007652:	46ce      	mov	lr, r9
10007654:	4647      	mov	r7, r8
10007656:	b580      	push	{r7, lr}
10007658:	b083      	sub	sp, #12
1000765a:	4b1d      	ldr	r3, [pc, #116]	; (100076d0 <hw_handle_buff_status+0x80>)
1000765c:	6d9f      	ldr	r7, [r3, #88]	; 0x58
1000765e:	2400      	movs	r4, #0
10007660:	2601      	movs	r6, #1
10007662:	e014      	b.n	1000768e <hw_handle_buff_status+0x3e>
10007664:	464b      	mov	r3, r9
10007666:	005b      	lsls	r3, r3, #1
10007668:	4443      	add	r3, r8
1000766a:	015b      	lsls	r3, r3, #5
1000766c:	4a19      	ldr	r2, [pc, #100]	; (100076d4 <hw_handle_buff_status+0x84>)
1000766e:	18d3      	adds	r3, r2, r3
10007670:	8a9a      	ldrh	r2, [r3, #20]
10007672:	7899      	ldrb	r1, [r3, #2]
10007674:	2301      	movs	r3, #1
10007676:	9300      	str	r3, [sp, #0]
10007678:	2300      	movs	r3, #0
1000767a:	2000      	movs	r0, #0
1000767c:	f000 fe2a 	bl	100082d4 <dcd_event_xfer_complete>
10007680:	0028      	movs	r0, r5
10007682:	f000 fa25 	bl	10007ad0 <hw_endpoint_reset_transfer>
10007686:	43b7      	bics	r7, r6
10007688:	0076      	lsls	r6, r6, #1
1000768a:	3401      	adds	r4, #1
1000768c:	b2e4      	uxtb	r4, r4
1000768e:	2f00      	cmp	r7, #0
10007690:	d018      	beq.n	100076c4 <hw_handle_buff_status+0x74>
10007692:	2c1f      	cmp	r4, #31
10007694:	d816      	bhi.n	100076c4 <hw_handle_buff_status+0x74>
10007696:	423e      	tst	r6, r7
10007698:	d0f6      	beq.n	10007688 <hw_handle_buff_status+0x38>
1000769a:	4b0f      	ldr	r3, [pc, #60]	; (100076d8 <hw_handle_buff_status+0x88>)
1000769c:	659e      	str	r6, [r3, #88]	; 0x58
1000769e:	0863      	lsrs	r3, r4, #1
100076a0:	4699      	mov	r9, r3
100076a2:	2301      	movs	r3, #1
100076a4:	4063      	eors	r3, r4
100076a6:	2201      	movs	r2, #1
100076a8:	401a      	ands	r2, r3
100076aa:	4690      	mov	r8, r2
100076ac:	464b      	mov	r3, r9
100076ae:	005d      	lsls	r5, r3, #1
100076b0:	4445      	add	r5, r8
100076b2:	016d      	lsls	r5, r5, #5
100076b4:	4b07      	ldr	r3, [pc, #28]	; (100076d4 <hw_handle_buff_status+0x84>)
100076b6:	18ed      	adds	r5, r5, r3
100076b8:	0028      	movs	r0, r5
100076ba:	f000 fa99 	bl	10007bf0 <hw_endpoint_xfer_continue>
100076be:	2800      	cmp	r0, #0
100076c0:	d0e1      	beq.n	10007686 <hw_handle_buff_status+0x36>
100076c2:	e7cf      	b.n	10007664 <hw_handle_buff_status+0x14>
100076c4:	b003      	add	sp, #12
100076c6:	bc0c      	pop	{r2, r3}
100076c8:	4690      	mov	r8, r2
100076ca:	4699      	mov	r9, r3
100076cc:	bdf0      	pop	{r4, r5, r6, r7, pc}
100076ce:	46c0      	nop			; (mov r8, r8)
100076d0:	50110000 	.word	0x50110000
100076d4:	20008b7c 	.word	0x20008b7c
100076d8:	50113000 	.word	0x50113000

100076dc <dcd_rp2040_irq>:
100076dc:	b570      	push	{r4, r5, r6, lr}
100076de:	4a2a      	ldr	r2, [pc, #168]	; (10007788 <dcd_rp2040_irq+0xac>)
100076e0:	2398      	movs	r3, #152	; 0x98
100076e2:	58d5      	ldr	r5, [r2, r3]
100076e4:	2480      	movs	r4, #128	; 0x80
100076e6:	0264      	lsls	r4, r4, #9
100076e8:	402c      	ands	r4, r5
100076ea:	d10a      	bne.n	10007702 <dcd_rp2040_irq+0x26>
100076ec:	06eb      	lsls	r3, r5, #27
100076ee:	d416      	bmi.n	1000771e <dcd_rp2040_irq+0x42>
100076f0:	04eb      	lsls	r3, r5, #19
100076f2:	d419      	bmi.n	10007728 <dcd_rp2040_irq+0x4c>
100076f4:	046b      	lsls	r3, r5, #17
100076f6:	d429      	bmi.n	1000774c <dcd_rp2040_irq+0x70>
100076f8:	042b      	lsls	r3, r5, #16
100076fa:	d433      	bmi.n	10007764 <dcd_rp2040_irq+0x88>
100076fc:	42ac      	cmp	r4, r5
100076fe:	d13e      	bne.n	1000777e <dcd_rp2040_irq+0xa2>
10007700:	bd70      	pop	{r4, r5, r6, pc}
10007702:	f7ff fef5 	bl	100074f0 <reset_ep0_pid>
10007706:	2201      	movs	r2, #1
10007708:	4920      	ldr	r1, [pc, #128]	; (1000778c <dcd_rp2040_irq+0xb0>)
1000770a:	2000      	movs	r0, #0
1000770c:	f000 fdc8 	bl	100082a0 <dcd_event_setup_received>
10007710:	4b1f      	ldr	r3, [pc, #124]	; (10007790 <dcd_rp2040_irq+0xb4>)
10007712:	2280      	movs	r2, #128	; 0x80
10007714:	0292      	lsls	r2, r2, #10
10007716:	651a      	str	r2, [r3, #80]	; 0x50
10007718:	2480      	movs	r4, #128	; 0x80
1000771a:	0264      	lsls	r4, r4, #9
1000771c:	e7e6      	b.n	100076ec <dcd_rp2040_irq+0x10>
1000771e:	2310      	movs	r3, #16
10007720:	431c      	orrs	r4, r3
10007722:	f7ff ff95 	bl	10007650 <hw_handle_buff_status>
10007726:	e7e3      	b.n	100076f0 <dcd_rp2040_irq+0x14>
10007728:	2380      	movs	r3, #128	; 0x80
1000772a:	015b      	lsls	r3, r3, #5
1000772c:	431c      	orrs	r4, r3
1000772e:	4b16      	ldr	r3, [pc, #88]	; (10007788 <dcd_rp2040_irq+0xac>)
10007730:	2200      	movs	r2, #0
10007732:	601a      	str	r2, [r3, #0]
10007734:	f7ff ff6c 	bl	10007610 <reset_non_control_endpoints>
10007738:	2201      	movs	r2, #1
1000773a:	2100      	movs	r1, #0
1000773c:	2000      	movs	r0, #0
1000773e:	f000 fd99 	bl	10008274 <dcd_event_bus_reset>
10007742:	4b13      	ldr	r3, [pc, #76]	; (10007790 <dcd_rp2040_irq+0xb4>)
10007744:	2280      	movs	r2, #128	; 0x80
10007746:	0312      	lsls	r2, r2, #12
10007748:	651a      	str	r2, [r3, #80]	; 0x50
1000774a:	e7d3      	b.n	100076f4 <dcd_rp2040_irq+0x18>
1000774c:	2380      	movs	r3, #128	; 0x80
1000774e:	01db      	lsls	r3, r3, #7
10007750:	431c      	orrs	r4, r3
10007752:	2201      	movs	r2, #1
10007754:	2104      	movs	r1, #4
10007756:	2000      	movs	r0, #0
10007758:	f000 fd78 	bl	1000824c <dcd_event_bus_signal>
1000775c:	4b0c      	ldr	r3, [pc, #48]	; (10007790 <dcd_rp2040_irq+0xb4>)
1000775e:	2210      	movs	r2, #16
10007760:	651a      	str	r2, [r3, #80]	; 0x50
10007762:	e7c9      	b.n	100076f8 <dcd_rp2040_irq+0x1c>
10007764:	2380      	movs	r3, #128	; 0x80
10007766:	021b      	lsls	r3, r3, #8
10007768:	431c      	orrs	r4, r3
1000776a:	2201      	movs	r2, #1
1000776c:	2105      	movs	r1, #5
1000776e:	2000      	movs	r0, #0
10007770:	f000 fd6c 	bl	1000824c <dcd_event_bus_signal>
10007774:	4b06      	ldr	r3, [pc, #24]	; (10007790 <dcd_rp2040_irq+0xb4>)
10007776:	2280      	movs	r2, #128	; 0x80
10007778:	0112      	lsls	r2, r2, #4
1000777a:	651a      	str	r2, [r3, #80]	; 0x50
1000777c:	e7be      	b.n	100076fc <dcd_rp2040_irq+0x20>
1000777e:	0021      	movs	r1, r4
10007780:	4069      	eors	r1, r5
10007782:	4804      	ldr	r0, [pc, #16]	; (10007794 <dcd_rp2040_irq+0xb8>)
10007784:	f7fd f8a0 	bl	100048c8 <panic>
10007788:	50110000 	.word	0x50110000
1000778c:	50100000 	.word	0x50100000
10007790:	50113000 	.word	0x50113000
10007794:	1000bd90 	.word	0x1000bd90

10007798 <hw_endpoint_xfer>:
10007798:	b570      	push	{r4, r5, r6, lr}
1000779a:	000c      	movs	r4, r1
1000779c:	0015      	movs	r5, r2
1000779e:	f7ff fe9b 	bl	100074d8 <hw_endpoint_get_by_addr>
100077a2:	002a      	movs	r2, r5
100077a4:	0021      	movs	r1, r4
100077a6:	f000 f9ff 	bl	10007ba8 <hw_endpoint_xfer_start>
100077aa:	bd70      	pop	{r4, r5, r6, pc}

100077ac <dcd_int_enable>:
100077ac:	b510      	push	{r4, lr}
100077ae:	2800      	cmp	r0, #0
100077b0:	d104      	bne.n	100077bc <dcd_int_enable+0x10>
100077b2:	2101      	movs	r1, #1
100077b4:	2005      	movs	r0, #5
100077b6:	f7fb fbdb 	bl	10002f70 <irq_set_enabled>
100077ba:	bd10      	pop	{r4, pc}
100077bc:	21b9      	movs	r1, #185	; 0xb9
100077be:	4b03      	ldr	r3, [pc, #12]	; (100077cc <dcd_int_enable+0x20>)
100077c0:	4a03      	ldr	r2, [pc, #12]	; (100077d0 <dcd_int_enable+0x24>)
100077c2:	0049      	lsls	r1, r1, #1
100077c4:	4803      	ldr	r0, [pc, #12]	; (100077d4 <dcd_int_enable+0x28>)
100077c6:	f7fc ffe5 	bl	10004794 <__assert_func>
100077ca:	46c0      	nop			; (mov r8, r8)
100077cc:	1000bd84 	.word	0x1000bd84
100077d0:	1000bc84 	.word	0x1000bc84
100077d4:	1000bcf4 	.word	0x1000bcf4

100077d8 <dcd_set_address>:
100077d8:	b510      	push	{r4, lr}
100077da:	2800      	cmp	r0, #0
100077dc:	d105      	bne.n	100077ea <dcd_set_address+0x12>
100077de:	2200      	movs	r2, #0
100077e0:	2100      	movs	r1, #0
100077e2:	2080      	movs	r0, #128	; 0x80
100077e4:	f7ff ffd8 	bl	10007798 <hw_endpoint_xfer>
100077e8:	bd10      	pop	{r4, pc}
100077ea:	21bf      	movs	r1, #191	; 0xbf
100077ec:	4b02      	ldr	r3, [pc, #8]	; (100077f8 <dcd_set_address+0x20>)
100077ee:	4a03      	ldr	r2, [pc, #12]	; (100077fc <dcd_set_address+0x24>)
100077f0:	0049      	lsls	r1, r1, #1
100077f2:	4803      	ldr	r0, [pc, #12]	; (10007800 <dcd_set_address+0x28>)
100077f4:	f7fc ffce 	bl	10004794 <__assert_func>
100077f8:	1000bd84 	.word	0x1000bd84
100077fc:	1000bc94 	.word	0x1000bc94
10007800:	1000bcf4 	.word	0x1000bcf4

10007804 <dcd_connect>:
10007804:	4b02      	ldr	r3, [pc, #8]	; (10007810 <dcd_connect+0xc>)
10007806:	2280      	movs	r2, #128	; 0x80
10007808:	0252      	lsls	r2, r2, #9
1000780a:	64da      	str	r2, [r3, #76]	; 0x4c
1000780c:	4770      	bx	lr
1000780e:	46c0      	nop			; (mov r8, r8)
10007810:	50112000 	.word	0x50112000

10007814 <dcd_init>:
10007814:	b570      	push	{r4, r5, r6, lr}
10007816:	1e05      	subs	r5, r0, #0
10007818:	d125      	bne.n	10007866 <dcd_init+0x52>
1000781a:	f000 f933 	bl	10007a84 <rp2040_usb_init>
1000781e:	4c15      	ldr	r4, [pc, #84]	; (10007874 <dcd_init+0x60>)
10007820:	230c      	movs	r3, #12
10007822:	67a3      	str	r3, [r4, #120]	; 0x78
10007824:	4914      	ldr	r1, [pc, #80]	; (10007878 <dcd_init+0x64>)
10007826:	2005      	movs	r0, #5
10007828:	f7fb fbcc 	bl	10002fc4 <irq_set_exclusive_handler>
1000782c:	2240      	movs	r2, #64	; 0x40
1000782e:	2100      	movs	r1, #0
10007830:	4812      	ldr	r0, [pc, #72]	; (1000787c <dcd_init+0x68>)
10007832:	f7ff fa67 	bl	10006d04 <__wrap_memset>
10007836:	2200      	movs	r2, #0
10007838:	2140      	movs	r1, #64	; 0x40
1000783a:	2000      	movs	r0, #0
1000783c:	f7ff fea4 	bl	10007588 <hw_endpoint_init>
10007840:	2200      	movs	r2, #0
10007842:	2140      	movs	r1, #64	; 0x40
10007844:	2080      	movs	r0, #128	; 0x80
10007846:	f7ff fe9f 	bl	10007588 <hw_endpoint_init>
1000784a:	f7ff fee1 	bl	10007610 <reset_non_control_endpoints>
1000784e:	2301      	movs	r3, #1
10007850:	6423      	str	r3, [r4, #64]	; 0x40
10007852:	2380      	movs	r3, #128	; 0x80
10007854:	059b      	lsls	r3, r3, #22
10007856:	64e3      	str	r3, [r4, #76]	; 0x4c
10007858:	2390      	movs	r3, #144	; 0x90
1000785a:	4a09      	ldr	r2, [pc, #36]	; (10007880 <dcd_init+0x6c>)
1000785c:	50e2      	str	r2, [r4, r3]
1000785e:	0028      	movs	r0, r5
10007860:	f7ff ffd0 	bl	10007804 <dcd_connect>
10007864:	bd70      	pop	{r4, r5, r6, pc}
10007866:	214e      	movs	r1, #78	; 0x4e
10007868:	4b06      	ldr	r3, [pc, #24]	; (10007884 <dcd_init+0x70>)
1000786a:	4a07      	ldr	r2, [pc, #28]	; (10007888 <dcd_init+0x74>)
1000786c:	31ff      	adds	r1, #255	; 0xff
1000786e:	4807      	ldr	r0, [pc, #28]	; (1000788c <dcd_init+0x78>)
10007870:	f7fc ff90 	bl	10004794 <__assert_func>
10007874:	50110000 	.word	0x50110000
10007878:	100076dd 	.word	0x100076dd
1000787c:	20008b7c 	.word	0x20008b7c
10007880:	0001d010 	.word	0x0001d010
10007884:	1000bd84 	.word	0x1000bd84
10007888:	1000bc78 	.word	0x1000bc78
1000788c:	1000bcf4 	.word	0x1000bcf4

10007890 <dcd_edpt0_status_complete>:
10007890:	780b      	ldrb	r3, [r1, #0]
10007892:	065b      	lsls	r3, r3, #25
10007894:	d102      	bne.n	1000789c <dcd_edpt0_status_complete+0xc>
10007896:	784b      	ldrb	r3, [r1, #1]
10007898:	2b05      	cmp	r3, #5
1000789a:	d000      	beq.n	1000789e <dcd_edpt0_status_complete+0xe>
1000789c:	4770      	bx	lr
1000789e:	788a      	ldrb	r2, [r1, #2]
100078a0:	4b01      	ldr	r3, [pc, #4]	; (100078a8 <dcd_edpt0_status_complete+0x18>)
100078a2:	601a      	str	r2, [r3, #0]
100078a4:	e7fa      	b.n	1000789c <dcd_edpt0_status_complete+0xc>
100078a6:	46c0      	nop			; (mov r8, r8)
100078a8:	50110000 	.word	0x50110000

100078ac <dcd_edpt_open>:
100078ac:	b510      	push	{r4, lr}
100078ae:	000c      	movs	r4, r1
100078b0:	2800      	cmp	r0, #0
100078b2:	d10d      	bne.n	100078d0 <dcd_edpt_open+0x24>
100078b4:	7909      	ldrb	r1, [r1, #4]
100078b6:	7962      	ldrb	r2, [r4, #5]
100078b8:	2307      	movs	r3, #7
100078ba:	4013      	ands	r3, r2
100078bc:	021b      	lsls	r3, r3, #8
100078be:	4319      	orrs	r1, r3
100078c0:	78e2      	ldrb	r2, [r4, #3]
100078c2:	0792      	lsls	r2, r2, #30
100078c4:	0f92      	lsrs	r2, r2, #30
100078c6:	78a0      	ldrb	r0, [r4, #2]
100078c8:	f7ff fe5e 	bl	10007588 <hw_endpoint_init>
100078cc:	2001      	movs	r0, #1
100078ce:	bd10      	pop	{r4, pc}
100078d0:	21d6      	movs	r1, #214	; 0xd6
100078d2:	4b03      	ldr	r3, [pc, #12]	; (100078e0 <dcd_edpt_open+0x34>)
100078d4:	4a03      	ldr	r2, [pc, #12]	; (100078e4 <dcd_edpt_open+0x38>)
100078d6:	0049      	lsls	r1, r1, #1
100078d8:	4803      	ldr	r0, [pc, #12]	; (100078e8 <dcd_edpt_open+0x3c>)
100078da:	f7fc ff5b 	bl	10004794 <__assert_func>
100078de:	46c0      	nop			; (mov r8, r8)
100078e0:	1000bd84 	.word	0x1000bd84
100078e4:	1000bca4 	.word	0x1000bca4
100078e8:	1000bcf4 	.word	0x1000bcf4

100078ec <dcd_edpt_close_all>:
100078ec:	b510      	push	{r4, lr}
100078ee:	f7ff fe8f 	bl	10007610 <reset_non_control_endpoints>
100078f2:	bd10      	pop	{r4, pc}

100078f4 <dcd_edpt_xfer>:
100078f4:	b510      	push	{r4, lr}
100078f6:	000c      	movs	r4, r1
100078f8:	0011      	movs	r1, r2
100078fa:	2800      	cmp	r0, #0
100078fc:	d105      	bne.n	1000790a <dcd_edpt_xfer+0x16>
100078fe:	001a      	movs	r2, r3
10007900:	0020      	movs	r0, r4
10007902:	f7ff ff49 	bl	10007798 <hw_endpoint_xfer>
10007906:	2001      	movs	r0, #1
10007908:	bd10      	pop	{r4, pc}
1000790a:	21bc      	movs	r1, #188	; 0xbc
1000790c:	4b02      	ldr	r3, [pc, #8]	; (10007918 <dcd_edpt_xfer+0x24>)
1000790e:	4a03      	ldr	r2, [pc, #12]	; (1000791c <dcd_edpt_xfer+0x28>)
10007910:	31ff      	adds	r1, #255	; 0xff
10007912:	4803      	ldr	r0, [pc, #12]	; (10007920 <dcd_edpt_xfer+0x2c>)
10007914:	f7fc ff3e 	bl	10004794 <__assert_func>
10007918:	1000bd84 	.word	0x1000bd84
1000791c:	1000bcb4 	.word	0x1000bcb4
10007920:	1000bcf4 	.word	0x1000bcf4

10007924 <dcd_edpt_stall>:
10007924:	b510      	push	{r4, lr}
10007926:	064b      	lsls	r3, r1, #25
10007928:	d105      	bne.n	10007936 <dcd_edpt_stall+0x12>
1000792a:	09cb      	lsrs	r3, r1, #7
1000792c:	2b01      	cmp	r3, #1
1000792e:	d00b      	beq.n	10007948 <dcd_edpt_stall+0x24>
10007930:	2202      	movs	r2, #2
10007932:	4b06      	ldr	r3, [pc, #24]	; (1000794c <dcd_edpt_stall+0x28>)
10007934:	669a      	str	r2, [r3, #104]	; 0x68
10007936:	0008      	movs	r0, r1
10007938:	f7ff fdce 	bl	100074d8 <hw_endpoint_get_by_addr>
1000793c:	2280      	movs	r2, #128	; 0x80
1000793e:	0112      	lsls	r2, r2, #4
10007940:	2100      	movs	r1, #0
10007942:	f000 f8cb 	bl	10007adc <_hw_endpoint_buffer_control_update32>
10007946:	bd10      	pop	{r4, pc}
10007948:	2201      	movs	r2, #1
1000794a:	e7f2      	b.n	10007932 <dcd_edpt_stall+0xe>
1000794c:	50112000 	.word	0x50112000

10007950 <dcd_edpt_clear_stall>:
10007950:	b510      	push	{r4, lr}
10007952:	064b      	lsls	r3, r1, #25
10007954:	d100      	bne.n	10007958 <dcd_edpt_clear_stall+0x8>
10007956:	bd10      	pop	{r4, pc}
10007958:	0008      	movs	r0, r1
1000795a:	f7ff fdbd 	bl	100074d8 <hw_endpoint_get_by_addr>
1000795e:	2300      	movs	r3, #0
10007960:	70c3      	strb	r3, [r0, #3]
10007962:	2200      	movs	r2, #0
10007964:	4901      	ldr	r1, [pc, #4]	; (1000796c <dcd_edpt_clear_stall+0x1c>)
10007966:	f000 f8b9 	bl	10007adc <_hw_endpoint_buffer_control_update32>
1000796a:	e7f4      	b.n	10007956 <dcd_edpt_clear_stall+0x6>
1000796c:	fffff7ff 	.word	0xfffff7ff

10007970 <prepare_ep_buffer>:
10007970:	b5f8      	push	{r3, r4, r5, r6, r7, lr}
10007972:	0004      	movs	r4, r0
10007974:	000f      	movs	r7, r1
10007976:	8a43      	ldrh	r3, [r0, #18]
10007978:	8b82      	ldrh	r2, [r0, #28]
1000797a:	1c1e      	adds	r6, r3, #0
1000797c:	4293      	cmp	r3, r2
1000797e:	d900      	bls.n	10007982 <prepare_ep_buffer+0x12>
10007980:	1c16      	adds	r6, r2, #0
10007982:	b2b6      	uxth	r6, r6
10007984:	1b9b      	subs	r3, r3, r6
10007986:	8263      	strh	r3, [r4, #18]
10007988:	2580      	movs	r5, #128	; 0x80
1000798a:	00ed      	lsls	r5, r5, #3
1000798c:	4335      	orrs	r5, r6
1000798e:	78e3      	ldrb	r3, [r4, #3]
10007990:	2b00      	cmp	r3, #0
10007992:	d013      	beq.n	100079bc <prepare_ep_buffer+0x4c>
10007994:	2280      	movs	r2, #128	; 0x80
10007996:	0192      	lsls	r2, r2, #6
10007998:	4315      	orrs	r5, r2
1000799a:	2201      	movs	r2, #1
1000799c:	4053      	eors	r3, r2
1000799e:	70e3      	strb	r3, [r4, #3]
100079a0:	7863      	ldrb	r3, [r4, #1]
100079a2:	2b00      	cmp	r3, #0
100079a4:	d00c      	beq.n	100079c0 <prepare_ep_buffer+0x50>
100079a6:	8a63      	ldrh	r3, [r4, #18]
100079a8:	2b00      	cmp	r3, #0
100079aa:	d102      	bne.n	100079b2 <prepare_ep_buffer+0x42>
100079ac:	2380      	movs	r3, #128	; 0x80
100079ae:	01db      	lsls	r3, r3, #7
100079b0:	431d      	orrs	r5, r3
100079b2:	2f00      	cmp	r7, #0
100079b4:	d000      	beq.n	100079b8 <prepare_ep_buffer+0x48>
100079b6:	042d      	lsls	r5, r5, #16
100079b8:	0028      	movs	r0, r5
100079ba:	bdf8      	pop	{r3, r4, r5, r6, r7, pc}
100079bc:	2200      	movs	r2, #0
100079be:	e7eb      	b.n	10007998 <prepare_ep_buffer+0x28>
100079c0:	01b8      	lsls	r0, r7, #6
100079c2:	68e3      	ldr	r3, [r4, #12]
100079c4:	469c      	mov	ip, r3
100079c6:	4460      	add	r0, ip
100079c8:	0032      	movs	r2, r6
100079ca:	69a1      	ldr	r1, [r4, #24]
100079cc:	f7ff f9a0 	bl	10006d10 <__wrap___aeabi_memcpy>
100079d0:	69a3      	ldr	r3, [r4, #24]
100079d2:	469c      	mov	ip, r3
100079d4:	4466      	add	r6, ip
100079d6:	61a6      	str	r6, [r4, #24]
100079d8:	2380      	movs	r3, #128	; 0x80
100079da:	021b      	lsls	r3, r3, #8
100079dc:	431d      	orrs	r5, r3
100079de:	e7e2      	b.n	100079a6 <prepare_ep_buffer+0x36>

100079e0 <sync_ep_buffer>:
100079e0:	b570      	push	{r4, r5, r6, lr}
100079e2:	0004      	movs	r4, r0
100079e4:	6883      	ldr	r3, [r0, #8]
100079e6:	681b      	ldr	r3, [r3, #0]
100079e8:	2900      	cmp	r1, #0
100079ea:	d000      	beq.n	100079ee <sync_ep_buffer+0xe>
100079ec:	0c1b      	lsrs	r3, r3, #16
100079ee:	059d      	lsls	r5, r3, #22
100079f0:	0dad      	lsrs	r5, r5, #22
100079f2:	7862      	ldrb	r2, [r4, #1]
100079f4:	2a00      	cmp	r2, #0
100079f6:	d111      	bne.n	10007a1c <sync_ep_buffer+0x3c>
100079f8:	041b      	lsls	r3, r3, #16
100079fa:	d409      	bmi.n	10007a10 <sync_ep_buffer+0x30>
100079fc:	8aa3      	ldrh	r3, [r4, #20]
100079fe:	195b      	adds	r3, r3, r5
10007a00:	82a3      	strh	r3, [r4, #20]
10007a02:	8ba3      	ldrh	r3, [r4, #28]
10007a04:	42ab      	cmp	r3, r5
10007a06:	d901      	bls.n	10007a0c <sync_ep_buffer+0x2c>
10007a08:	2300      	movs	r3, #0
10007a0a:	8263      	strh	r3, [r4, #18]
10007a0c:	0028      	movs	r0, r5
10007a0e:	bd70      	pop	{r4, r5, r6, pc}
10007a10:	4b0e      	ldr	r3, [pc, #56]	; (10007a4c <sync_ep_buffer+0x6c>)
10007a12:	4a0f      	ldr	r2, [pc, #60]	; (10007a50 <sync_ep_buffer+0x70>)
10007a14:	21d7      	movs	r1, #215	; 0xd7
10007a16:	480f      	ldr	r0, [pc, #60]	; (10007a54 <sync_ep_buffer+0x74>)
10007a18:	f7fc febc 	bl	10004794 <__assert_func>
10007a1c:	041b      	lsls	r3, r3, #16
10007a1e:	d50e      	bpl.n	10007a3e <sync_ep_buffer+0x5e>
10007a20:	0189      	lsls	r1, r1, #6
10007a22:	68e3      	ldr	r3, [r4, #12]
10007a24:	469c      	mov	ip, r3
10007a26:	4461      	add	r1, ip
10007a28:	002a      	movs	r2, r5
10007a2a:	69a0      	ldr	r0, [r4, #24]
10007a2c:	f7ff f970 	bl	10006d10 <__wrap___aeabi_memcpy>
10007a30:	8aa3      	ldrh	r3, [r4, #20]
10007a32:	195b      	adds	r3, r3, r5
10007a34:	82a3      	strh	r3, [r4, #20]
10007a36:	69a3      	ldr	r3, [r4, #24]
10007a38:	195b      	adds	r3, r3, r5
10007a3a:	61a3      	str	r3, [r4, #24]
10007a3c:	e7e1      	b.n	10007a02 <sync_ep_buffer+0x22>
10007a3e:	4b06      	ldr	r3, [pc, #24]	; (10007a58 <sync_ep_buffer+0x78>)
10007a40:	4a03      	ldr	r2, [pc, #12]	; (10007a50 <sync_ep_buffer+0x70>)
10007a42:	21de      	movs	r1, #222	; 0xde
10007a44:	4803      	ldr	r0, [pc, #12]	; (10007a54 <sync_ep_buffer+0x74>)
10007a46:	f7fc fea5 	bl	10004794 <__assert_func>
10007a4a:	46c0      	nop			; (mov r8, r8)
10007a4c:	1000be40 	.word	0x1000be40
10007a50:	1000bda4 	.word	0x1000bda4
10007a54:	1000be60 	.word	0x1000be60
10007a58:	1000bebc 	.word	0x1000bebc

10007a5c <_hw_endpoint_xfer_sync>:
10007a5c:	b510      	push	{r4, lr}
10007a5e:	0004      	movs	r4, r0
10007a60:	6883      	ldr	r3, [r0, #8]
10007a62:	681b      	ldr	r3, [r3, #0]
10007a64:	2100      	movs	r1, #0
10007a66:	f7ff ffbb 	bl	100079e0 <sync_ep_buffer>
10007a6a:	6863      	ldr	r3, [r4, #4]
10007a6c:	681b      	ldr	r3, [r3, #0]
10007a6e:	005b      	lsls	r3, r3, #1
10007a70:	d502      	bpl.n	10007a78 <_hw_endpoint_xfer_sync+0x1c>
10007a72:	8ba3      	ldrh	r3, [r4, #28]
10007a74:	4283      	cmp	r3, r0
10007a76:	d000      	beq.n	10007a7a <_hw_endpoint_xfer_sync+0x1e>
10007a78:	bd10      	pop	{r4, pc}
10007a7a:	2101      	movs	r1, #1
10007a7c:	0020      	movs	r0, r4
10007a7e:	f7ff ffaf 	bl	100079e0 <sync_ep_buffer>
10007a82:	e7f9      	b.n	10007a78 <_hw_endpoint_xfer_sync+0x1c>

10007a84 <rp2040_usb_init>:
10007a84:	b510      	push	{r4, lr}
10007a86:	2380      	movs	r3, #128	; 0x80
10007a88:	045b      	lsls	r3, r3, #17
10007a8a:	4a0c      	ldr	r2, [pc, #48]	; (10007abc <rp2040_usb_init+0x38>)
10007a8c:	6013      	str	r3, [r2, #0]
10007a8e:	4a0c      	ldr	r2, [pc, #48]	; (10007ac0 <rp2040_usb_init+0x3c>)
10007a90:	6013      	str	r3, [r2, #0]
10007a92:	4b0c      	ldr	r3, [pc, #48]	; (10007ac4 <rp2040_usb_init+0x40>)
10007a94:	689a      	ldr	r2, [r3, #8]
10007a96:	2380      	movs	r3, #128	; 0x80
10007a98:	045b      	lsls	r3, r3, #17
10007a9a:	4393      	bics	r3, r2
10007a9c:	d1f9      	bne.n	10007a92 <rp2040_usb_init+0xe>
10007a9e:	4c0a      	ldr	r4, [pc, #40]	; (10007ac8 <rp2040_usb_init+0x44>)
10007aa0:	229c      	movs	r2, #156	; 0x9c
10007aa2:	2100      	movs	r1, #0
10007aa4:	0020      	movs	r0, r4
10007aa6:	f7ff f92d 	bl	10006d04 <__wrap_memset>
10007aaa:	2280      	movs	r2, #128	; 0x80
10007aac:	0152      	lsls	r2, r2, #5
10007aae:	2100      	movs	r1, #0
10007ab0:	4806      	ldr	r0, [pc, #24]	; (10007acc <rp2040_usb_init+0x48>)
10007ab2:	f7ff f927 	bl	10006d04 <__wrap_memset>
10007ab6:	2309      	movs	r3, #9
10007ab8:	6763      	str	r3, [r4, #116]	; 0x74
10007aba:	bd10      	pop	{r4, pc}
10007abc:	4000e000 	.word	0x4000e000
10007ac0:	4000f000 	.word	0x4000f000
10007ac4:	4000c000 	.word	0x4000c000
10007ac8:	50110000 	.word	0x50110000
10007acc:	50100000 	.word	0x50100000

10007ad0 <hw_endpoint_reset_transfer>:
10007ad0:	2300      	movs	r3, #0
10007ad2:	7403      	strb	r3, [r0, #16]
10007ad4:	8243      	strh	r3, [r0, #18]
10007ad6:	8283      	strh	r3, [r0, #20]
10007ad8:	6183      	str	r3, [r0, #24]
10007ada:	4770      	bx	lr

10007adc <_hw_endpoint_buffer_control_update32>:
10007adc:	b510      	push	{r4, lr}
10007ade:	2900      	cmp	r1, #0
10007ae0:	d002      	beq.n	10007ae8 <_hw_endpoint_buffer_control_update32+0xc>
10007ae2:	6883      	ldr	r3, [r0, #8]
10007ae4:	681b      	ldr	r3, [r3, #0]
10007ae6:	4019      	ands	r1, r3
10007ae8:	2a00      	cmp	r2, #0
10007aea:	d00f      	beq.n	10007b0c <_hw_endpoint_buffer_control_update32+0x30>
10007aec:	4311      	orrs	r1, r2
10007aee:	0553      	lsls	r3, r2, #21
10007af0:	d50c      	bpl.n	10007b0c <_hw_endpoint_buffer_control_update32+0x30>
10007af2:	6882      	ldr	r2, [r0, #8]
10007af4:	6813      	ldr	r3, [r2, #0]
10007af6:	055b      	lsls	r3, r3, #21
10007af8:	d40b      	bmi.n	10007b12 <_hw_endpoint_buffer_control_update32+0x36>
10007afa:	4b0b      	ldr	r3, [pc, #44]	; (10007b28 <_hw_endpoint_buffer_control_update32+0x4c>)
10007afc:	400b      	ands	r3, r1
10007afe:	6013      	str	r3, [r2, #0]
10007b00:	e7ff      	b.n	10007b02 <_hw_endpoint_buffer_control_update32+0x26>
10007b02:	e7ff      	b.n	10007b04 <_hw_endpoint_buffer_control_update32+0x28>
10007b04:	e7ff      	b.n	10007b06 <_hw_endpoint_buffer_control_update32+0x2a>
10007b06:	e7ff      	b.n	10007b08 <_hw_endpoint_buffer_control_update32+0x2c>
10007b08:	e7ff      	b.n	10007b0a <_hw_endpoint_buffer_control_update32+0x2e>
10007b0a:	e7ff      	b.n	10007b0c <_hw_endpoint_buffer_control_update32+0x30>
10007b0c:	6883      	ldr	r3, [r0, #8]
10007b0e:	6019      	str	r1, [r3, #0]
10007b10:	bd10      	pop	{r4, pc}
10007b12:	7883      	ldrb	r3, [r0, #2]
10007b14:	217f      	movs	r1, #127	; 0x7f
10007b16:	4019      	ands	r1, r3
10007b18:	09db      	lsrs	r3, r3, #7
10007b1a:	009b      	lsls	r3, r3, #2
10007b1c:	4a03      	ldr	r2, [pc, #12]	; (10007b2c <_hw_endpoint_buffer_control_update32+0x50>)
10007b1e:	589a      	ldr	r2, [r3, r2]
10007b20:	4803      	ldr	r0, [pc, #12]	; (10007b30 <_hw_endpoint_buffer_control_update32+0x54>)
10007b22:	f7fc fed1 	bl	100048c8 <panic>
10007b26:	46c0      	nop			; (mov r8, r8)
10007b28:	fffffbff 	.word	0xfffffbff
10007b2c:	200084b4 	.word	0x200084b4
10007b30:	1000bdb4 	.word	0x1000bdb4

10007b34 <_hw_endpoint_start_next_buffer>:
10007b34:	b570      	push	{r4, r5, r6, lr}
10007b36:	0004      	movs	r4, r0
10007b38:	6843      	ldr	r3, [r0, #4]
10007b3a:	681e      	ldr	r6, [r3, #0]
10007b3c:	2100      	movs	r1, #0
10007b3e:	f7ff ff17 	bl	10007970 <prepare_ep_buffer>
10007b42:	2580      	movs	r5, #128	; 0x80
10007b44:	016d      	lsls	r5, r5, #5
10007b46:	4305      	orrs	r5, r0
10007b48:	4b14      	ldr	r3, [pc, #80]	; (10007b9c <_hw_endpoint_start_next_buffer+0x68>)
10007b4a:	6c1b      	ldr	r3, [r3, #64]	; 0x40
10007b4c:	079b      	lsls	r3, r3, #30
10007b4e:	d404      	bmi.n	10007b5a <_hw_endpoint_start_next_buffer+0x26>
10007b50:	78a3      	ldrb	r3, [r4, #2]
10007b52:	09db      	lsrs	r3, r3, #7
10007b54:	d114      	bne.n	10007b80 <_hw_endpoint_start_next_buffer+0x4c>
10007b56:	3301      	adds	r3, #1
10007b58:	e000      	b.n	10007b5c <_hw_endpoint_start_next_buffer+0x28>
10007b5a:	2300      	movs	r3, #0
10007b5c:	8a62      	ldrh	r2, [r4, #18]
10007b5e:	2a00      	cmp	r2, #0
10007b60:	d001      	beq.n	10007b66 <_hw_endpoint_start_next_buffer+0x32>
10007b62:	2b00      	cmp	r3, #0
10007b64:	d00e      	beq.n	10007b84 <_hw_endpoint_start_next_buffer+0x50>
10007b66:	4b0e      	ldr	r3, [pc, #56]	; (10007ba0 <_hw_endpoint_start_next_buffer+0x6c>)
10007b68:	401e      	ands	r6, r3
10007b6a:	2380      	movs	r3, #128	; 0x80
10007b6c:	059b      	lsls	r3, r3, #22
10007b6e:	4333      	orrs	r3, r6
10007b70:	6862      	ldr	r2, [r4, #4]
10007b72:	6013      	str	r3, [r2, #0]
10007b74:	002a      	movs	r2, r5
10007b76:	2100      	movs	r1, #0
10007b78:	0020      	movs	r0, r4
10007b7a:	f7ff ffaf 	bl	10007adc <_hw_endpoint_buffer_control_update32>
10007b7e:	bd70      	pop	{r4, r5, r6, pc}
10007b80:	2300      	movs	r3, #0
10007b82:	e7eb      	b.n	10007b5c <_hw_endpoint_start_next_buffer+0x28>
10007b84:	2101      	movs	r1, #1
10007b86:	0020      	movs	r0, r4
10007b88:	f7ff fef2 	bl	10007970 <prepare_ep_buffer>
10007b8c:	4305      	orrs	r5, r0
10007b8e:	4b05      	ldr	r3, [pc, #20]	; (10007ba4 <_hw_endpoint_start_next_buffer+0x70>)
10007b90:	401e      	ands	r6, r3
10007b92:	23a0      	movs	r3, #160	; 0xa0
10007b94:	05db      	lsls	r3, r3, #23
10007b96:	4333      	orrs	r3, r6
10007b98:	e7ea      	b.n	10007b70 <_hw_endpoint_start_next_buffer+0x3c>
10007b9a:	46c0      	nop			; (mov r8, r8)
10007b9c:	50110000 	.word	0x50110000
10007ba0:	afffffff 	.word	0xafffffff
10007ba4:	dfffffff 	.word	0xdfffffff

10007ba8 <hw_endpoint_xfer_start>:
10007ba8:	b570      	push	{r4, r5, r6, lr}
10007baa:	0004      	movs	r4, r0
10007bac:	000d      	movs	r5, r1
10007bae:	0016      	movs	r6, r2
10007bb0:	7c03      	ldrb	r3, [r0, #16]
10007bb2:	2b00      	cmp	r3, #0
10007bb4:	d109      	bne.n	10007bca <hw_endpoint_xfer_start+0x22>
10007bb6:	8266      	strh	r6, [r4, #18]
10007bb8:	2300      	movs	r3, #0
10007bba:	82a3      	strh	r3, [r4, #20]
10007bbc:	3301      	adds	r3, #1
10007bbe:	7423      	strb	r3, [r4, #16]
10007bc0:	61a5      	str	r5, [r4, #24]
10007bc2:	0020      	movs	r0, r4
10007bc4:	f7ff ffb6 	bl	10007b34 <_hw_endpoint_start_next_buffer>
10007bc8:	bd70      	pop	{r4, r5, r6, pc}
10007bca:	7883      	ldrb	r3, [r0, #2]
10007bcc:	217f      	movs	r1, #127	; 0x7f
10007bce:	4019      	ands	r1, r3
10007bd0:	09db      	lsrs	r3, r3, #7
10007bd2:	009b      	lsls	r3, r3, #2
10007bd4:	4a04      	ldr	r2, [pc, #16]	; (10007be8 <hw_endpoint_xfer_start+0x40>)
10007bd6:	589a      	ldr	r2, [r3, r2]
10007bd8:	4804      	ldr	r0, [pc, #16]	; (10007bec <hw_endpoint_xfer_start+0x44>)
10007bda:	f7ff fa27 	bl	1000702c <__wrap_printf>
10007bde:	0020      	movs	r0, r4
10007be0:	f7ff ff76 	bl	10007ad0 <hw_endpoint_reset_transfer>
10007be4:	e7e7      	b.n	10007bb6 <hw_endpoint_xfer_start+0xe>
10007be6:	46c0      	nop			; (mov r8, r8)
10007be8:	200084b4 	.word	0x200084b4
10007bec:	1000be00 	.word	0x1000be00

10007bf0 <hw_endpoint_xfer_continue>:
10007bf0:	b570      	push	{r4, r5, r6, lr}
10007bf2:	0004      	movs	r4, r0
10007bf4:	7c05      	ldrb	r5, [r0, #16]
10007bf6:	2d00      	cmp	r5, #0
10007bf8:	d006      	beq.n	10007c08 <hw_endpoint_xfer_continue+0x18>
10007bfa:	f7ff ff2f 	bl	10007a5c <_hw_endpoint_xfer_sync>
10007bfe:	8a63      	ldrh	r3, [r4, #18]
10007c00:	2b00      	cmp	r3, #0
10007c02:	d108      	bne.n	10007c16 <hw_endpoint_xfer_continue+0x26>
10007c04:	0028      	movs	r0, r5
10007c06:	bd70      	pop	{r4, r5, r6, pc}
10007c08:	7881      	ldrb	r1, [r0, #2]
10007c0a:	237f      	movs	r3, #127	; 0x7f
10007c0c:	4019      	ands	r1, r3
10007c0e:	4a04      	ldr	r2, [pc, #16]	; (10007c20 <hw_endpoint_xfer_continue+0x30>)
10007c10:	4804      	ldr	r0, [pc, #16]	; (10007c24 <hw_endpoint_xfer_continue+0x34>)
10007c12:	f7fc fe59 	bl	100048c8 <panic>
10007c16:	0020      	movs	r0, r4
10007c18:	f7ff ff8c 	bl	10007b34 <_hw_endpoint_start_next_buffer>
10007c1c:	2500      	movs	r5, #0
10007c1e:	e7f1      	b.n	10007c04 <hw_endpoint_xfer_continue+0x14>
10007c20:	200084b4 	.word	0x200084b4
10007c24:	1000bdd4 	.word	0x1000bdd4

10007c28 <configuration_reset>:
10007c28:	b570      	push	{r4, r5, r6, lr}
10007c2a:	0005      	movs	r5, r0
10007c2c:	2400      	movs	r4, #0
10007c2e:	e00e      	b.n	10007c4e <configuration_reset+0x26>
10007c30:	0062      	lsls	r2, r4, #1
10007c32:	1912      	adds	r2, r2, r4
10007c34:	00d1      	lsls	r1, r2, #3
10007c36:	4b18      	ldr	r3, [pc, #96]	; (10007c98 <configuration_reset+0x70>)
10007c38:	681b      	ldr	r3, [r3, #0]
10007c3a:	185b      	adds	r3, r3, r1
10007c3c:	e002      	b.n	10007c44 <configuration_reset+0x1c>
10007c3e:	0023      	movs	r3, r4
10007c40:	e010      	b.n	10007c64 <configuration_reset+0x3c>
10007c42:	2300      	movs	r3, #0
10007c44:	685b      	ldr	r3, [r3, #4]
10007c46:	0028      	movs	r0, r5
10007c48:	4798      	blx	r3
10007c4a:	3401      	adds	r4, #1
10007c4c:	b2e4      	uxtb	r4, r4
10007c4e:	4b13      	ldr	r3, [pc, #76]	; (10007c9c <configuration_reset+0x74>)
10007c50:	781b      	ldrb	r3, [r3, #0]
10007c52:	42a3      	cmp	r3, r4
10007c54:	d30e      	bcc.n	10007c74 <configuration_reset+0x4c>
10007c56:	4a12      	ldr	r2, [pc, #72]	; (10007ca0 <configuration_reset+0x78>)
10007c58:	2a00      	cmp	r2, #0
10007c5a:	d0f0      	beq.n	10007c3e <configuration_reset+0x16>
10007c5c:	42a3      	cmp	r3, r4
10007c5e:	d8e7      	bhi.n	10007c30 <configuration_reset+0x8>
10007c60:	1ae3      	subs	r3, r4, r3
10007c62:	b2db      	uxtb	r3, r3
10007c64:	2b00      	cmp	r3, #0
10007c66:	d1ec      	bne.n	10007c42 <configuration_reset+0x1a>
10007c68:	005a      	lsls	r2, r3, #1
10007c6a:	18d3      	adds	r3, r2, r3
10007c6c:	00da      	lsls	r2, r3, #3
10007c6e:	4b0d      	ldr	r3, [pc, #52]	; (10007ca4 <configuration_reset+0x7c>)
10007c70:	189b      	adds	r3, r3, r2
10007c72:	e7e7      	b.n	10007c44 <configuration_reset+0x1c>
10007c74:	4c0c      	ldr	r4, [pc, #48]	; (10007ca8 <configuration_reset+0x80>)
10007c76:	2253      	movs	r2, #83	; 0x53
10007c78:	2100      	movs	r1, #0
10007c7a:	0020      	movs	r0, r4
10007c7c:	f7ff f842 	bl	10006d04 <__wrap_memset>
10007c80:	1ce0      	adds	r0, r4, #3
10007c82:	2210      	movs	r2, #16
10007c84:	21ff      	movs	r1, #255	; 0xff
10007c86:	f7ff f83d 	bl	10006d04 <__wrap_memset>
10007c8a:	0020      	movs	r0, r4
10007c8c:	3013      	adds	r0, #19
10007c8e:	2220      	movs	r2, #32
10007c90:	21ff      	movs	r1, #255	; 0xff
10007c92:	f7ff f837 	bl	10006d04 <__wrap_memset>
10007c96:	bd70      	pop	{r4, r5, r6, pc}
10007c98:	20008634 	.word	0x20008634
10007c9c:	20008fd6 	.word	0x20008fd6
10007ca0:	10007181 	.word	0x10007181
10007ca4:	1000bffc 	.word	0x1000bffc
10007ca8:	2000896c 	.word	0x2000896c

10007cac <usbd_reset>:
10007cac:	b510      	push	{r4, lr}
10007cae:	f7ff ffbb 	bl	10007c28 <configuration_reset>
10007cb2:	f001 f82f 	bl	10008d14 <usbd_control_reset>
10007cb6:	bd10      	pop	{r4, pc}

10007cb8 <invoke_class_control>:
10007cb8:	b570      	push	{r4, r5, r6, lr}
10007cba:	0005      	movs	r5, r0
10007cbc:	000c      	movs	r4, r1
10007cbe:	0016      	movs	r6, r2
10007cc0:	68c8      	ldr	r0, [r1, #12]
10007cc2:	f001 f831 	bl	10008d28 <usbd_control_set_complete_callback>
10007cc6:	68e3      	ldr	r3, [r4, #12]
10007cc8:	0032      	movs	r2, r6
10007cca:	2100      	movs	r1, #0
10007ccc:	0028      	movs	r0, r5
10007cce:	4798      	blx	r3
10007cd0:	bd70      	pop	{r4, r5, r6, pc}
	...

10007cd4 <process_set_config>:
10007cd4:	b5f0      	push	{r4, r5, r6, r7, lr}
10007cd6:	46de      	mov	lr, fp
10007cd8:	4657      	mov	r7, sl
10007cda:	4646      	mov	r6, r8
10007cdc:	b5c0      	push	{r6, r7, lr}
10007cde:	b082      	sub	sp, #8
10007ce0:	9001      	str	r0, [sp, #4]
10007ce2:	3901      	subs	r1, #1
10007ce4:	b2c8      	uxtb	r0, r1
10007ce6:	f7ff fbbd 	bl	10007464 <tud_descriptor_configuration_cb>
10007cea:	2800      	cmp	r0, #0
10007cec:	d003      	beq.n	10007cf6 <process_set_config+0x22>
10007cee:	7843      	ldrb	r3, [r0, #1]
10007cf0:	4698      	mov	r8, r3
10007cf2:	2b02      	cmp	r3, #2
10007cf4:	d00b      	beq.n	10007d0e <process_set_config+0x3a>
10007cf6:	4a55      	ldr	r2, [pc, #340]	; (10007e4c <process_set_config+0x178>)
10007cf8:	4955      	ldr	r1, [pc, #340]	; (10007e50 <process_set_config+0x17c>)
10007cfa:	4856      	ldr	r0, [pc, #344]	; (10007e54 <process_set_config+0x180>)
10007cfc:	f7ff f996 	bl	1000702c <__wrap_printf>
10007d00:	2000      	movs	r0, #0
10007d02:	b002      	add	sp, #8
10007d04:	bc1c      	pop	{r2, r3, r4}
10007d06:	4690      	mov	r8, r2
10007d08:	469a      	mov	sl, r3
10007d0a:	46a3      	mov	fp, r4
10007d0c:	bdf0      	pop	{r4, r5, r6, r7, pc}
10007d0e:	79c5      	ldrb	r5, [r0, #7]
10007d10:	116b      	asrs	r3, r5, #5
10007d12:	2201      	movs	r2, #1
10007d14:	4c50      	ldr	r4, [pc, #320]	; (10007e58 <process_set_config+0x184>)
10007d16:	4013      	ands	r3, r2
10007d18:	0119      	lsls	r1, r3, #4
10007d1a:	7823      	ldrb	r3, [r4, #0]
10007d1c:	2610      	movs	r6, #16
10007d1e:	43b3      	bics	r3, r6
10007d20:	11ad      	asrs	r5, r5, #6
10007d22:	402a      	ands	r2, r5
10007d24:	0152      	lsls	r2, r2, #5
10007d26:	430b      	orrs	r3, r1
10007d28:	2120      	movs	r1, #32
10007d2a:	438b      	bics	r3, r1
10007d2c:	4313      	orrs	r3, r2
10007d2e:	7023      	strb	r3, [r4, #0]
10007d30:	0005      	movs	r5, r0
10007d32:	3509      	adds	r5, #9
10007d34:	7882      	ldrb	r2, [r0, #2]
10007d36:	78c3      	ldrb	r3, [r0, #3]
10007d38:	021b      	lsls	r3, r3, #8
10007d3a:	4313      	orrs	r3, r2
10007d3c:	4682      	mov	sl, r0
10007d3e:	449a      	add	sl, r3
10007d40:	e062      	b.n	10007e08 <process_set_config+0x134>
10007d42:	78eb      	ldrb	r3, [r5, #3]
10007d44:	469b      	mov	fp, r3
10007d46:	782b      	ldrb	r3, [r5, #0]
10007d48:	18ed      	adds	r5, r5, r3
10007d4a:	e064      	b.n	10007e16 <process_set_config+0x142>
10007d4c:	4a43      	ldr	r2, [pc, #268]	; (10007e5c <process_set_config+0x188>)
10007d4e:	4940      	ldr	r1, [pc, #256]	; (10007e50 <process_set_config+0x17c>)
10007d50:	4840      	ldr	r0, [pc, #256]	; (10007e54 <process_set_config+0x180>)
10007d52:	f7ff f96b 	bl	1000702c <__wrap_printf>
10007d56:	2000      	movs	r0, #0
10007d58:	e7d3      	b.n	10007d02 <process_set_config+0x2e>
10007d5a:	0063      	lsls	r3, r4, #1
10007d5c:	191b      	adds	r3, r3, r4
10007d5e:	00db      	lsls	r3, r3, #3
10007d60:	4a3f      	ldr	r2, [pc, #252]	; (10007e60 <process_set_config+0x18c>)
10007d62:	6816      	ldr	r6, [r2, #0]
10007d64:	18f6      	adds	r6, r6, r3
10007d66:	e002      	b.n	10007d6e <process_set_config+0x9a>
10007d68:	0023      	movs	r3, r4
10007d6a:	e018      	b.n	10007d9e <process_set_config+0xca>
10007d6c:	2600      	movs	r6, #0
10007d6e:	9a00      	ldr	r2, [sp, #0]
10007d70:	0029      	movs	r1, r5
10007d72:	9801      	ldr	r0, [sp, #4]
10007d74:	68b7      	ldr	r7, [r6, #8]
10007d76:	47b8      	blx	r7
10007d78:	0007      	movs	r7, r0
10007d7a:	2808      	cmp	r0, #8
10007d7c:	d902      	bls.n	10007d84 <process_set_config+0xb0>
10007d7e:	9b00      	ldr	r3, [sp, #0]
10007d80:	4283      	cmp	r3, r0
10007d82:	d214      	bcs.n	10007dae <process_set_config+0xda>
10007d84:	3401      	adds	r4, #1
10007d86:	b2e4      	uxtb	r4, r4
10007d88:	4b36      	ldr	r3, [pc, #216]	; (10007e64 <process_set_config+0x190>)
10007d8a:	781b      	ldrb	r3, [r3, #0]
10007d8c:	42a3      	cmp	r3, r4
10007d8e:	d337      	bcc.n	10007e00 <process_set_config+0x12c>
10007d90:	4a35      	ldr	r2, [pc, #212]	; (10007e68 <process_set_config+0x194>)
10007d92:	2a00      	cmp	r2, #0
10007d94:	d0e8      	beq.n	10007d68 <process_set_config+0x94>
10007d96:	42a3      	cmp	r3, r4
10007d98:	d8df      	bhi.n	10007d5a <process_set_config+0x86>
10007d9a:	1ae3      	subs	r3, r4, r3
10007d9c:	b2db      	uxtb	r3, r3
10007d9e:	2b00      	cmp	r3, #0
10007da0:	d1e4      	bne.n	10007d6c <process_set_config+0x98>
10007da2:	005a      	lsls	r2, r3, #1
10007da4:	18d3      	adds	r3, r2, r3
10007da6:	00db      	lsls	r3, r3, #3
10007da8:	4e30      	ldr	r6, [pc, #192]	; (10007e6c <process_set_config+0x198>)
10007daa:	18f6      	adds	r6, r6, r3
10007dac:	e7df      	b.n	10007d6e <process_set_config+0x9a>
10007dae:	465b      	mov	r3, fp
10007db0:	2b01      	cmp	r3, #1
10007db2:	d010      	beq.n	10007dd6 <process_set_config+0x102>
10007db4:	2200      	movs	r2, #0
10007db6:	4593      	cmp	fp, r2
10007db8:	d91a      	bls.n	10007df0 <process_set_config+0x11c>
10007dba:	78ab      	ldrb	r3, [r5, #2]
10007dbc:	189b      	adds	r3, r3, r2
10007dbe:	b2db      	uxtb	r3, r3
10007dc0:	4925      	ldr	r1, [pc, #148]	; (10007e58 <process_set_config+0x184>)
10007dc2:	18c9      	adds	r1, r1, r3
10007dc4:	78c9      	ldrb	r1, [r1, #3]
10007dc6:	29ff      	cmp	r1, #255	; 0xff
10007dc8:	d10b      	bne.n	10007de2 <process_set_config+0x10e>
10007dca:	4923      	ldr	r1, [pc, #140]	; (10007e58 <process_set_config+0x184>)
10007dcc:	18cb      	adds	r3, r1, r3
10007dce:	70dc      	strb	r4, [r3, #3]
10007dd0:	3201      	adds	r2, #1
10007dd2:	b2d2      	uxtb	r2, r2
10007dd4:	e7ef      	b.n	10007db6 <process_set_config+0xe2>
10007dd6:	68b2      	ldr	r2, [r6, #8]
10007dd8:	4b25      	ldr	r3, [pc, #148]	; (10007e70 <process_set_config+0x19c>)
10007dda:	429a      	cmp	r2, r3
10007ddc:	d1ea      	bne.n	10007db4 <process_set_config+0xe0>
10007dde:	46c3      	mov	fp, r8
10007de0:	e7e8      	b.n	10007db4 <process_set_config+0xe0>
10007de2:	4a24      	ldr	r2, [pc, #144]	; (10007e74 <process_set_config+0x1a0>)
10007de4:	491a      	ldr	r1, [pc, #104]	; (10007e50 <process_set_config+0x17c>)
10007de6:	481b      	ldr	r0, [pc, #108]	; (10007e54 <process_set_config+0x180>)
10007de8:	f7ff f920 	bl	1000702c <__wrap_printf>
10007dec:	2000      	movs	r0, #0
10007dee:	e788      	b.n	10007d02 <process_set_config+0x2e>
10007df0:	4819      	ldr	r0, [pc, #100]	; (10007e58 <process_set_config+0x184>)
10007df2:	0023      	movs	r3, r4
10007df4:	003a      	movs	r2, r7
10007df6:	0029      	movs	r1, r5
10007df8:	3013      	adds	r0, #19
10007dfa:	f001 fbbd 	bl	10009578 <tu_edpt_bind_driver>
10007dfe:	19ed      	adds	r5, r5, r7
10007e00:	4b18      	ldr	r3, [pc, #96]	; (10007e64 <process_set_config+0x190>)
10007e02:	781b      	ldrb	r3, [r3, #0]
10007e04:	42a3      	cmp	r3, r4
10007e06:	d30f      	bcc.n	10007e28 <process_set_config+0x154>
10007e08:	4555      	cmp	r5, sl
10007e0a:	d215      	bcs.n	10007e38 <process_set_config+0x164>
10007e0c:	786b      	ldrb	r3, [r5, #1]
10007e0e:	2b0b      	cmp	r3, #11
10007e10:	d097      	beq.n	10007d42 <process_set_config+0x6e>
10007e12:	2301      	movs	r3, #1
10007e14:	469b      	mov	fp, r3
10007e16:	786b      	ldrb	r3, [r5, #1]
10007e18:	2b04      	cmp	r3, #4
10007e1a:	d197      	bne.n	10007d4c <process_set_config+0x78>
10007e1c:	4653      	mov	r3, sl
10007e1e:	1b5e      	subs	r6, r3, r5
10007e20:	b2b3      	uxth	r3, r6
10007e22:	9300      	str	r3, [sp, #0]
10007e24:	2400      	movs	r4, #0
10007e26:	e7af      	b.n	10007d88 <process_set_config+0xb4>
10007e28:	22f3      	movs	r2, #243	; 0xf3
10007e2a:	0092      	lsls	r2, r2, #2
10007e2c:	4908      	ldr	r1, [pc, #32]	; (10007e50 <process_set_config+0x17c>)
10007e2e:	4809      	ldr	r0, [pc, #36]	; (10007e54 <process_set_config+0x180>)
10007e30:	f7ff f8fc 	bl	1000702c <__wrap_printf>
10007e34:	2000      	movs	r0, #0
10007e36:	e764      	b.n	10007d02 <process_set_config+0x2e>
10007e38:	4b0f      	ldr	r3, [pc, #60]	; (10007e78 <process_set_config+0x1a4>)
10007e3a:	2b00      	cmp	r3, #0
10007e3c:	d003      	beq.n	10007e46 <process_set_config+0x172>
10007e3e:	e000      	b.n	10007e42 <process_set_config+0x16e>
10007e40:	bf00      	nop
10007e42:	2001      	movs	r0, #1
10007e44:	e75d      	b.n	10007d02 <process_set_config+0x2e>
10007e46:	2001      	movs	r0, #1
10007e48:	e75b      	b.n	10007d02 <process_set_config+0x2e>
10007e4a:	46c0      	nop			; (mov r8, r8)
10007e4c:	0000037b 	.word	0x0000037b
10007e50:	1000bf9c 	.word	0x1000bf9c
10007e54:	1000c014 	.word	0x1000c014
10007e58:	2000896c 	.word	0x2000896c
10007e5c:	00000396 	.word	0x00000396
10007e60:	20008634 	.word	0x20008634
10007e64:	20008fd6 	.word	0x20008fd6
10007e68:	10007181 	.word	0x10007181
10007e6c:	1000bffc 	.word	0x1000bffc
10007e70:	10009135 	.word	0x10009135
10007e74:	000003bd 	.word	0x000003bd
10007e78:	00000000 	.word	0x00000000

10007e7c <process_get_descriptor>:
10007e7c:	b570      	push	{r4, r5, r6, lr}
10007e7e:	0004      	movs	r4, r0
10007e80:	000d      	movs	r5, r1
10007e82:	788b      	ldrb	r3, [r1, #2]
10007e84:	78c8      	ldrb	r0, [r1, #3]
10007e86:	0200      	lsls	r0, r0, #8
10007e88:	4318      	orrs	r0, r3
10007e8a:	0a02      	lsrs	r2, r0, #8
10007e8c:	b2c0      	uxtb	r0, r0
10007e8e:	2a0f      	cmp	r2, #15
10007e90:	d855      	bhi.n	10007f3e <process_get_descriptor+0xc2>
10007e92:	0093      	lsls	r3, r2, #2
10007e94:	4930      	ldr	r1, [pc, #192]	; (10007f58 <process_get_descriptor+0xdc>)
10007e96:	58cb      	ldr	r3, [r1, r3]
10007e98:	469f      	mov	pc, r3
10007e9a:	f7ff fadf 	bl	1000745c <tud_descriptor_device_cb>
10007e9e:	0002      	movs	r2, r0
10007ea0:	2312      	movs	r3, #18
10007ea2:	0029      	movs	r1, r5
10007ea4:	0020      	movs	r0, r4
10007ea6:	f000 fee3 	bl	10008c70 <tud_control_xfer>
10007eaa:	bd70      	pop	{r4, r5, r6, pc}
10007eac:	4b2b      	ldr	r3, [pc, #172]	; (10007f5c <process_get_descriptor+0xe0>)
10007eae:	2b00      	cmp	r3, #0
10007eb0:	d047      	beq.n	10007f42 <process_get_descriptor+0xc6>
10007eb2:	e000      	b.n	10007eb6 <process_get_descriptor+0x3a>
10007eb4:	bf00      	nop
10007eb6:	0002      	movs	r2, r0
10007eb8:	7881      	ldrb	r1, [r0, #2]
10007eba:	78c3      	ldrb	r3, [r0, #3]
10007ebc:	021b      	lsls	r3, r3, #8
10007ebe:	430b      	orrs	r3, r1
10007ec0:	0029      	movs	r1, r5
10007ec2:	0020      	movs	r0, r4
10007ec4:	f000 fed4 	bl	10008c70 <tud_control_xfer>
10007ec8:	e7ef      	b.n	10007eaa <process_get_descriptor+0x2e>
10007eca:	2a02      	cmp	r2, #2
10007ecc:	d010      	beq.n	10007ef0 <process_get_descriptor+0x74>
10007ece:	4b24      	ldr	r3, [pc, #144]	; (10007f60 <process_get_descriptor+0xe4>)
10007ed0:	2b00      	cmp	r3, #0
10007ed2:	d038      	beq.n	10007f46 <process_get_descriptor+0xca>
10007ed4:	e000      	b.n	10007ed8 <process_get_descriptor+0x5c>
10007ed6:	bf00      	nop
10007ed8:	2800      	cmp	r0, #0
10007eda:	d00c      	beq.n	10007ef6 <process_get_descriptor+0x7a>
10007edc:	7882      	ldrb	r2, [r0, #2]
10007ede:	78c3      	ldrb	r3, [r0, #3]
10007ee0:	021b      	lsls	r3, r3, #8
10007ee2:	4313      	orrs	r3, r2
10007ee4:	0002      	movs	r2, r0
10007ee6:	0029      	movs	r1, r5
10007ee8:	0020      	movs	r0, r4
10007eea:	f000 fec1 	bl	10008c70 <tud_control_xfer>
10007eee:	e7dc      	b.n	10007eaa <process_get_descriptor+0x2e>
10007ef0:	f7ff fab8 	bl	10007464 <tud_descriptor_configuration_cb>
10007ef4:	e7f0      	b.n	10007ed8 <process_get_descriptor+0x5c>
10007ef6:	4a1b      	ldr	r2, [pc, #108]	; (10007f64 <process_get_descriptor+0xe8>)
10007ef8:	491b      	ldr	r1, [pc, #108]	; (10007f68 <process_get_descriptor+0xec>)
10007efa:	481c      	ldr	r0, [pc, #112]	; (10007f6c <process_get_descriptor+0xf0>)
10007efc:	f7ff f896 	bl	1000702c <__wrap_printf>
10007f00:	2000      	movs	r0, #0
10007f02:	e7d2      	b.n	10007eaa <process_get_descriptor+0x2e>
10007f04:	792b      	ldrb	r3, [r5, #4]
10007f06:	7969      	ldrb	r1, [r5, #5]
10007f08:	0209      	lsls	r1, r1, #8
10007f0a:	4319      	orrs	r1, r3
10007f0c:	f7ff faae 	bl	1000746c <tud_descriptor_string_cb>
10007f10:	2800      	cmp	r0, #0
10007f12:	d01a      	beq.n	10007f4a <process_get_descriptor+0xce>
10007f14:	7803      	ldrb	r3, [r0, #0]
10007f16:	0002      	movs	r2, r0
10007f18:	0029      	movs	r1, r5
10007f1a:	0020      	movs	r0, r4
10007f1c:	f000 fea8 	bl	10008c70 <tud_control_xfer>
10007f20:	e7c3      	b.n	10007eaa <process_get_descriptor+0x2e>
10007f22:	4b13      	ldr	r3, [pc, #76]	; (10007f70 <process_get_descriptor+0xf4>)
10007f24:	2b00      	cmp	r3, #0
10007f26:	d012      	beq.n	10007f4e <process_get_descriptor+0xd2>
10007f28:	e000      	b.n	10007f2c <process_get_descriptor+0xb0>
10007f2a:	bf00      	nop
10007f2c:	2800      	cmp	r0, #0
10007f2e:	d010      	beq.n	10007f52 <process_get_descriptor+0xd6>
10007f30:	7803      	ldrb	r3, [r0, #0]
10007f32:	0002      	movs	r2, r0
10007f34:	0029      	movs	r1, r5
10007f36:	0020      	movs	r0, r4
10007f38:	f000 fe9a 	bl	10008c70 <tud_control_xfer>
10007f3c:	e7b5      	b.n	10007eaa <process_get_descriptor+0x2e>
10007f3e:	2000      	movs	r0, #0
10007f40:	e7b3      	b.n	10007eaa <process_get_descriptor+0x2e>
10007f42:	2000      	movs	r0, #0
10007f44:	e7b1      	b.n	10007eaa <process_get_descriptor+0x2e>
10007f46:	2000      	movs	r0, #0
10007f48:	e7af      	b.n	10007eaa <process_get_descriptor+0x2e>
10007f4a:	2000      	movs	r0, #0
10007f4c:	e7ad      	b.n	10007eaa <process_get_descriptor+0x2e>
10007f4e:	2000      	movs	r0, #0
10007f50:	e7ab      	b.n	10007eaa <process_get_descriptor+0x2e>
10007f52:	2000      	movs	r0, #0
10007f54:	e7a9      	b.n	10007eaa <process_get_descriptor+0x2e>
10007f56:	46c0      	nop			; (mov r8, r8)
10007f58:	1000bedc 	.word	0x1000bedc
	...
10007f64:	00000414 	.word	0x00000414
10007f68:	1000bfb0 	.word	0x1000bfb0
10007f6c:	1000c014 	.word	0x1000c014
10007f70:	00000000 	.word	0x00000000

10007f74 <tud_mounted>:
10007f74:	4b02      	ldr	r3, [pc, #8]	; (10007f80 <tud_mounted+0xc>)
10007f76:	7858      	ldrb	r0, [r3, #1]
10007f78:	1e43      	subs	r3, r0, #1
10007f7a:	4198      	sbcs	r0, r3
10007f7c:	b2c0      	uxtb	r0, r0
10007f7e:	4770      	bx	lr
10007f80:	2000896c 	.word	0x2000896c

10007f84 <tud_suspended>:
10007f84:	4b02      	ldr	r3, [pc, #8]	; (10007f90 <tud_suspended+0xc>)
10007f86:	7818      	ldrb	r0, [r3, #0]
10007f88:	0740      	lsls	r0, r0, #29
10007f8a:	0fc0      	lsrs	r0, r0, #31
10007f8c:	4770      	bx	lr
10007f8e:	46c0      	nop			; (mov r8, r8)
10007f90:	2000896c 	.word	0x2000896c

10007f94 <tud_inited>:
10007f94:	4b01      	ldr	r3, [pc, #4]	; (10007f9c <tud_inited+0x8>)
10007f96:	7818      	ldrb	r0, [r3, #0]
10007f98:	4770      	bx	lr
10007f9a:	46c0      	nop			; (mov r8, r8)
10007f9c:	20008fd7 	.word	0x20008fd7

10007fa0 <tud_init>:
10007fa0:	b570      	push	{r4, r5, r6, lr}
10007fa2:	0005      	movs	r5, r0
10007fa4:	4b27      	ldr	r3, [pc, #156]	; (10008044 <tud_init+0xa4>)
10007fa6:	7818      	ldrb	r0, [r3, #0]
10007fa8:	2800      	cmp	r0, #0
10007faa:	d000      	beq.n	10007fae <tud_init+0xe>
10007fac:	bd70      	pop	{r4, r5, r6, pc}
10007fae:	2253      	movs	r2, #83	; 0x53
10007fb0:	2100      	movs	r1, #0
10007fb2:	4825      	ldr	r0, [pc, #148]	; (10008048 <tud_init+0xa8>)
10007fb4:	f7fe fea6 	bl	10006d04 <__wrap_memset>
10007fb8:	4c24      	ldr	r4, [pc, #144]	; (1000804c <tud_init+0xac>)
10007fba:	0020      	movs	r0, r4
10007fbc:	f7fc fbb4 	bl	10004728 <mutex_init>
10007fc0:	4b23      	ldr	r3, [pc, #140]	; (10008050 <tud_init+0xb0>)
10007fc2:	601c      	str	r4, [r3, #0]
10007fc4:	4c23      	ldr	r4, [pc, #140]	; (10008054 <tud_init+0xb4>)
10007fc6:	0020      	movs	r0, r4
10007fc8:	301c      	adds	r0, #28
10007fca:	f7fc fbd3 	bl	10004774 <critical_section_init>
10007fce:	0020      	movs	r0, r4
10007fd0:	f001 fdd5 	bl	10009b7e <tu_fifo_clear>
10007fd4:	4b20      	ldr	r3, [pc, #128]	; (10008058 <tud_init+0xb8>)
10007fd6:	601c      	str	r4, [r3, #0]
10007fd8:	4b20      	ldr	r3, [pc, #128]	; (1000805c <tud_init+0xbc>)
10007fda:	2b00      	cmp	r3, #0
10007fdc:	d004      	beq.n	10007fe8 <tud_init+0x48>
10007fde:	4820      	ldr	r0, [pc, #128]	; (10008060 <tud_init+0xc0>)
10007fe0:	f7ff f8ce 	bl	10007180 <usbd_app_driver_get_cb>
10007fe4:	4b1f      	ldr	r3, [pc, #124]	; (10008064 <tud_init+0xc4>)
10007fe6:	6018      	str	r0, [r3, #0]
10007fe8:	2400      	movs	r4, #0
10007fea:	e00d      	b.n	10008008 <tud_init+0x68>
10007fec:	0062      	lsls	r2, r4, #1
10007fee:	1912      	adds	r2, r2, r4
10007ff0:	00d1      	lsls	r1, r2, #3
10007ff2:	4b1c      	ldr	r3, [pc, #112]	; (10008064 <tud_init+0xc4>)
10007ff4:	681b      	ldr	r3, [r3, #0]
10007ff6:	185b      	adds	r3, r3, r1
10007ff8:	e002      	b.n	10008000 <tud_init+0x60>
10007ffa:	0023      	movs	r3, r4
10007ffc:	e00f      	b.n	1000801e <tud_init+0x7e>
10007ffe:	2300      	movs	r3, #0
10008000:	681b      	ldr	r3, [r3, #0]
10008002:	4798      	blx	r3
10008004:	3401      	adds	r4, #1
10008006:	b2e4      	uxtb	r4, r4
10008008:	4b15      	ldr	r3, [pc, #84]	; (10008060 <tud_init+0xc0>)
1000800a:	781b      	ldrb	r3, [r3, #0]
1000800c:	42a3      	cmp	r3, r4
1000800e:	d30e      	bcc.n	1000802e <tud_init+0x8e>
10008010:	4a12      	ldr	r2, [pc, #72]	; (1000805c <tud_init+0xbc>)
10008012:	2a00      	cmp	r2, #0
10008014:	d0f1      	beq.n	10007ffa <tud_init+0x5a>
10008016:	42a3      	cmp	r3, r4
10008018:	d8e8      	bhi.n	10007fec <tud_init+0x4c>
1000801a:	1ae3      	subs	r3, r4, r3
1000801c:	b2db      	uxtb	r3, r3
1000801e:	2b00      	cmp	r3, #0
10008020:	d1ed      	bne.n	10007ffe <tud_init+0x5e>
10008022:	005a      	lsls	r2, r3, #1
10008024:	18d3      	adds	r3, r2, r3
10008026:	00da      	lsls	r2, r3, #3
10008028:	4b0f      	ldr	r3, [pc, #60]	; (10008068 <tud_init+0xc8>)
1000802a:	189b      	adds	r3, r3, r2
1000802c:	e7e8      	b.n	10008000 <tud_init+0x60>
1000802e:	0028      	movs	r0, r5
10008030:	f7ff fbf0 	bl	10007814 <dcd_init>
10008034:	0028      	movs	r0, r5
10008036:	f7ff fbb9 	bl	100077ac <dcd_int_enable>
1000803a:	4b02      	ldr	r3, [pc, #8]	; (10008044 <tud_init+0xa4>)
1000803c:	2201      	movs	r2, #1
1000803e:	701a      	strb	r2, [r3, #0]
10008040:	2001      	movs	r0, #1
10008042:	e7b3      	b.n	10007fac <tud_init+0xc>
10008044:	20008fd7 	.word	0x20008fd7
10008048:	2000896c 	.word	0x2000896c
1000804c:	20008924 	.word	0x20008924
10008050:	200089c0 	.word	0x200089c0
10008054:	200084bc 	.word	0x200084bc
10008058:	200089c4 	.word	0x200089c4
1000805c:	10007181 	.word	0x10007181
10008060:	20008fd6 	.word	0x20008fd6
10008064:	20008634 	.word	0x20008634
10008068:	1000bffc 	.word	0x1000bffc

1000806c <dcd_event_handler>:
1000806c:	b530      	push	{r4, r5, lr}
1000806e:	b085      	sub	sp, #20
10008070:	0004      	movs	r4, r0
10008072:	7843      	ldrb	r3, [r0, #1]
10008074:	2b03      	cmp	r3, #3
10008076:	d100      	bne.n	1000807a <dcd_event_handler+0xe>
10008078:	e08b      	b.n	10008192 <dcd_event_handler+0x126>
1000807a:	d92d      	bls.n	100080d8 <dcd_event_handler+0x6c>
1000807c:	2b04      	cmp	r3, #4
1000807e:	d05f      	beq.n	10008140 <dcd_event_handler+0xd4>
10008080:	2b05      	cmp	r3, #5
10008082:	d000      	beq.n	10008086 <dcd_event_handler+0x1a>
10008084:	e0b8      	b.n	100081f8 <dcd_event_handler+0x18c>
10008086:	4b6d      	ldr	r3, [pc, #436]	; (1000823c <dcd_event_handler+0x1d0>)
10008088:	781b      	ldrb	r3, [r3, #0]
1000808a:	07db      	lsls	r3, r3, #31
1000808c:	d550      	bpl.n	10008130 <dcd_event_handler+0xc4>
1000808e:	4a6b      	ldr	r2, [pc, #428]	; (1000823c <dcd_event_handler+0x1d0>)
10008090:	7813      	ldrb	r3, [r2, #0]
10008092:	2104      	movs	r1, #4
10008094:	438b      	bics	r3, r1
10008096:	7013      	strb	r3, [r2, #0]
10008098:	4b69      	ldr	r3, [pc, #420]	; (10008240 <dcd_event_handler+0x1d4>)
1000809a:	681d      	ldr	r5, [r3, #0]
1000809c:	69ea      	ldr	r2, [r5, #28]
1000809e:	f3ef 8110 	mrs	r1, PRIMASK
100080a2:	b672      	cpsid	i
100080a4:	6813      	ldr	r3, [r2, #0]
100080a6:	2b00      	cmp	r3, #0
100080a8:	d0fc      	beq.n	100080a4 <dcd_event_handler+0x38>
100080aa:	f3bf 8f5f 	dmb	sy
100080ae:	6229      	str	r1, [r5, #32]
100080b0:	0021      	movs	r1, r4
100080b2:	0028      	movs	r0, r5
100080b4:	f001 fd28 	bl	10009b08 <tu_fifo_write>
100080b8:	69ea      	ldr	r2, [r5, #28]
100080ba:	6a2b      	ldr	r3, [r5, #32]
100080bc:	f3bf 8f5f 	dmb	sy
100080c0:	2100      	movs	r1, #0
100080c2:	6011      	str	r1, [r2, #0]
100080c4:	f383 8810 	msr	PRIMASK, r3
100080c8:	2800      	cmp	r0, #0
100080ca:	d131      	bne.n	10008130 <dcd_event_handler+0xc4>
100080cc:	22a8      	movs	r2, #168	; 0xa8
100080ce:	495d      	ldr	r1, [pc, #372]	; (10008244 <dcd_event_handler+0x1d8>)
100080d0:	485d      	ldr	r0, [pc, #372]	; (10008248 <dcd_event_handler+0x1dc>)
100080d2:	f7fe ffab 	bl	1000702c <__wrap_printf>
100080d6:	e02b      	b.n	10008130 <dcd_event_handler+0xc4>
100080d8:	2b02      	cmp	r3, #2
100080da:	d000      	beq.n	100080de <dcd_event_handler+0x72>
100080dc:	e08c      	b.n	100081f8 <dcd_event_handler+0x18c>
100080de:	4b57      	ldr	r3, [pc, #348]	; (1000823c <dcd_event_handler+0x1d0>)
100080e0:	781a      	ldrb	r2, [r3, #0]
100080e2:	2101      	movs	r1, #1
100080e4:	438a      	bics	r2, r1
100080e6:	701a      	strb	r2, [r3, #0]
100080e8:	781a      	ldrb	r2, [r3, #0]
100080ea:	3101      	adds	r1, #1
100080ec:	438a      	bics	r2, r1
100080ee:	701a      	strb	r2, [r3, #0]
100080f0:	2200      	movs	r2, #0
100080f2:	705a      	strb	r2, [r3, #1]
100080f4:	781a      	ldrb	r2, [r3, #0]
100080f6:	3102      	adds	r1, #2
100080f8:	438a      	bics	r2, r1
100080fa:	701a      	strb	r2, [r3, #0]
100080fc:	4b50      	ldr	r3, [pc, #320]	; (10008240 <dcd_event_handler+0x1d4>)
100080fe:	681d      	ldr	r5, [r3, #0]
10008100:	69ea      	ldr	r2, [r5, #28]
10008102:	f3ef 8110 	mrs	r1, PRIMASK
10008106:	b672      	cpsid	i
10008108:	6813      	ldr	r3, [r2, #0]
1000810a:	2b00      	cmp	r3, #0
1000810c:	d0fc      	beq.n	10008108 <dcd_event_handler+0x9c>
1000810e:	f3bf 8f5f 	dmb	sy
10008112:	6229      	str	r1, [r5, #32]
10008114:	0021      	movs	r1, r4
10008116:	0028      	movs	r0, r5
10008118:	f001 fcf6 	bl	10009b08 <tu_fifo_write>
1000811c:	69ea      	ldr	r2, [r5, #28]
1000811e:	6a2b      	ldr	r3, [r5, #32]
10008120:	f3bf 8f5f 	dmb	sy
10008124:	2100      	movs	r1, #0
10008126:	6011      	str	r1, [r2, #0]
10008128:	f383 8810 	msr	PRIMASK, r3
1000812c:	2800      	cmp	r0, #0
1000812e:	d001      	beq.n	10008134 <dcd_event_handler+0xc8>
10008130:	b005      	add	sp, #20
10008132:	bd30      	pop	{r4, r5, pc}
10008134:	22a8      	movs	r2, #168	; 0xa8
10008136:	4943      	ldr	r1, [pc, #268]	; (10008244 <dcd_event_handler+0x1d8>)
10008138:	4843      	ldr	r0, [pc, #268]	; (10008248 <dcd_event_handler+0x1dc>)
1000813a:	f7fe ff77 	bl	1000702c <__wrap_printf>
1000813e:	e7f7      	b.n	10008130 <dcd_event_handler+0xc4>
10008140:	4b3e      	ldr	r3, [pc, #248]	; (1000823c <dcd_event_handler+0x1d0>)
10008142:	781b      	ldrb	r3, [r3, #0]
10008144:	07db      	lsls	r3, r3, #31
10008146:	d5f3      	bpl.n	10008130 <dcd_event_handler+0xc4>
10008148:	4a3c      	ldr	r2, [pc, #240]	; (1000823c <dcd_event_handler+0x1d0>)
1000814a:	7813      	ldrb	r3, [r2, #0]
1000814c:	2104      	movs	r1, #4
1000814e:	430b      	orrs	r3, r1
10008150:	7013      	strb	r3, [r2, #0]
10008152:	4b3b      	ldr	r3, [pc, #236]	; (10008240 <dcd_event_handler+0x1d4>)
10008154:	681d      	ldr	r5, [r3, #0]
10008156:	69ea      	ldr	r2, [r5, #28]
10008158:	f3ef 8110 	mrs	r1, PRIMASK
1000815c:	b672      	cpsid	i
1000815e:	6813      	ldr	r3, [r2, #0]
10008160:	2b00      	cmp	r3, #0
10008162:	d0fc      	beq.n	1000815e <dcd_event_handler+0xf2>
10008164:	f3bf 8f5f 	dmb	sy
10008168:	6229      	str	r1, [r5, #32]
1000816a:	0021      	movs	r1, r4
1000816c:	0028      	movs	r0, r5
1000816e:	f001 fccb 	bl	10009b08 <tu_fifo_write>
10008172:	69ea      	ldr	r2, [r5, #28]
10008174:	6a2b      	ldr	r3, [r5, #32]
10008176:	f3bf 8f5f 	dmb	sy
1000817a:	2100      	movs	r1, #0
1000817c:	6011      	str	r1, [r2, #0]
1000817e:	f383 8810 	msr	PRIMASK, r3
10008182:	2800      	cmp	r0, #0
10008184:	d1d4      	bne.n	10008130 <dcd_event_handler+0xc4>
10008186:	22a8      	movs	r2, #168	; 0xa8
10008188:	492e      	ldr	r1, [pc, #184]	; (10008244 <dcd_event_handler+0x1d8>)
1000818a:	482f      	ldr	r0, [pc, #188]	; (10008248 <dcd_event_handler+0x1dc>)
1000818c:	f7fe ff4e 	bl	1000702c <__wrap_printf>
10008190:	e7ce      	b.n	10008130 <dcd_event_handler+0xc4>
10008192:	4b2a      	ldr	r3, [pc, #168]	; (1000823c <dcd_event_handler+0x1d0>)
10008194:	781b      	ldrb	r3, [r3, #0]
10008196:	075b      	lsls	r3, r3, #29
10008198:	d5ca      	bpl.n	10008130 <dcd_event_handler+0xc4>
1000819a:	4a28      	ldr	r2, [pc, #160]	; (1000823c <dcd_event_handler+0x1d0>)
1000819c:	7813      	ldrb	r3, [r2, #0]
1000819e:	2104      	movs	r1, #4
100081a0:	438b      	bics	r3, r1
100081a2:	7013      	strb	r3, [r2, #0]
100081a4:	ad01      	add	r5, sp, #4
100081a6:	220c      	movs	r2, #12
100081a8:	2100      	movs	r1, #0
100081aa:	0028      	movs	r0, r5
100081ac:	f7fe fdaa 	bl	10006d04 <__wrap_memset>
100081b0:	7823      	ldrb	r3, [r4, #0]
100081b2:	702b      	strb	r3, [r5, #0]
100081b4:	2305      	movs	r3, #5
100081b6:	706b      	strb	r3, [r5, #1]
100081b8:	4b21      	ldr	r3, [pc, #132]	; (10008240 <dcd_event_handler+0x1d4>)
100081ba:	681c      	ldr	r4, [r3, #0]
100081bc:	69e2      	ldr	r2, [r4, #28]
100081be:	f3ef 8110 	mrs	r1, PRIMASK
100081c2:	b672      	cpsid	i
100081c4:	6813      	ldr	r3, [r2, #0]
100081c6:	2b00      	cmp	r3, #0
100081c8:	d0fc      	beq.n	100081c4 <dcd_event_handler+0x158>
100081ca:	f3bf 8f5f 	dmb	sy
100081ce:	6221      	str	r1, [r4, #32]
100081d0:	a901      	add	r1, sp, #4
100081d2:	0020      	movs	r0, r4
100081d4:	f001 fc98 	bl	10009b08 <tu_fifo_write>
100081d8:	69e2      	ldr	r2, [r4, #28]
100081da:	6a23      	ldr	r3, [r4, #32]
100081dc:	f3bf 8f5f 	dmb	sy
100081e0:	2100      	movs	r1, #0
100081e2:	6011      	str	r1, [r2, #0]
100081e4:	f383 8810 	msr	PRIMASK, r3
100081e8:	2800      	cmp	r0, #0
100081ea:	d1a1      	bne.n	10008130 <dcd_event_handler+0xc4>
100081ec:	22a8      	movs	r2, #168	; 0xa8
100081ee:	4915      	ldr	r1, [pc, #84]	; (10008244 <dcd_event_handler+0x1d8>)
100081f0:	4815      	ldr	r0, [pc, #84]	; (10008248 <dcd_event_handler+0x1dc>)
100081f2:	f7fe ff1b 	bl	1000702c <__wrap_printf>
100081f6:	e79b      	b.n	10008130 <dcd_event_handler+0xc4>
100081f8:	4b11      	ldr	r3, [pc, #68]	; (10008240 <dcd_event_handler+0x1d4>)
100081fa:	681d      	ldr	r5, [r3, #0]
100081fc:	69ea      	ldr	r2, [r5, #28]
100081fe:	f3ef 8110 	mrs	r1, PRIMASK
10008202:	b672      	cpsid	i
10008204:	6813      	ldr	r3, [r2, #0]
10008206:	2b00      	cmp	r3, #0
10008208:	d0fc      	beq.n	10008204 <dcd_event_handler+0x198>
1000820a:	f3bf 8f5f 	dmb	sy
1000820e:	6229      	str	r1, [r5, #32]
10008210:	0021      	movs	r1, r4
10008212:	0028      	movs	r0, r5
10008214:	f001 fc78 	bl	10009b08 <tu_fifo_write>
10008218:	69ea      	ldr	r2, [r5, #28]
1000821a:	6a2b      	ldr	r3, [r5, #32]
1000821c:	f3bf 8f5f 	dmb	sy
10008220:	2100      	movs	r1, #0
10008222:	6011      	str	r1, [r2, #0]
10008224:	f383 8810 	msr	PRIMASK, r3
10008228:	2800      	cmp	r0, #0
1000822a:	d000      	beq.n	1000822e <dcd_event_handler+0x1c2>
1000822c:	e780      	b.n	10008130 <dcd_event_handler+0xc4>
1000822e:	22a8      	movs	r2, #168	; 0xa8
10008230:	4904      	ldr	r1, [pc, #16]	; (10008244 <dcd_event_handler+0x1d8>)
10008232:	4805      	ldr	r0, [pc, #20]	; (10008248 <dcd_event_handler+0x1dc>)
10008234:	f7fe fefa 	bl	1000702c <__wrap_printf>
10008238:	e77a      	b.n	10008130 <dcd_event_handler+0xc4>
1000823a:	46c0      	nop			; (mov r8, r8)
1000823c:	2000896c 	.word	0x2000896c
10008240:	200089c4 	.word	0x200089c4
10008244:	1000bf68 	.word	0x1000bf68
10008248:	1000c014 	.word	0x1000c014

1000824c <dcd_event_bus_signal>:
1000824c:	b5f0      	push	{r4, r5, r6, r7, lr}
1000824e:	b085      	sub	sp, #20
10008250:	0007      	movs	r7, r0
10008252:	000e      	movs	r6, r1
10008254:	0015      	movs	r5, r2
10008256:	ac01      	add	r4, sp, #4
10008258:	220a      	movs	r2, #10
1000825a:	2100      	movs	r1, #0
1000825c:	466b      	mov	r3, sp
1000825e:	1d98      	adds	r0, r3, #6
10008260:	f7fe fd50 	bl	10006d04 <__wrap_memset>
10008264:	7027      	strb	r7, [r4, #0]
10008266:	7066      	strb	r6, [r4, #1]
10008268:	0029      	movs	r1, r5
1000826a:	0020      	movs	r0, r4
1000826c:	f7ff fefe 	bl	1000806c <dcd_event_handler>
10008270:	b005      	add	sp, #20
10008272:	bdf0      	pop	{r4, r5, r6, r7, pc}

10008274 <dcd_event_bus_reset>:
10008274:	b5f0      	push	{r4, r5, r6, r7, lr}
10008276:	b085      	sub	sp, #20
10008278:	0007      	movs	r7, r0
1000827a:	000e      	movs	r6, r1
1000827c:	0015      	movs	r5, r2
1000827e:	ac01      	add	r4, sp, #4
10008280:	220a      	movs	r2, #10
10008282:	2100      	movs	r1, #0
10008284:	466b      	mov	r3, sp
10008286:	1d98      	adds	r0, r3, #6
10008288:	f7fe fd3c 	bl	10006d04 <__wrap_memset>
1000828c:	7027      	strb	r7, [r4, #0]
1000828e:	2301      	movs	r3, #1
10008290:	7063      	strb	r3, [r4, #1]
10008292:	7126      	strb	r6, [r4, #4]
10008294:	0029      	movs	r1, r5
10008296:	0020      	movs	r0, r4
10008298:	f7ff fee8 	bl	1000806c <dcd_event_handler>
1000829c:	b005      	add	sp, #20
1000829e:	bdf0      	pop	{r4, r5, r6, r7, pc}

100082a0 <dcd_event_setup_received>:
100082a0:	b5f0      	push	{r4, r5, r6, r7, lr}
100082a2:	b085      	sub	sp, #20
100082a4:	0007      	movs	r7, r0
100082a6:	000e      	movs	r6, r1
100082a8:	0015      	movs	r5, r2
100082aa:	ac01      	add	r4, sp, #4
100082ac:	220a      	movs	r2, #10
100082ae:	2100      	movs	r1, #0
100082b0:	466b      	mov	r3, sp
100082b2:	1d98      	adds	r0, r3, #6
100082b4:	f7fe fd26 	bl	10006d04 <__wrap_memset>
100082b8:	7027      	strb	r7, [r4, #0]
100082ba:	2306      	movs	r3, #6
100082bc:	7063      	strb	r3, [r4, #1]
100082be:	2208      	movs	r2, #8
100082c0:	0031      	movs	r1, r6
100082c2:	a802      	add	r0, sp, #8
100082c4:	f7fe fd24 	bl	10006d10 <__wrap___aeabi_memcpy>
100082c8:	0029      	movs	r1, r5
100082ca:	0020      	movs	r0, r4
100082cc:	f7ff fece 	bl	1000806c <dcd_event_handler>
100082d0:	b005      	add	sp, #20
100082d2:	bdf0      	pop	{r4, r5, r6, r7, pc}

100082d4 <dcd_event_xfer_complete>:
100082d4:	b5f0      	push	{r4, r5, r6, r7, lr}
100082d6:	46ce      	mov	lr, r9
100082d8:	4647      	mov	r7, r8
100082da:	b580      	push	{r7, lr}
100082dc:	b085      	sub	sp, #20
100082de:	4681      	mov	r9, r0
100082e0:	4688      	mov	r8, r1
100082e2:	0017      	movs	r7, r2
100082e4:	001e      	movs	r6, r3
100082e6:	ab0c      	add	r3, sp, #48	; 0x30
100082e8:	781d      	ldrb	r5, [r3, #0]
100082ea:	ac01      	add	r4, sp, #4
100082ec:	2206      	movs	r2, #6
100082ee:	2100      	movs	r1, #0
100082f0:	466b      	mov	r3, sp
100082f2:	1d98      	adds	r0, r3, #6
100082f4:	f7fe fd06 	bl	10006d04 <__wrap_memset>
100082f8:	464b      	mov	r3, r9
100082fa:	7023      	strb	r3, [r4, #0]
100082fc:	2307      	movs	r3, #7
100082fe:	7063      	strb	r3, [r4, #1]
10008300:	4643      	mov	r3, r8
10008302:	7123      	strb	r3, [r4, #4]
10008304:	60a7      	str	r7, [r4, #8]
10008306:	7166      	strb	r6, [r4, #5]
10008308:	0029      	movs	r1, r5
1000830a:	0020      	movs	r0, r4
1000830c:	f7ff feae 	bl	1000806c <dcd_event_handler>
10008310:	b005      	add	sp, #20
10008312:	bc0c      	pop	{r2, r3}
10008314:	4690      	mov	r8, r2
10008316:	4699      	mov	r9, r3
10008318:	bdf0      	pop	{r4, r5, r6, r7, pc}
	...

1000831c <usbd_edpt_open>:
1000831c:	b570      	push	{r4, r5, r6, lr}
1000831e:	0006      	movs	r6, r0
10008320:	000d      	movs	r5, r1
10008322:	788b      	ldrb	r3, [r1, #2]
10008324:	2270      	movs	r2, #112	; 0x70
10008326:	421a      	tst	r2, r3
10008328:	d10d      	bne.n	10008346 <usbd_edpt_open+0x2a>
1000832a:	4b0d      	ldr	r3, [pc, #52]	; (10008360 <usbd_edpt_open+0x44>)
1000832c:	7899      	ldrb	r1, [r3, #2]
1000832e:	0028      	movs	r0, r5
10008330:	f001 f8ce 	bl	100094d0 <tu_edpt_validate>
10008334:	1e04      	subs	r4, r0, #0
10008336:	d00d      	beq.n	10008354 <usbd_edpt_open+0x38>
10008338:	0029      	movs	r1, r5
1000833a:	0030      	movs	r0, r6
1000833c:	f7ff fab6 	bl	100078ac <dcd_edpt_open>
10008340:	0004      	movs	r4, r0
10008342:	0020      	movs	r0, r4
10008344:	bd70      	pop	{r4, r5, r6, pc}
10008346:	4a07      	ldr	r2, [pc, #28]	; (10008364 <usbd_edpt_open+0x48>)
10008348:	4907      	ldr	r1, [pc, #28]	; (10008368 <usbd_edpt_open+0x4c>)
1000834a:	4808      	ldr	r0, [pc, #32]	; (1000836c <usbd_edpt_open+0x50>)
1000834c:	f7fe fe6e 	bl	1000702c <__wrap_printf>
10008350:	2400      	movs	r4, #0
10008352:	e7f6      	b.n	10008342 <usbd_edpt_open+0x26>
10008354:	4a06      	ldr	r2, [pc, #24]	; (10008370 <usbd_edpt_open+0x54>)
10008356:	4904      	ldr	r1, [pc, #16]	; (10008368 <usbd_edpt_open+0x4c>)
10008358:	4804      	ldr	r0, [pc, #16]	; (1000836c <usbd_edpt_open+0x50>)
1000835a:	f7fe fe67 	bl	1000702c <__wrap_printf>
1000835e:	e7f0      	b.n	10008342 <usbd_edpt_open+0x26>
10008360:	2000896c 	.word	0x2000896c
10008364:	000004c2 	.word	0x000004c2
10008368:	1000bfdc 	.word	0x1000bfdc
1000836c:	1000c014 	.word	0x1000c014
10008370:	000004c3 	.word	0x000004c3

10008374 <usbd_open_edpt_pair>:
10008374:	b5f0      	push	{r4, r5, r6, r7, lr}
10008376:	46ce      	mov	lr, r9
10008378:	4647      	mov	r7, r8
1000837a:	b580      	push	{r7, lr}
1000837c:	b083      	sub	sp, #12
1000837e:	9001      	str	r0, [sp, #4]
10008380:	000c      	movs	r4, r1
10008382:	4690      	mov	r8, r2
10008384:	001d      	movs	r5, r3
10008386:	9b0a      	ldr	r3, [sp, #40]	; 0x28
10008388:	4699      	mov	r9, r3
1000838a:	2700      	movs	r7, #0
1000838c:	e016      	b.n	100083bc <usbd_open_edpt_pair+0x48>
1000838e:	4a18      	ldr	r2, [pc, #96]	; (100083f0 <usbd_open_edpt_pair+0x7c>)
10008390:	4918      	ldr	r1, [pc, #96]	; (100083f4 <usbd_open_edpt_pair+0x80>)
10008392:	4819      	ldr	r0, [pc, #100]	; (100083f8 <usbd_open_edpt_pair+0x84>)
10008394:	f7fe fe4a 	bl	1000702c <__wrap_printf>
10008398:	2600      	movs	r6, #0
1000839a:	0030      	movs	r0, r6
1000839c:	b003      	add	sp, #12
1000839e:	bc0c      	pop	{r2, r3}
100083a0:	4690      	mov	r8, r2
100083a2:	4699      	mov	r9, r3
100083a4:	bdf0      	pop	{r4, r5, r6, r7, pc}
100083a6:	4a15      	ldr	r2, [pc, #84]	; (100083fc <usbd_open_edpt_pair+0x88>)
100083a8:	4912      	ldr	r1, [pc, #72]	; (100083f4 <usbd_open_edpt_pair+0x80>)
100083aa:	4813      	ldr	r0, [pc, #76]	; (100083f8 <usbd_open_edpt_pair+0x84>)
100083ac:	f7fe fe3e 	bl	1000702c <__wrap_printf>
100083b0:	e7f3      	b.n	1000839a <usbd_open_edpt_pair+0x26>
100083b2:	464a      	mov	r2, r9
100083b4:	7013      	strb	r3, [r2, #0]
100083b6:	7823      	ldrb	r3, [r4, #0]
100083b8:	18e4      	adds	r4, r4, r3
100083ba:	3701      	adds	r7, #1
100083bc:	45b8      	cmp	r8, r7
100083be:	dd14      	ble.n	100083ea <usbd_open_edpt_pair+0x76>
100083c0:	7863      	ldrb	r3, [r4, #1]
100083c2:	2b05      	cmp	r3, #5
100083c4:	d1e3      	bne.n	1000838e <usbd_open_edpt_pair+0x1a>
100083c6:	78e3      	ldrb	r3, [r4, #3]
100083c8:	079b      	lsls	r3, r3, #30
100083ca:	0f9b      	lsrs	r3, r3, #30
100083cc:	42ab      	cmp	r3, r5
100083ce:	d1de      	bne.n	1000838e <usbd_open_edpt_pair+0x1a>
100083d0:	0021      	movs	r1, r4
100083d2:	9801      	ldr	r0, [sp, #4]
100083d4:	f7ff ffa2 	bl	1000831c <usbd_edpt_open>
100083d8:	1e06      	subs	r6, r0, #0
100083da:	d0e4      	beq.n	100083a6 <usbd_open_edpt_pair+0x32>
100083dc:	78a3      	ldrb	r3, [r4, #2]
100083de:	09da      	lsrs	r2, r3, #7
100083e0:	2a01      	cmp	r2, #1
100083e2:	d1e6      	bne.n	100083b2 <usbd_open_edpt_pair+0x3e>
100083e4:	9a0b      	ldr	r2, [sp, #44]	; 0x2c
100083e6:	7013      	strb	r3, [r2, #0]
100083e8:	e7e5      	b.n	100083b6 <usbd_open_edpt_pair+0x42>
100083ea:	2601      	movs	r6, #1
100083ec:	e7d5      	b.n	1000839a <usbd_open_edpt_pair+0x26>
100083ee:	46c0      	nop			; (mov r8, r8)
100083f0:	0000049c 	.word	0x0000049c
100083f4:	1000bfc8 	.word	0x1000bfc8
100083f8:	1000c014 	.word	0x1000c014
100083fc:	0000049d 	.word	0x0000049d

10008400 <usbd_edpt_claim>:
10008400:	b570      	push	{r4, r5, r6, lr}
10008402:	267f      	movs	r6, #127	; 0x7f
10008404:	400e      	ands	r6, r1
10008406:	09cd      	lsrs	r5, r1, #7
10008408:	0072      	lsls	r2, r6, #1
1000840a:	4b1d      	ldr	r3, [pc, #116]	; (10008480 <usbd_edpt_claim+0x80>)
1000840c:	189b      	adds	r3, r3, r2
1000840e:	195b      	adds	r3, r3, r5
10008410:	3330      	adds	r3, #48	; 0x30
10008412:	78dc      	ldrb	r4, [r3, #3]
10008414:	07e4      	lsls	r4, r4, #31
10008416:	0fe4      	lsrs	r4, r4, #31
10008418:	d12e      	bne.n	10008478 <usbd_edpt_claim+0x78>
1000841a:	4b19      	ldr	r3, [pc, #100]	; (10008480 <usbd_edpt_claim+0x80>)
1000841c:	189b      	adds	r3, r3, r2
1000841e:	195b      	adds	r3, r3, r5
10008420:	3330      	adds	r3, #48	; 0x30
10008422:	78db      	ldrb	r3, [r3, #3]
10008424:	075b      	lsls	r3, r3, #29
10008426:	d428      	bmi.n	1000847a <usbd_edpt_claim+0x7a>
10008428:	4b16      	ldr	r3, [pc, #88]	; (10008484 <usbd_edpt_claim+0x84>)
1000842a:	6818      	ldr	r0, [r3, #0]
1000842c:	2101      	movs	r1, #1
1000842e:	4249      	negs	r1, r1
10008430:	f001 fca2 	bl	10009d78 <__mutex_enter_timeout_ms_veneer>
10008434:	0072      	lsls	r2, r6, #1
10008436:	4b12      	ldr	r3, [pc, #72]	; (10008480 <usbd_edpt_claim+0x80>)
10008438:	189b      	adds	r3, r3, r2
1000843a:	195b      	adds	r3, r3, r5
1000843c:	3330      	adds	r3, #48	; 0x30
1000843e:	78db      	ldrb	r3, [r3, #3]
10008440:	07db      	lsls	r3, r3, #31
10008442:	d408      	bmi.n	10008456 <usbd_edpt_claim+0x56>
10008444:	4b0e      	ldr	r3, [pc, #56]	; (10008480 <usbd_edpt_claim+0x80>)
10008446:	189b      	adds	r3, r3, r2
10008448:	195b      	adds	r3, r3, r5
1000844a:	3330      	adds	r3, #48	; 0x30
1000844c:	78db      	ldrb	r3, [r3, #3]
1000844e:	075b      	lsls	r3, r3, #29
10008450:	d402      	bmi.n	10008458 <usbd_edpt_claim+0x58>
10008452:	2401      	movs	r4, #1
10008454:	e000      	b.n	10008458 <usbd_edpt_claim+0x58>
10008456:	2400      	movs	r4, #0
10008458:	2c00      	cmp	r4, #0
1000845a:	d008      	beq.n	1000846e <usbd_edpt_claim+0x6e>
1000845c:	0076      	lsls	r6, r6, #1
1000845e:	4908      	ldr	r1, [pc, #32]	; (10008480 <usbd_edpt_claim+0x80>)
10008460:	198e      	adds	r6, r1, r6
10008462:	1975      	adds	r5, r6, r5
10008464:	3530      	adds	r5, #48	; 0x30
10008466:	78eb      	ldrb	r3, [r5, #3]
10008468:	2204      	movs	r2, #4
1000846a:	4313      	orrs	r3, r2
1000846c:	70eb      	strb	r3, [r5, #3]
1000846e:	4b05      	ldr	r3, [pc, #20]	; (10008484 <usbd_edpt_claim+0x84>)
10008470:	6818      	ldr	r0, [r3, #0]
10008472:	f001 fc61 	bl	10009d38 <__mutex_exit_veneer>
10008476:	e000      	b.n	1000847a <usbd_edpt_claim+0x7a>
10008478:	2400      	movs	r4, #0
1000847a:	0020      	movs	r0, r4
1000847c:	bd70      	pop	{r4, r5, r6, pc}
1000847e:	46c0      	nop			; (mov r8, r8)
10008480:	2000896c 	.word	0x2000896c
10008484:	200089c0 	.word	0x200089c0

10008488 <usbd_edpt_release>:
10008488:	b570      	push	{r4, r5, r6, lr}
1000848a:	257f      	movs	r5, #127	; 0x7f
1000848c:	400d      	ands	r5, r1
1000848e:	09cc      	lsrs	r4, r1, #7
10008490:	4b15      	ldr	r3, [pc, #84]	; (100084e8 <usbd_edpt_release+0x60>)
10008492:	6818      	ldr	r0, [r3, #0]
10008494:	2101      	movs	r1, #1
10008496:	4249      	negs	r1, r1
10008498:	f001 fc6e 	bl	10009d78 <__mutex_enter_timeout_ms_veneer>
1000849c:	006a      	lsls	r2, r5, #1
1000849e:	4b13      	ldr	r3, [pc, #76]	; (100084ec <usbd_edpt_release+0x64>)
100084a0:	189b      	adds	r3, r3, r2
100084a2:	191b      	adds	r3, r3, r4
100084a4:	3330      	adds	r3, #48	; 0x30
100084a6:	78db      	ldrb	r3, [r3, #3]
100084a8:	07db      	lsls	r3, r3, #31
100084aa:	d408      	bmi.n	100084be <usbd_edpt_release+0x36>
100084ac:	4b0f      	ldr	r3, [pc, #60]	; (100084ec <usbd_edpt_release+0x64>)
100084ae:	189b      	adds	r3, r3, r2
100084b0:	191b      	adds	r3, r3, r4
100084b2:	3330      	adds	r3, #48	; 0x30
100084b4:	78db      	ldrb	r3, [r3, #3]
100084b6:	075b      	lsls	r3, r3, #29
100084b8:	d413      	bmi.n	100084e2 <usbd_edpt_release+0x5a>
100084ba:	2600      	movs	r6, #0
100084bc:	e000      	b.n	100084c0 <usbd_edpt_release+0x38>
100084be:	2600      	movs	r6, #0
100084c0:	2e00      	cmp	r6, #0
100084c2:	d008      	beq.n	100084d6 <usbd_edpt_release+0x4e>
100084c4:	006d      	lsls	r5, r5, #1
100084c6:	4909      	ldr	r1, [pc, #36]	; (100084ec <usbd_edpt_release+0x64>)
100084c8:	194d      	adds	r5, r1, r5
100084ca:	192c      	adds	r4, r5, r4
100084cc:	3430      	adds	r4, #48	; 0x30
100084ce:	78e3      	ldrb	r3, [r4, #3]
100084d0:	2204      	movs	r2, #4
100084d2:	4393      	bics	r3, r2
100084d4:	70e3      	strb	r3, [r4, #3]
100084d6:	4b04      	ldr	r3, [pc, #16]	; (100084e8 <usbd_edpt_release+0x60>)
100084d8:	6818      	ldr	r0, [r3, #0]
100084da:	f001 fc2d 	bl	10009d38 <__mutex_exit_veneer>
100084de:	0030      	movs	r0, r6
100084e0:	bd70      	pop	{r4, r5, r6, pc}
100084e2:	2601      	movs	r6, #1
100084e4:	e7ec      	b.n	100084c0 <usbd_edpt_release+0x38>
100084e6:	46c0      	nop			; (mov r8, r8)
100084e8:	200089c0 	.word	0x200089c0
100084ec:	2000896c 	.word	0x2000896c

100084f0 <usbd_edpt_xfer>:
100084f0:	b5f0      	push	{r4, r5, r6, r7, lr}
100084f2:	46c6      	mov	lr, r8
100084f4:	b500      	push	{lr}
100084f6:	b082      	sub	sp, #8
100084f8:	9301      	str	r3, [sp, #4]
100084fa:	257f      	movs	r5, #127	; 0x7f
100084fc:	400d      	ands	r5, r1
100084fe:	09ce      	lsrs	r6, r1, #7
10008500:	006f      	lsls	r7, r5, #1
10008502:	4c17      	ldr	r4, [pc, #92]	; (10008560 <usbd_edpt_xfer+0x70>)
10008504:	19e4      	adds	r4, r4, r7
10008506:	19a4      	adds	r4, r4, r6
10008508:	3430      	adds	r4, #48	; 0x30
1000850a:	78e4      	ldrb	r4, [r4, #3]
1000850c:	07e4      	lsls	r4, r4, #31
1000850e:	d41d      	bmi.n	1000854c <usbd_edpt_xfer+0x5c>
10008510:	006f      	lsls	r7, r5, #1
10008512:	4c13      	ldr	r4, [pc, #76]	; (10008560 <usbd_edpt_xfer+0x70>)
10008514:	19e4      	adds	r4, r4, r7
10008516:	19a4      	adds	r4, r4, r6
10008518:	3430      	adds	r4, #48	; 0x30
1000851a:	78e3      	ldrb	r3, [r4, #3]
1000851c:	2701      	movs	r7, #1
1000851e:	46bc      	mov	ip, r7
10008520:	4667      	mov	r7, ip
10008522:	433b      	orrs	r3, r7
10008524:	70e3      	strb	r3, [r4, #3]
10008526:	9b01      	ldr	r3, [sp, #4]
10008528:	f7ff f9e4 	bl	100078f4 <dcd_edpt_xfer>
1000852c:	2800      	cmp	r0, #0
1000852e:	d113      	bne.n	10008558 <usbd_edpt_xfer+0x68>
10008530:	006d      	lsls	r5, r5, #1
10008532:	4b0b      	ldr	r3, [pc, #44]	; (10008560 <usbd_edpt_xfer+0x70>)
10008534:	195d      	adds	r5, r3, r5
10008536:	19ae      	adds	r6, r5, r6
10008538:	3630      	adds	r6, #48	; 0x30
1000853a:	78f3      	ldrb	r3, [r6, #3]
1000853c:	2201      	movs	r2, #1
1000853e:	4393      	bics	r3, r2
10008540:	70f3      	strb	r3, [r6, #3]
10008542:	78f3      	ldrb	r3, [r6, #3]
10008544:	3203      	adds	r2, #3
10008546:	4393      	bics	r3, r2
10008548:	70f3      	strb	r3, [r6, #3]
1000854a:	e005      	b.n	10008558 <usbd_edpt_xfer+0x68>
1000854c:	4a05      	ldr	r2, [pc, #20]	; (10008564 <usbd_edpt_xfer+0x74>)
1000854e:	4906      	ldr	r1, [pc, #24]	; (10008568 <usbd_edpt_xfer+0x78>)
10008550:	4806      	ldr	r0, [pc, #24]	; (1000856c <usbd_edpt_xfer+0x7c>)
10008552:	f7fe fd6b 	bl	1000702c <__wrap_printf>
10008556:	2000      	movs	r0, #0
10008558:	b002      	add	sp, #8
1000855a:	bc04      	pop	{r2}
1000855c:	4690      	mov	r8, r2
1000855e:	bdf0      	pop	{r4, r5, r6, r7, pc}
10008560:	2000896c 	.word	0x2000896c
10008564:	0000050a 	.word	0x0000050a
10008568:	1000bfec 	.word	0x1000bfec
1000856c:	1000c014 	.word	0x1000c014

10008570 <usbd_edpt_stall>:
10008570:	b570      	push	{r4, r5, r6, lr}
10008572:	247f      	movs	r4, #127	; 0x7f
10008574:	400c      	ands	r4, r1
10008576:	09cd      	lsrs	r5, r1, #7
10008578:	0062      	lsls	r2, r4, #1
1000857a:	4b0c      	ldr	r3, [pc, #48]	; (100085ac <usbd_edpt_stall+0x3c>)
1000857c:	189b      	adds	r3, r3, r2
1000857e:	195b      	adds	r3, r3, r5
10008580:	3330      	adds	r3, #48	; 0x30
10008582:	78db      	ldrb	r3, [r3, #3]
10008584:	079b      	lsls	r3, r3, #30
10008586:	d500      	bpl.n	1000858a <usbd_edpt_stall+0x1a>
10008588:	bd70      	pop	{r4, r5, r6, pc}
1000858a:	f7ff f9cb 	bl	10007924 <dcd_edpt_stall>
1000858e:	0063      	lsls	r3, r4, #1
10008590:	4c06      	ldr	r4, [pc, #24]	; (100085ac <usbd_edpt_stall+0x3c>)
10008592:	18e4      	adds	r4, r4, r3
10008594:	1964      	adds	r4, r4, r5
10008596:	3430      	adds	r4, #48	; 0x30
10008598:	78e3      	ldrb	r3, [r4, #3]
1000859a:	2202      	movs	r2, #2
1000859c:	4313      	orrs	r3, r2
1000859e:	70e3      	strb	r3, [r4, #3]
100085a0:	78e3      	ldrb	r3, [r4, #3]
100085a2:	2201      	movs	r2, #1
100085a4:	4313      	orrs	r3, r2
100085a6:	70e3      	strb	r3, [r4, #3]
100085a8:	e7ee      	b.n	10008588 <usbd_edpt_stall+0x18>
100085aa:	46c0      	nop			; (mov r8, r8)
100085ac:	2000896c 	.word	0x2000896c

100085b0 <usbd_edpt_clear_stall>:
100085b0:	b570      	push	{r4, r5, r6, lr}
100085b2:	247f      	movs	r4, #127	; 0x7f
100085b4:	400c      	ands	r4, r1
100085b6:	09cd      	lsrs	r5, r1, #7
100085b8:	0062      	lsls	r2, r4, #1
100085ba:	4b0c      	ldr	r3, [pc, #48]	; (100085ec <usbd_edpt_clear_stall+0x3c>)
100085bc:	189b      	adds	r3, r3, r2
100085be:	195b      	adds	r3, r3, r5
100085c0:	3330      	adds	r3, #48	; 0x30
100085c2:	78db      	ldrb	r3, [r3, #3]
100085c4:	079b      	lsls	r3, r3, #30
100085c6:	d400      	bmi.n	100085ca <usbd_edpt_clear_stall+0x1a>
100085c8:	bd70      	pop	{r4, r5, r6, pc}
100085ca:	f7ff f9c1 	bl	10007950 <dcd_edpt_clear_stall>
100085ce:	0063      	lsls	r3, r4, #1
100085d0:	4c06      	ldr	r4, [pc, #24]	; (100085ec <usbd_edpt_clear_stall+0x3c>)
100085d2:	18e4      	adds	r4, r4, r3
100085d4:	1964      	adds	r4, r4, r5
100085d6:	3430      	adds	r4, #48	; 0x30
100085d8:	78e3      	ldrb	r3, [r4, #3]
100085da:	2202      	movs	r2, #2
100085dc:	4393      	bics	r3, r2
100085de:	70e3      	strb	r3, [r4, #3]
100085e0:	78e3      	ldrb	r3, [r4, #3]
100085e2:	3a01      	subs	r2, #1
100085e4:	4393      	bics	r3, r2
100085e6:	70e3      	strb	r3, [r4, #3]
100085e8:	e7ee      	b.n	100085c8 <usbd_edpt_clear_stall+0x18>
100085ea:	46c0      	nop			; (mov r8, r8)
100085ec:	2000896c 	.word	0x2000896c

100085f0 <usbd_edpt_stalled>:
100085f0:	237f      	movs	r3, #127	; 0x7f
100085f2:	400b      	ands	r3, r1
100085f4:	09ca      	lsrs	r2, r1, #7
100085f6:	005b      	lsls	r3, r3, #1
100085f8:	4903      	ldr	r1, [pc, #12]	; (10008608 <usbd_edpt_stalled+0x18>)
100085fa:	18c9      	adds	r1, r1, r3
100085fc:	1889      	adds	r1, r1, r2
100085fe:	3130      	adds	r1, #48	; 0x30
10008600:	78c8      	ldrb	r0, [r1, #3]
10008602:	0780      	lsls	r0, r0, #30
10008604:	0fc0      	lsrs	r0, r0, #31
10008606:	4770      	bx	lr
10008608:	2000896c 	.word	0x2000896c

1000860c <process_control_request>:
1000860c:	b5f0      	push	{r4, r5, r6, r7, lr}
1000860e:	46c6      	mov	lr, r8
10008610:	b500      	push	{lr}
10008612:	b082      	sub	sp, #8
10008614:	0004      	movs	r4, r0
10008616:	000d      	movs	r5, r1
10008618:	2000      	movs	r0, #0
1000861a:	f000 fb85 	bl	10008d28 <usbd_control_set_complete_callback>
1000861e:	782b      	ldrb	r3, [r5, #0]
10008620:	2260      	movs	r2, #96	; 0x60
10008622:	401a      	ands	r2, r3
10008624:	2a60      	cmp	r2, #96	; 0x60
10008626:	d014      	beq.n	10008652 <process_control_request+0x46>
10008628:	2a40      	cmp	r2, #64	; 0x40
1000862a:	d019      	beq.n	10008660 <process_control_request+0x54>
1000862c:	782b      	ldrb	r3, [r5, #0]
1000862e:	06db      	lsls	r3, r3, #27
10008630:	0edb      	lsrs	r3, r3, #27
10008632:	b2d9      	uxtb	r1, r3
10008634:	2901      	cmp	r1, #1
10008636:	d100      	bne.n	1000863a <process_control_request+0x2e>
10008638:	e0da      	b.n	100087f0 <process_control_request+0x1e4>
1000863a:	b25b      	sxtb	r3, r3
1000863c:	2b00      	cmp	r3, #0
1000863e:	d01d      	beq.n	1000867c <process_control_request+0x70>
10008640:	2902      	cmp	r1, #2
10008642:	d100      	bne.n	10008646 <process_control_request+0x3a>
10008644:	e11e      	b.n	10008884 <process_control_request+0x278>
10008646:	2600      	movs	r6, #0
10008648:	0030      	movs	r0, r6
1000864a:	b002      	add	sp, #8
1000864c:	bc04      	pop	{r2}
1000864e:	4690      	mov	r8, r2
10008650:	bdf0      	pop	{r4, r5, r6, r7, pc}
10008652:	4acc      	ldr	r2, [pc, #816]	; (10008984 <process_control_request+0x378>)
10008654:	49cc      	ldr	r1, [pc, #816]	; (10008988 <process_control_request+0x37c>)
10008656:	48cd      	ldr	r0, [pc, #820]	; (1000898c <process_control_request+0x380>)
10008658:	f7fe fce8 	bl	1000702c <__wrap_printf>
1000865c:	2600      	movs	r6, #0
1000865e:	e7f3      	b.n	10008648 <process_control_request+0x3c>
10008660:	4bcb      	ldr	r3, [pc, #812]	; (10008990 <process_control_request+0x384>)
10008662:	2b00      	cmp	r3, #0
10008664:	d100      	bne.n	10008668 <process_control_request+0x5c>
10008666:	e180      	b.n	1000896a <process_control_request+0x35e>
10008668:	0018      	movs	r0, r3
1000866a:	f000 fb5d 	bl	10008d28 <usbd_control_set_complete_callback>
1000866e:	002a      	movs	r2, r5
10008670:	2100      	movs	r1, #0
10008672:	0020      	movs	r0, r4
10008674:	e000      	b.n	10008678 <process_control_request+0x6c>
10008676:	bf00      	nop
10008678:	0006      	movs	r6, r0
1000867a:	e7e5      	b.n	10008648 <process_control_request+0x3c>
1000867c:	2a20      	cmp	r2, #32
1000867e:	d00a      	beq.n	10008696 <process_control_request+0x8a>
10008680:	2a00      	cmp	r2, #0
10008682:	d000      	beq.n	10008686 <process_control_request+0x7a>
10008684:	e179      	b.n	1000897a <process_control_request+0x36e>
10008686:	786b      	ldrb	r3, [r5, #1]
10008688:	2b09      	cmp	r3, #9
1000868a:	d900      	bls.n	1000868e <process_control_request+0x82>
1000868c:	e177      	b.n	1000897e <process_control_request+0x372>
1000868e:	009b      	lsls	r3, r3, #2
10008690:	4ac0      	ldr	r2, [pc, #768]	; (10008994 <process_control_request+0x388>)
10008692:	58d3      	ldr	r3, [r2, r3]
10008694:	469f      	mov	pc, r3
10008696:	792b      	ldrb	r3, [r5, #4]
10008698:	2b0f      	cmp	r3, #15
1000869a:	d900      	bls.n	1000869e <process_control_request+0x92>
1000869c:	e167      	b.n	1000896e <process_control_request+0x362>
1000869e:	4abe      	ldr	r2, [pc, #760]	; (10008998 <process_control_request+0x38c>)
100086a0:	18d3      	adds	r3, r2, r3
100086a2:	78db      	ldrb	r3, [r3, #3]
100086a4:	4abd      	ldr	r2, [pc, #756]	; (1000899c <process_control_request+0x390>)
100086a6:	2a00      	cmp	r2, #0
100086a8:	d005      	beq.n	100086b6 <process_control_request+0xaa>
100086aa:	4abd      	ldr	r2, [pc, #756]	; (100089a0 <process_control_request+0x394>)
100086ac:	7812      	ldrb	r2, [r2, #0]
100086ae:	4293      	cmp	r3, r2
100086b0:	d312      	bcc.n	100086d8 <process_control_request+0xcc>
100086b2:	1a9b      	subs	r3, r3, r2
100086b4:	b2db      	uxtb	r3, r3
100086b6:	2b00      	cmp	r3, #0
100086b8:	d000      	beq.n	100086bc <process_control_request+0xb0>
100086ba:	e15a      	b.n	10008972 <process_control_request+0x366>
100086bc:	005a      	lsls	r2, r3, #1
100086be:	18d3      	adds	r3, r2, r3
100086c0:	00da      	lsls	r2, r3, #3
100086c2:	49b8      	ldr	r1, [pc, #736]	; (100089a4 <process_control_request+0x398>)
100086c4:	1889      	adds	r1, r1, r2
100086c6:	2900      	cmp	r1, #0
100086c8:	d100      	bne.n	100086cc <process_control_request+0xc0>
100086ca:	e154      	b.n	10008976 <process_control_request+0x36a>
100086cc:	002a      	movs	r2, r5
100086ce:	0020      	movs	r0, r4
100086d0:	f7ff faf2 	bl	10007cb8 <invoke_class_control>
100086d4:	0006      	movs	r6, r0
100086d6:	e7b7      	b.n	10008648 <process_control_request+0x3c>
100086d8:	005a      	lsls	r2, r3, #1
100086da:	18d3      	adds	r3, r2, r3
100086dc:	00da      	lsls	r2, r3, #3
100086de:	4bb2      	ldr	r3, [pc, #712]	; (100089a8 <process_control_request+0x39c>)
100086e0:	6819      	ldr	r1, [r3, #0]
100086e2:	1889      	adds	r1, r1, r2
100086e4:	e7ef      	b.n	100086c6 <process_control_request+0xba>
100086e6:	0028      	movs	r0, r5
100086e8:	f000 fb24 	bl	10008d34 <usbd_control_set_request>
100086ec:	78a9      	ldrb	r1, [r5, #2]
100086ee:	0020      	movs	r0, r4
100086f0:	f7ff f872 	bl	100077d8 <dcd_set_address>
100086f4:	4aa8      	ldr	r2, [pc, #672]	; (10008998 <process_control_request+0x38c>)
100086f6:	7813      	ldrb	r3, [r2, #0]
100086f8:	2102      	movs	r1, #2
100086fa:	430b      	orrs	r3, r1
100086fc:	7013      	strb	r3, [r2, #0]
100086fe:	2601      	movs	r6, #1
10008700:	e7a2      	b.n	10008648 <process_control_request+0x3c>
10008702:	4ba5      	ldr	r3, [pc, #660]	; (10008998 <process_control_request+0x38c>)
10008704:	785b      	ldrb	r3, [r3, #1]
10008706:	466a      	mov	r2, sp
10008708:	3206      	adds	r2, #6
1000870a:	7013      	strb	r3, [r2, #0]
1000870c:	2301      	movs	r3, #1
1000870e:	0029      	movs	r1, r5
10008710:	0020      	movs	r0, r4
10008712:	f000 faad 	bl	10008c70 <tud_control_xfer>
10008716:	2601      	movs	r6, #1
10008718:	e796      	b.n	10008648 <process_control_request+0x3c>
1000871a:	78af      	ldrb	r7, [r5, #2]
1000871c:	4b9e      	ldr	r3, [pc, #632]	; (10008998 <process_control_request+0x38c>)
1000871e:	785b      	ldrb	r3, [r3, #1]
10008720:	b2db      	uxtb	r3, r3
10008722:	42bb      	cmp	r3, r7
10008724:	d005      	beq.n	10008732 <process_control_request+0x126>
10008726:	4b9c      	ldr	r3, [pc, #624]	; (10008998 <process_control_request+0x38c>)
10008728:	785b      	ldrb	r3, [r3, #1]
1000872a:	2b00      	cmp	r3, #0
1000872c:	d109      	bne.n	10008742 <process_control_request+0x136>
1000872e:	2f00      	cmp	r7, #0
10008730:	d113      	bne.n	1000875a <process_control_request+0x14e>
10008732:	4b99      	ldr	r3, [pc, #612]	; (10008998 <process_control_request+0x38c>)
10008734:	705f      	strb	r7, [r3, #1]
10008736:	0029      	movs	r1, r5
10008738:	0020      	movs	r0, r4
1000873a:	f000 fa7d 	bl	10008c38 <tud_control_status>
1000873e:	2601      	movs	r6, #1
10008740:	e782      	b.n	10008648 <process_control_request+0x3c>
10008742:	0020      	movs	r0, r4
10008744:	f7ff f8d2 	bl	100078ec <dcd_edpt_close_all>
10008748:	4e93      	ldr	r6, [pc, #588]	; (10008998 <process_control_request+0x38c>)
1000874a:	78b3      	ldrb	r3, [r6, #2]
1000874c:	4698      	mov	r8, r3
1000874e:	0020      	movs	r0, r4
10008750:	f7ff fa6a 	bl	10007c28 <configuration_reset>
10008754:	4643      	mov	r3, r8
10008756:	70b3      	strb	r3, [r6, #2]
10008758:	e7e9      	b.n	1000872e <process_control_request+0x122>
1000875a:	0039      	movs	r1, r7
1000875c:	0020      	movs	r0, r4
1000875e:	f7ff fab9 	bl	10007cd4 <process_set_config>
10008762:	1e06      	subs	r6, r0, #0
10008764:	d1e5      	bne.n	10008732 <process_control_request+0x126>
10008766:	4a91      	ldr	r2, [pc, #580]	; (100089ac <process_control_request+0x3a0>)
10008768:	4987      	ldr	r1, [pc, #540]	; (10008988 <process_control_request+0x37c>)
1000876a:	4888      	ldr	r0, [pc, #544]	; (1000898c <process_control_request+0x380>)
1000876c:	f7fe fc5e 	bl	1000702c <__wrap_printf>
10008770:	e76a      	b.n	10008648 <process_control_request+0x3c>
10008772:	0029      	movs	r1, r5
10008774:	0020      	movs	r0, r4
10008776:	f7ff fb81 	bl	10007e7c <process_get_descriptor>
1000877a:	0006      	movs	r6, r0
1000877c:	e764      	b.n	10008648 <process_control_request+0x3c>
1000877e:	78aa      	ldrb	r2, [r5, #2]
10008780:	78eb      	ldrb	r3, [r5, #3]
10008782:	021b      	lsls	r3, r3, #8
10008784:	4313      	orrs	r3, r2
10008786:	2b01      	cmp	r3, #1
10008788:	d001      	beq.n	1000878e <process_control_request+0x182>
1000878a:	2600      	movs	r6, #0
1000878c:	e75c      	b.n	10008648 <process_control_request+0x3c>
1000878e:	4a82      	ldr	r2, [pc, #520]	; (10008998 <process_control_request+0x38c>)
10008790:	7813      	ldrb	r3, [r2, #0]
10008792:	2108      	movs	r1, #8
10008794:	430b      	orrs	r3, r1
10008796:	7013      	strb	r3, [r2, #0]
10008798:	0029      	movs	r1, r5
1000879a:	0020      	movs	r0, r4
1000879c:	f000 fa4c 	bl	10008c38 <tud_control_status>
100087a0:	2601      	movs	r6, #1
100087a2:	e751      	b.n	10008648 <process_control_request+0x3c>
100087a4:	78aa      	ldrb	r2, [r5, #2]
100087a6:	78eb      	ldrb	r3, [r5, #3]
100087a8:	021b      	lsls	r3, r3, #8
100087aa:	4313      	orrs	r3, r2
100087ac:	2b01      	cmp	r3, #1
100087ae:	d001      	beq.n	100087b4 <process_control_request+0x1a8>
100087b0:	2600      	movs	r6, #0
100087b2:	e749      	b.n	10008648 <process_control_request+0x3c>
100087b4:	4a78      	ldr	r2, [pc, #480]	; (10008998 <process_control_request+0x38c>)
100087b6:	7813      	ldrb	r3, [r2, #0]
100087b8:	2108      	movs	r1, #8
100087ba:	438b      	bics	r3, r1
100087bc:	7013      	strb	r3, [r2, #0]
100087be:	0029      	movs	r1, r5
100087c0:	0020      	movs	r0, r4
100087c2:	f000 fa39 	bl	10008c38 <tud_control_status>
100087c6:	2601      	movs	r6, #1
100087c8:	e73e      	b.n	10008648 <process_control_request+0x3c>
100087ca:	4b73      	ldr	r3, [pc, #460]	; (10008998 <process_control_request+0x38c>)
100087cc:	781a      	ldrb	r2, [r3, #0]
100087ce:	0951      	lsrs	r1, r2, #5
100087d0:	0892      	lsrs	r2, r2, #2
100087d2:	2301      	movs	r3, #1
100087d4:	400b      	ands	r3, r1
100087d6:	2102      	movs	r1, #2
100087d8:	400a      	ands	r2, r1
100087da:	4313      	orrs	r3, r2
100087dc:	466a      	mov	r2, sp
100087de:	3206      	adds	r2, #6
100087e0:	8013      	strh	r3, [r2, #0]
100087e2:	2302      	movs	r3, #2
100087e4:	0029      	movs	r1, r5
100087e6:	0020      	movs	r0, r4
100087e8:	f000 fa42 	bl	10008c70 <tud_control_xfer>
100087ec:	2601      	movs	r6, #1
100087ee:	e72b      	b.n	10008648 <process_control_request+0x3c>
100087f0:	792b      	ldrb	r3, [r5, #4]
100087f2:	2b0f      	cmp	r3, #15
100087f4:	d900      	bls.n	100087f8 <process_control_request+0x1ec>
100087f6:	e0dd      	b.n	100089b4 <process_control_request+0x3a8>
100087f8:	4a67      	ldr	r2, [pc, #412]	; (10008998 <process_control_request+0x38c>)
100087fa:	18d3      	adds	r3, r2, r3
100087fc:	78db      	ldrb	r3, [r3, #3]
100087fe:	4a67      	ldr	r2, [pc, #412]	; (1000899c <process_control_request+0x390>)
10008800:	2a00      	cmp	r2, #0
10008802:	d005      	beq.n	10008810 <process_control_request+0x204>
10008804:	4a66      	ldr	r2, [pc, #408]	; (100089a0 <process_control_request+0x394>)
10008806:	7812      	ldrb	r2, [r2, #0]
10008808:	4293      	cmp	r3, r2
1000880a:	d329      	bcc.n	10008860 <process_control_request+0x254>
1000880c:	1a9b      	subs	r3, r3, r2
1000880e:	b2db      	uxtb	r3, r3
10008810:	2b00      	cmp	r3, #0
10008812:	d000      	beq.n	10008816 <process_control_request+0x20a>
10008814:	e0d0      	b.n	100089b8 <process_control_request+0x3ac>
10008816:	005a      	lsls	r2, r3, #1
10008818:	18d3      	adds	r3, r2, r3
1000881a:	00da      	lsls	r2, r3, #3
1000881c:	4961      	ldr	r1, [pc, #388]	; (100089a4 <process_control_request+0x398>)
1000881e:	1889      	adds	r1, r1, r2
10008820:	2900      	cmp	r1, #0
10008822:	d100      	bne.n	10008826 <process_control_request+0x21a>
10008824:	e0ca      	b.n	100089bc <process_control_request+0x3b0>
10008826:	002a      	movs	r2, r5
10008828:	0020      	movs	r0, r4
1000882a:	f7ff fa45 	bl	10007cb8 <invoke_class_control>
1000882e:	1e06      	subs	r6, r0, #0
10008830:	d000      	beq.n	10008834 <process_control_request+0x228>
10008832:	e709      	b.n	10008648 <process_control_request+0x3c>
10008834:	782b      	ldrb	r3, [r5, #0]
10008836:	2260      	movs	r2, #96	; 0x60
10008838:	421a      	tst	r2, r3
1000883a:	d000      	beq.n	1000883e <process_control_request+0x232>
1000883c:	e704      	b.n	10008648 <process_control_request+0x3c>
1000883e:	786b      	ldrb	r3, [r5, #1]
10008840:	3b0a      	subs	r3, #10
10008842:	2b01      	cmp	r3, #1
10008844:	d900      	bls.n	10008848 <process_control_request+0x23c>
10008846:	e6ff      	b.n	10008648 <process_control_request+0x3c>
10008848:	2000      	movs	r0, #0
1000884a:	f000 fa6d 	bl	10008d28 <usbd_control_set_complete_callback>
1000884e:	786b      	ldrb	r3, [r5, #1]
10008850:	2b0a      	cmp	r3, #10
10008852:	d00c      	beq.n	1000886e <process_control_request+0x262>
10008854:	0029      	movs	r1, r5
10008856:	0020      	movs	r0, r4
10008858:	f000 f9ee 	bl	10008c38 <tud_control_status>
1000885c:	2601      	movs	r6, #1
1000885e:	e6f3      	b.n	10008648 <process_control_request+0x3c>
10008860:	005a      	lsls	r2, r3, #1
10008862:	18d3      	adds	r3, r2, r3
10008864:	00da      	lsls	r2, r3, #3
10008866:	4b50      	ldr	r3, [pc, #320]	; (100089a8 <process_control_request+0x39c>)
10008868:	6819      	ldr	r1, [r3, #0]
1000886a:	1889      	adds	r1, r1, r2
1000886c:	e7d8      	b.n	10008820 <process_control_request+0x214>
1000886e:	466b      	mov	r3, sp
10008870:	1d9a      	adds	r2, r3, #6
10008872:	2300      	movs	r3, #0
10008874:	7013      	strb	r3, [r2, #0]
10008876:	3301      	adds	r3, #1
10008878:	0029      	movs	r1, r5
1000887a:	0020      	movs	r0, r4
1000887c:	f000 f9f8 	bl	10008c70 <tud_control_xfer>
10008880:	3601      	adds	r6, #1
10008882:	e6e1      	b.n	10008648 <process_control_request+0x3c>
10008884:	7929      	ldrb	r1, [r5, #4]
10008886:	237f      	movs	r3, #127	; 0x7f
10008888:	400b      	ands	r3, r1
1000888a:	09ce      	lsrs	r6, r1, #7
1000888c:	2070      	movs	r0, #112	; 0x70
1000888e:	4208      	tst	r0, r1
10008890:	d120      	bne.n	100088d4 <process_control_request+0x2c8>
10008892:	005b      	lsls	r3, r3, #1
10008894:	4840      	ldr	r0, [pc, #256]	; (10008998 <process_control_request+0x38c>)
10008896:	18c3      	adds	r3, r0, r3
10008898:	199b      	adds	r3, r3, r6
1000889a:	7cdb      	ldrb	r3, [r3, #19]
1000889c:	483f      	ldr	r0, [pc, #252]	; (1000899c <process_control_request+0x390>)
1000889e:	2800      	cmp	r0, #0
100088a0:	d005      	beq.n	100088ae <process_control_request+0x2a2>
100088a2:	483f      	ldr	r0, [pc, #252]	; (100089a0 <process_control_request+0x394>)
100088a4:	7800      	ldrb	r0, [r0, #0]
100088a6:	4283      	cmp	r3, r0
100088a8:	d31b      	bcc.n	100088e2 <process_control_request+0x2d6>
100088aa:	1a1b      	subs	r3, r3, r0
100088ac:	b2db      	uxtb	r3, r3
100088ae:	2b00      	cmp	r3, #0
100088b0:	d11e      	bne.n	100088f0 <process_control_request+0x2e4>
100088b2:	0058      	lsls	r0, r3, #1
100088b4:	18c3      	adds	r3, r0, r3
100088b6:	00d8      	lsls	r0, r3, #3
100088b8:	4e3a      	ldr	r6, [pc, #232]	; (100089a4 <process_control_request+0x398>)
100088ba:	1836      	adds	r6, r6, r0
100088bc:	2a00      	cmp	r2, #0
100088be:	d019      	beq.n	100088f4 <process_control_request+0x2e8>
100088c0:	2e00      	cmp	r6, #0
100088c2:	d100      	bne.n	100088c6 <process_control_request+0x2ba>
100088c4:	e07c      	b.n	100089c0 <process_control_request+0x3b4>
100088c6:	002a      	movs	r2, r5
100088c8:	0031      	movs	r1, r6
100088ca:	0020      	movs	r0, r4
100088cc:	f7ff f9f4 	bl	10007cb8 <invoke_class_control>
100088d0:	0006      	movs	r6, r0
100088d2:	e6b9      	b.n	10008648 <process_control_request+0x3c>
100088d4:	4a36      	ldr	r2, [pc, #216]	; (100089b0 <process_control_request+0x3a4>)
100088d6:	492c      	ldr	r1, [pc, #176]	; (10008988 <process_control_request+0x37c>)
100088d8:	482c      	ldr	r0, [pc, #176]	; (1000898c <process_control_request+0x380>)
100088da:	f7fe fba7 	bl	1000702c <__wrap_printf>
100088de:	2600      	movs	r6, #0
100088e0:	e6b2      	b.n	10008648 <process_control_request+0x3c>
100088e2:	0058      	lsls	r0, r3, #1
100088e4:	18c3      	adds	r3, r0, r3
100088e6:	00d8      	lsls	r0, r3, #3
100088e8:	4b2f      	ldr	r3, [pc, #188]	; (100089a8 <process_control_request+0x39c>)
100088ea:	681e      	ldr	r6, [r3, #0]
100088ec:	1836      	adds	r6, r6, r0
100088ee:	e7e5      	b.n	100088bc <process_control_request+0x2b0>
100088f0:	2600      	movs	r6, #0
100088f2:	e7e3      	b.n	100088bc <process_control_request+0x2b0>
100088f4:	786b      	ldrb	r3, [r5, #1]
100088f6:	2b01      	cmp	r3, #1
100088f8:	d012      	beq.n	10008920 <process_control_request+0x314>
100088fa:	2b00      	cmp	r3, #0
100088fc:	d003      	beq.n	10008906 <process_control_request+0x2fa>
100088fe:	2b03      	cmp	r3, #3
10008900:	d00e      	beq.n	10008920 <process_control_request+0x314>
10008902:	2600      	movs	r6, #0
10008904:	e6a0      	b.n	10008648 <process_control_request+0x3c>
10008906:	0020      	movs	r0, r4
10008908:	f7ff fe72 	bl	100085f0 <usbd_edpt_stalled>
1000890c:	466b      	mov	r3, sp
1000890e:	1d9a      	adds	r2, r3, #6
10008910:	8010      	strh	r0, [r2, #0]
10008912:	2302      	movs	r3, #2
10008914:	0029      	movs	r1, r5
10008916:	0020      	movs	r0, r4
10008918:	f000 f9aa 	bl	10008c70 <tud_control_xfer>
1000891c:	2601      	movs	r6, #1
1000891e:	e693      	b.n	10008648 <process_control_request+0x3c>
10008920:	78a8      	ldrb	r0, [r5, #2]
10008922:	78ea      	ldrb	r2, [r5, #3]
10008924:	0212      	lsls	r2, r2, #8
10008926:	4302      	orrs	r2, r0
10008928:	d104      	bne.n	10008934 <process_control_request+0x328>
1000892a:	2b01      	cmp	r3, #1
1000892c:	d019      	beq.n	10008962 <process_control_request+0x356>
1000892e:	0020      	movs	r0, r4
10008930:	f7ff fe1e 	bl	10008570 <usbd_edpt_stall>
10008934:	2e00      	cmp	r6, #0
10008936:	d045      	beq.n	100089c4 <process_control_request+0x3b8>
10008938:	002a      	movs	r2, r5
1000893a:	0031      	movs	r1, r6
1000893c:	0020      	movs	r0, r4
1000893e:	f7ff f9bb 	bl	10007cb8 <invoke_class_control>
10008942:	2000      	movs	r0, #0
10008944:	f000 f9f0 	bl	10008d28 <usbd_control_set_complete_callback>
10008948:	4a13      	ldr	r2, [pc, #76]	; (10008998 <process_control_request+0x38c>)
1000894a:	2334      	movs	r3, #52	; 0x34
1000894c:	5cd0      	ldrb	r0, [r2, r3]
1000894e:	07c0      	lsls	r0, r0, #31
10008950:	0fc6      	lsrs	r6, r0, #31
10008952:	d000      	beq.n	10008956 <process_control_request+0x34a>
10008954:	e678      	b.n	10008648 <process_control_request+0x3c>
10008956:	0029      	movs	r1, r5
10008958:	0020      	movs	r0, r4
1000895a:	f000 f96d 	bl	10008c38 <tud_control_status>
1000895e:	3601      	adds	r6, #1
10008960:	e672      	b.n	10008648 <process_control_request+0x3c>
10008962:	0020      	movs	r0, r4
10008964:	f7ff fe24 	bl	100085b0 <usbd_edpt_clear_stall>
10008968:	e7e4      	b.n	10008934 <process_control_request+0x328>
1000896a:	2600      	movs	r6, #0
1000896c:	e66c      	b.n	10008648 <process_control_request+0x3c>
1000896e:	2600      	movs	r6, #0
10008970:	e66a      	b.n	10008648 <process_control_request+0x3c>
10008972:	2600      	movs	r6, #0
10008974:	e668      	b.n	10008648 <process_control_request+0x3c>
10008976:	2600      	movs	r6, #0
10008978:	e666      	b.n	10008648 <process_control_request+0x3c>
1000897a:	2600      	movs	r6, #0
1000897c:	e664      	b.n	10008648 <process_control_request+0x3c>
1000897e:	2600      	movs	r6, #0
10008980:	e662      	b.n	10008648 <process_control_request+0x3c>
10008982:	46c0      	nop			; (mov r8, r8)
10008984:	0000027f 	.word	0x0000027f
10008988:	1000bf84 	.word	0x1000bf84
1000898c:	1000c014 	.word	0x1000c014
10008990:	00000000 	.word	0x00000000
10008994:	1000bf1c 	.word	0x1000bf1c
10008998:	2000896c 	.word	0x2000896c
1000899c:	10007181 	.word	0x10007181
100089a0:	20008fd6 	.word	0x20008fd6
100089a4:	1000bffc 	.word	0x1000bffc
100089a8:	20008634 	.word	0x20008634
100089ac:	000002d3 	.word	0x000002d3
100089b0:	00000333 	.word	0x00000333
100089b4:	2600      	movs	r6, #0
100089b6:	e647      	b.n	10008648 <process_control_request+0x3c>
100089b8:	2600      	movs	r6, #0
100089ba:	e645      	b.n	10008648 <process_control_request+0x3c>
100089bc:	2600      	movs	r6, #0
100089be:	e643      	b.n	10008648 <process_control_request+0x3c>
100089c0:	2600      	movs	r6, #0
100089c2:	e641      	b.n	10008648 <process_control_request+0x3c>
100089c4:	2601      	movs	r6, #1
100089c6:	e63f      	b.n	10008648 <process_control_request+0x3c>

100089c8 <tud_task>:
100089c8:	b530      	push	{r4, r5, lr}
100089ca:	b085      	sub	sp, #20
100089cc:	f000 fd78 	bl	100094c0 <tusb_inited>
100089d0:	2800      	cmp	r0, #0
100089d2:	d108      	bne.n	100089e6 <tud_task+0x1e>
100089d4:	b005      	add	sp, #20
100089d6:	bd30      	pop	{r4, r5, pc}
100089d8:	ac01      	add	r4, sp, #4
100089da:	7820      	ldrb	r0, [r4, #0]
100089dc:	f7ff f966 	bl	10007cac <usbd_reset>
100089e0:	7922      	ldrb	r2, [r4, #4]
100089e2:	4b72      	ldr	r3, [pc, #456]	; (10008bac <tud_task+0x1e4>)
100089e4:	709a      	strb	r2, [r3, #2]
100089e6:	4b72      	ldr	r3, [pc, #456]	; (10008bb0 <tud_task+0x1e8>)
100089e8:	681c      	ldr	r4, [r3, #0]
100089ea:	69e2      	ldr	r2, [r4, #28]
100089ec:	f3ef 8310 	mrs	r3, PRIMASK
100089f0:	b672      	cpsid	i
100089f2:	6811      	ldr	r1, [r2, #0]
100089f4:	2900      	cmp	r1, #0
100089f6:	d0fc      	beq.n	100089f2 <tud_task+0x2a>
100089f8:	f3bf 8f5f 	dmb	sy
100089fc:	6223      	str	r3, [r4, #32]
100089fe:	a901      	add	r1, sp, #4
10008a00:	0020      	movs	r0, r4
10008a02:	f001 f85b 	bl	10009abc <tu_fifo_read>
10008a06:	69e2      	ldr	r2, [r4, #28]
10008a08:	6a23      	ldr	r3, [r4, #32]
10008a0a:	f3bf 8f5f 	dmb	sy
10008a0e:	2100      	movs	r1, #0
10008a10:	6011      	str	r1, [r2, #0]
10008a12:	f383 8810 	msr	PRIMASK, r3
10008a16:	2800      	cmp	r0, #0
10008a18:	d0dc      	beq.n	100089d4 <tud_task+0xc>
10008a1a:	ab01      	add	r3, sp, #4
10008a1c:	785b      	ldrb	r3, [r3, #1]
10008a1e:	2b08      	cmp	r3, #8
10008a20:	d8e1      	bhi.n	100089e6 <tud_task+0x1e>
10008a22:	009b      	lsls	r3, r3, #2
10008a24:	4a63      	ldr	r2, [pc, #396]	; (10008bb4 <tud_task+0x1ec>)
10008a26:	58d3      	ldr	r3, [r2, r3]
10008a28:	469f      	mov	pc, r3
10008a2a:	ab01      	add	r3, sp, #4
10008a2c:	7818      	ldrb	r0, [r3, #0]
10008a2e:	f7ff f93d 	bl	10007cac <usbd_reset>
10008a32:	4b61      	ldr	r3, [pc, #388]	; (10008bb8 <tud_task+0x1f0>)
10008a34:	2b00      	cmp	r3, #0
10008a36:	d0d6      	beq.n	100089e6 <tud_task+0x1e>
10008a38:	e000      	b.n	10008a3c <tud_task+0x74>
10008a3a:	bf00      	nop
10008a3c:	e7d3      	b.n	100089e6 <tud_task+0x1e>
10008a3e:	4b5b      	ldr	r3, [pc, #364]	; (10008bac <tud_task+0x1e4>)
10008a40:	781a      	ldrb	r2, [r3, #0]
10008a42:	2401      	movs	r4, #1
10008a44:	2101      	movs	r1, #1
10008a46:	430a      	orrs	r2, r1
10008a48:	701a      	strb	r2, [r3, #0]
10008a4a:	2233      	movs	r2, #51	; 0x33
10008a4c:	5c99      	ldrb	r1, [r3, r2]
10008a4e:	43a1      	bics	r1, r4
10008a50:	5499      	strb	r1, [r3, r2]
10008a52:	5c99      	ldrb	r1, [r3, r2]
10008a54:	2004      	movs	r0, #4
10008a56:	4381      	bics	r1, r0
10008a58:	5499      	strb	r1, [r3, r2]
10008a5a:	3201      	adds	r2, #1
10008a5c:	5c99      	ldrb	r1, [r3, r2]
10008a5e:	43a1      	bics	r1, r4
10008a60:	5499      	strb	r1, [r3, r2]
10008a62:	5c99      	ldrb	r1, [r3, r2]
10008a64:	4381      	bics	r1, r0
10008a66:	5499      	strb	r1, [r3, r2]
10008a68:	ab01      	add	r3, sp, #4
10008a6a:	7818      	ldrb	r0, [r3, #0]
10008a6c:	a902      	add	r1, sp, #8
10008a6e:	f7ff fdcd 	bl	1000860c <process_control_request>
10008a72:	2800      	cmp	r0, #0
10008a74:	d1b7      	bne.n	100089e6 <tud_task+0x1e>
10008a76:	ac01      	add	r4, sp, #4
10008a78:	7820      	ldrb	r0, [r4, #0]
10008a7a:	2100      	movs	r1, #0
10008a7c:	f7fe ff52 	bl	10007924 <dcd_edpt_stall>
10008a80:	7820      	ldrb	r0, [r4, #0]
10008a82:	2180      	movs	r1, #128	; 0x80
10008a84:	f7fe ff4e 	bl	10007924 <dcd_edpt_stall>
10008a88:	e7ad      	b.n	100089e6 <tud_task+0x1e>
10008a8a:	ab01      	add	r3, sp, #4
10008a8c:	7919      	ldrb	r1, [r3, #4]
10008a8e:	227f      	movs	r2, #127	; 0x7f
10008a90:	400a      	ands	r2, r1
10008a92:	09cc      	lsrs	r4, r1, #7
10008a94:	0050      	lsls	r0, r2, #1
10008a96:	4b45      	ldr	r3, [pc, #276]	; (10008bac <tud_task+0x1e4>)
10008a98:	181b      	adds	r3, r3, r0
10008a9a:	191b      	adds	r3, r3, r4
10008a9c:	3330      	adds	r3, #48	; 0x30
10008a9e:	78d8      	ldrb	r0, [r3, #3]
10008aa0:	2501      	movs	r5, #1
10008aa2:	43a8      	bics	r0, r5
10008aa4:	70d8      	strb	r0, [r3, #3]
10008aa6:	78d8      	ldrb	r0, [r3, #3]
10008aa8:	3503      	adds	r5, #3
10008aaa:	43a8      	bics	r0, r5
10008aac:	70d8      	strb	r0, [r3, #3]
10008aae:	2a00      	cmp	r2, #0
10008ab0:	d01d      	beq.n	10008aee <tud_task+0x126>
10008ab2:	0052      	lsls	r2, r2, #1
10008ab4:	4b3d      	ldr	r3, [pc, #244]	; (10008bac <tud_task+0x1e4>)
10008ab6:	189a      	adds	r2, r3, r2
10008ab8:	1912      	adds	r2, r2, r4
10008aba:	7cd3      	ldrb	r3, [r2, #19]
10008abc:	4a3f      	ldr	r2, [pc, #252]	; (10008bbc <tud_task+0x1f4>)
10008abe:	2a00      	cmp	r2, #0
10008ac0:	d005      	beq.n	10008ace <tud_task+0x106>
10008ac2:	4a3f      	ldr	r2, [pc, #252]	; (10008bc0 <tud_task+0x1f8>)
10008ac4:	7812      	ldrb	r2, [r2, #0]
10008ac6:	4293      	cmp	r3, r2
10008ac8:	d318      	bcc.n	10008afc <tud_task+0x134>
10008aca:	1a9b      	subs	r3, r3, r2
10008acc:	b2db      	uxtb	r3, r3
10008ace:	2b00      	cmp	r3, #0
10008ad0:	d11b      	bne.n	10008b0a <tud_task+0x142>
10008ad2:	005a      	lsls	r2, r3, #1
10008ad4:	18d3      	adds	r3, r2, r3
10008ad6:	00da      	lsls	r2, r3, #3
10008ad8:	4b3a      	ldr	r3, [pc, #232]	; (10008bc4 <tud_task+0x1fc>)
10008ada:	189b      	adds	r3, r3, r2
10008adc:	2b00      	cmp	r3, #0
10008ade:	d014      	beq.n	10008b0a <tud_task+0x142>
10008ae0:	691c      	ldr	r4, [r3, #16]
10008ae2:	a801      	add	r0, sp, #4
10008ae4:	7942      	ldrb	r2, [r0, #5]
10008ae6:	9b03      	ldr	r3, [sp, #12]
10008ae8:	7800      	ldrb	r0, [r0, #0]
10008aea:	47a0      	blx	r4
10008aec:	e77b      	b.n	100089e6 <tud_task+0x1e>
10008aee:	a801      	add	r0, sp, #4
10008af0:	7942      	ldrb	r2, [r0, #5]
10008af2:	9b03      	ldr	r3, [sp, #12]
10008af4:	7800      	ldrb	r0, [r0, #0]
10008af6:	f000 f92b 	bl	10008d50 <usbd_control_xfer_cb>
10008afa:	e774      	b.n	100089e6 <tud_task+0x1e>
10008afc:	005a      	lsls	r2, r3, #1
10008afe:	18d3      	adds	r3, r2, r3
10008b00:	00da      	lsls	r2, r3, #3
10008b02:	4b31      	ldr	r3, [pc, #196]	; (10008bc8 <tud_task+0x200>)
10008b04:	681b      	ldr	r3, [r3, #0]
10008b06:	189b      	adds	r3, r3, r2
10008b08:	e7e8      	b.n	10008adc <tud_task+0x114>
10008b0a:	4a30      	ldr	r2, [pc, #192]	; (10008bcc <tud_task+0x204>)
10008b0c:	4930      	ldr	r1, [pc, #192]	; (10008bd0 <tud_task+0x208>)
10008b0e:	4831      	ldr	r0, [pc, #196]	; (10008bd4 <tud_task+0x20c>)
10008b10:	f7fe fa8c 	bl	1000702c <__wrap_printf>
10008b14:	e75e      	b.n	100089d4 <tud_task+0xc>
10008b16:	4b25      	ldr	r3, [pc, #148]	; (10008bac <tud_task+0x1e4>)
10008b18:	781b      	ldrb	r3, [r3, #0]
10008b1a:	07db      	lsls	r3, r3, #31
10008b1c:	d400      	bmi.n	10008b20 <tud_task+0x158>
10008b1e:	e762      	b.n	100089e6 <tud_task+0x1e>
10008b20:	4b2d      	ldr	r3, [pc, #180]	; (10008bd8 <tud_task+0x210>)
10008b22:	2b00      	cmp	r3, #0
10008b24:	d100      	bne.n	10008b28 <tud_task+0x160>
10008b26:	e75e      	b.n	100089e6 <tud_task+0x1e>
10008b28:	4b20      	ldr	r3, [pc, #128]	; (10008bac <tud_task+0x1e4>)
10008b2a:	7818      	ldrb	r0, [r3, #0]
10008b2c:	0700      	lsls	r0, r0, #28
10008b2e:	0fc0      	lsrs	r0, r0, #31
10008b30:	e000      	b.n	10008b34 <tud_task+0x16c>
10008b32:	bf00      	nop
10008b34:	e757      	b.n	100089e6 <tud_task+0x1e>
10008b36:	4b1d      	ldr	r3, [pc, #116]	; (10008bac <tud_task+0x1e4>)
10008b38:	781b      	ldrb	r3, [r3, #0]
10008b3a:	07db      	lsls	r3, r3, #31
10008b3c:	d400      	bmi.n	10008b40 <tud_task+0x178>
10008b3e:	e752      	b.n	100089e6 <tud_task+0x1e>
10008b40:	4b26      	ldr	r3, [pc, #152]	; (10008bdc <tud_task+0x214>)
10008b42:	2b00      	cmp	r3, #0
10008b44:	d100      	bne.n	10008b48 <tud_task+0x180>
10008b46:	e74e      	b.n	100089e6 <tud_task+0x1e>
10008b48:	e000      	b.n	10008b4c <tud_task+0x184>
10008b4a:	bf00      	nop
10008b4c:	e74b      	b.n	100089e6 <tud_task+0x1e>
10008b4e:	0062      	lsls	r2, r4, #1
10008b50:	1912      	adds	r2, r2, r4
10008b52:	00d1      	lsls	r1, r2, #3
10008b54:	4b1c      	ldr	r3, [pc, #112]	; (10008bc8 <tud_task+0x200>)
10008b56:	681b      	ldr	r3, [r3, #0]
10008b58:	185b      	adds	r3, r3, r1
10008b5a:	e002      	b.n	10008b62 <tud_task+0x19a>
10008b5c:	0023      	movs	r3, r4
10008b5e:	e014      	b.n	10008b8a <tud_task+0x1c2>
10008b60:	2300      	movs	r3, #0
10008b62:	695b      	ldr	r3, [r3, #20]
10008b64:	2b00      	cmp	r3, #0
10008b66:	d002      	beq.n	10008b6e <tud_task+0x1a6>
10008b68:	aa01      	add	r2, sp, #4
10008b6a:	7810      	ldrb	r0, [r2, #0]
10008b6c:	4798      	blx	r3
10008b6e:	3401      	adds	r4, #1
10008b70:	b2e4      	uxtb	r4, r4
10008b72:	4b13      	ldr	r3, [pc, #76]	; (10008bc0 <tud_task+0x1f8>)
10008b74:	781b      	ldrb	r3, [r3, #0]
10008b76:	42a3      	cmp	r3, r4
10008b78:	d200      	bcs.n	10008b7c <tud_task+0x1b4>
10008b7a:	e734      	b.n	100089e6 <tud_task+0x1e>
10008b7c:	4a0f      	ldr	r2, [pc, #60]	; (10008bbc <tud_task+0x1f4>)
10008b7e:	2a00      	cmp	r2, #0
10008b80:	d0ec      	beq.n	10008b5c <tud_task+0x194>
10008b82:	42a3      	cmp	r3, r4
10008b84:	d8e3      	bhi.n	10008b4e <tud_task+0x186>
10008b86:	1ae3      	subs	r3, r4, r3
10008b88:	b2db      	uxtb	r3, r3
10008b8a:	2b00      	cmp	r3, #0
10008b8c:	d1e8      	bne.n	10008b60 <tud_task+0x198>
10008b8e:	005a      	lsls	r2, r3, #1
10008b90:	18d3      	adds	r3, r2, r3
10008b92:	00da      	lsls	r2, r3, #3
10008b94:	4b0b      	ldr	r3, [pc, #44]	; (10008bc4 <tud_task+0x1fc>)
10008b96:	189b      	adds	r3, r3, r2
10008b98:	e7e3      	b.n	10008b62 <tud_task+0x19a>
10008b9a:	2400      	movs	r4, #0
10008b9c:	e7e9      	b.n	10008b72 <tud_task+0x1aa>
10008b9e:	9b02      	ldr	r3, [sp, #8]
10008ba0:	2b00      	cmp	r3, #0
10008ba2:	d100      	bne.n	10008ba6 <tud_task+0x1de>
10008ba4:	e71f      	b.n	100089e6 <tud_task+0x1e>
10008ba6:	9803      	ldr	r0, [sp, #12]
10008ba8:	4798      	blx	r3
10008baa:	e71c      	b.n	100089e6 <tud_task+0x1e>
10008bac:	2000896c 	.word	0x2000896c
10008bb0:	200089c4 	.word	0x200089c4
10008bb4:	1000bf44 	.word	0x1000bf44
10008bb8:	00000000 	.word	0x00000000
10008bbc:	10007181 	.word	0x10007181
10008bc0:	20008fd6 	.word	0x20008fd6
10008bc4:	1000bffc 	.word	0x1000bffc
10008bc8:	20008634 	.word	0x20008634
10008bcc:	00000237 	.word	0x00000237
10008bd0:	1000bf78 	.word	0x1000bf78
10008bd4:	1000c014 	.word	0x1000c014
	...

10008be0 <_data_stage_xact>:
10008be0:	b5f8      	push	{r3, r4, r5, r6, r7, lr}
10008be2:	0004      	movs	r4, r0
10008be4:	4b12      	ldr	r3, [pc, #72]	; (10008c30 <_data_stage_xact+0x50>)
10008be6:	899f      	ldrh	r7, [r3, #12]
10008be8:	89de      	ldrh	r6, [r3, #14]
10008bea:	1bb9      	subs	r1, r7, r6
10008bec:	b289      	uxth	r1, r1
10008bee:	1c0b      	adds	r3, r1, #0
10008bf0:	2940      	cmp	r1, #64	; 0x40
10008bf2:	d900      	bls.n	10008bf6 <_data_stage_xact+0x16>
10008bf4:	2340      	movs	r3, #64	; 0x40
10008bf6:	b29d      	uxth	r5, r3
10008bf8:	4b0d      	ldr	r3, [pc, #52]	; (10008c30 <_data_stage_xact+0x50>)
10008bfa:	781b      	ldrb	r3, [r3, #0]
10008bfc:	b25b      	sxtb	r3, r3
10008bfe:	2b00      	cmp	r3, #0
10008c00:	db08      	blt.n	10008c14 <_data_stage_xact+0x34>
10008c02:	2100      	movs	r1, #0
10008c04:	42b7      	cmp	r7, r6
10008c06:	d011      	beq.n	10008c2c <_data_stage_xact+0x4c>
10008c08:	4a0a      	ldr	r2, [pc, #40]	; (10008c34 <_data_stage_xact+0x54>)
10008c0a:	002b      	movs	r3, r5
10008c0c:	0020      	movs	r0, r4
10008c0e:	f7ff fc6f 	bl	100084f0 <usbd_edpt_xfer>
10008c12:	bdf8      	pop	{r3, r4, r5, r6, r7, pc}
10008c14:	42b7      	cmp	r7, r6
10008c16:	d101      	bne.n	10008c1c <_data_stage_xact+0x3c>
10008c18:	2180      	movs	r1, #128	; 0x80
10008c1a:	e7f3      	b.n	10008c04 <_data_stage_xact+0x24>
10008c1c:	4b04      	ldr	r3, [pc, #16]	; (10008c30 <_data_stage_xact+0x50>)
10008c1e:	6899      	ldr	r1, [r3, #8]
10008c20:	002a      	movs	r2, r5
10008c22:	4804      	ldr	r0, [pc, #16]	; (10008c34 <_data_stage_xact+0x54>)
10008c24:	f7fe f874 	bl	10006d10 <__wrap___aeabi_memcpy>
10008c28:	2180      	movs	r1, #128	; 0x80
10008c2a:	e7eb      	b.n	10008c04 <_data_stage_xact+0x24>
10008c2c:	2200      	movs	r2, #0
10008c2e:	e7ec      	b.n	10008c0a <_data_stage_xact+0x2a>
10008c30:	20008910 	.word	0x20008910
10008c34:	2000892c 	.word	0x2000892c

10008c38 <tud_control_status>:
10008c38:	b570      	push	{r4, r5, r6, lr}
10008c3a:	0006      	movs	r6, r0
10008c3c:	000d      	movs	r5, r1
10008c3e:	4c0b      	ldr	r4, [pc, #44]	; (10008c6c <tud_control_status+0x34>)
10008c40:	2208      	movs	r2, #8
10008c42:	0020      	movs	r0, r4
10008c44:	f7fe f864 	bl	10006d10 <__wrap___aeabi_memcpy>
10008c48:	2300      	movs	r3, #0
10008c4a:	60a3      	str	r3, [r4, #8]
10008c4c:	81e3      	strh	r3, [r4, #14]
10008c4e:	81a3      	strh	r3, [r4, #12]
10008c50:	2300      	movs	r3, #0
10008c52:	56eb      	ldrsb	r3, [r5, r3]
10008c54:	2b00      	cmp	r3, #0
10008c56:	db06      	blt.n	10008c66 <tud_control_status+0x2e>
10008c58:	2180      	movs	r1, #128	; 0x80
10008c5a:	2300      	movs	r3, #0
10008c5c:	2200      	movs	r2, #0
10008c5e:	0030      	movs	r0, r6
10008c60:	f7ff fc46 	bl	100084f0 <usbd_edpt_xfer>
10008c64:	bd70      	pop	{r4, r5, r6, pc}
10008c66:	2100      	movs	r1, #0
10008c68:	e7f7      	b.n	10008c5a <tud_control_status+0x22>
10008c6a:	46c0      	nop			; (mov r8, r8)
10008c6c:	20008910 	.word	0x20008910

10008c70 <tud_control_xfer>:
10008c70:	b5f0      	push	{r4, r5, r6, r7, lr}
10008c72:	b083      	sub	sp, #12
10008c74:	9001      	str	r0, [sp, #4]
10008c76:	000e      	movs	r6, r1
10008c78:	0017      	movs	r7, r2
10008c7a:	001c      	movs	r4, r3
10008c7c:	4d22      	ldr	r5, [pc, #136]	; (10008d08 <tud_control_xfer+0x98>)
10008c7e:	2208      	movs	r2, #8
10008c80:	0028      	movs	r0, r5
10008c82:	f7fe f845 	bl	10006d10 <__wrap___aeabi_memcpy>
10008c86:	60af      	str	r7, [r5, #8]
10008c88:	2300      	movs	r3, #0
10008c8a:	81eb      	strh	r3, [r5, #14]
10008c8c:	79b2      	ldrb	r2, [r6, #6]
10008c8e:	79f3      	ldrb	r3, [r6, #7]
10008c90:	021b      	lsls	r3, r3, #8
10008c92:	4313      	orrs	r3, r2
10008c94:	1c1a      	adds	r2, r3, #0
10008c96:	42a3      	cmp	r3, r4
10008c98:	d900      	bls.n	10008c9c <tud_control_xfer+0x2c>
10008c9a:	1c22      	adds	r2, r4, #0
10008c9c:	b291      	uxth	r1, r2
10008c9e:	4b1a      	ldr	r3, [pc, #104]	; (10008d08 <tud_control_xfer+0x98>)
10008ca0:	819a      	strh	r2, [r3, #12]
10008ca2:	79b2      	ldrb	r2, [r6, #6]
10008ca4:	79f3      	ldrb	r3, [r6, #7]
10008ca6:	021b      	lsls	r3, r3, #8
10008ca8:	4313      	orrs	r3, r2
10008caa:	d015      	beq.n	10008cd8 <tud_control_xfer+0x68>
10008cac:	2900      	cmp	r1, #0
10008cae:	d001      	beq.n	10008cb4 <tud_control_xfer+0x44>
10008cb0:	2f00      	cmp	r7, #0
10008cb2:	d00a      	beq.n	10008cca <tud_control_xfer+0x5a>
10008cb4:	9801      	ldr	r0, [sp, #4]
10008cb6:	f7ff ff93 	bl	10008be0 <_data_stage_xact>
10008cba:	1e04      	subs	r4, r0, #0
10008cbc:	d118      	bne.n	10008cf0 <tud_control_xfer+0x80>
10008cbe:	2279      	movs	r2, #121	; 0x79
10008cc0:	4912      	ldr	r1, [pc, #72]	; (10008d0c <tud_control_xfer+0x9c>)
10008cc2:	4813      	ldr	r0, [pc, #76]	; (10008d10 <tud_control_xfer+0xa0>)
10008cc4:	f7fe f9b2 	bl	1000702c <__wrap_printf>
10008cc8:	e012      	b.n	10008cf0 <tud_control_xfer+0x80>
10008cca:	2273      	movs	r2, #115	; 0x73
10008ccc:	490f      	ldr	r1, [pc, #60]	; (10008d0c <tud_control_xfer+0x9c>)
10008cce:	4810      	ldr	r0, [pc, #64]	; (10008d10 <tud_control_xfer+0xa0>)
10008cd0:	f7fe f9ac 	bl	1000702c <__wrap_printf>
10008cd4:	2400      	movs	r4, #0
10008cd6:	e00b      	b.n	10008cf0 <tud_control_xfer+0x80>
10008cd8:	2300      	movs	r3, #0
10008cda:	56f3      	ldrsb	r3, [r6, r3]
10008cdc:	2b00      	cmp	r3, #0
10008cde:	db0a      	blt.n	10008cf6 <tud_control_xfer+0x86>
10008ce0:	2180      	movs	r1, #128	; 0x80
10008ce2:	2300      	movs	r3, #0
10008ce4:	2200      	movs	r2, #0
10008ce6:	9801      	ldr	r0, [sp, #4]
10008ce8:	f7ff fc02 	bl	100084f0 <usbd_edpt_xfer>
10008cec:	1e04      	subs	r4, r0, #0
10008cee:	d004      	beq.n	10008cfa <tud_control_xfer+0x8a>
10008cf0:	0020      	movs	r0, r4
10008cf2:	b003      	add	sp, #12
10008cf4:	bdf0      	pop	{r4, r5, r6, r7, pc}
10008cf6:	2100      	movs	r1, #0
10008cf8:	e7f3      	b.n	10008ce2 <tud_control_xfer+0x72>
10008cfa:	227e      	movs	r2, #126	; 0x7e
10008cfc:	4903      	ldr	r1, [pc, #12]	; (10008d0c <tud_control_xfer+0x9c>)
10008cfe:	4804      	ldr	r0, [pc, #16]	; (10008d10 <tud_control_xfer+0xa0>)
10008d00:	f7fe f994 	bl	1000702c <__wrap_printf>
10008d04:	e7f4      	b.n	10008cf0 <tud_control_xfer+0x80>
10008d06:	46c0      	nop			; (mov r8, r8)
10008d08:	20008910 	.word	0x20008910
10008d0c:	1000c02c 	.word	0x1000c02c
10008d10:	1000c014 	.word	0x1000c014

10008d14 <usbd_control_reset>:
10008d14:	b510      	push	{r4, lr}
10008d16:	2214      	movs	r2, #20
10008d18:	2100      	movs	r1, #0
10008d1a:	4802      	ldr	r0, [pc, #8]	; (10008d24 <usbd_control_reset+0x10>)
10008d1c:	f7fd fff2 	bl	10006d04 <__wrap_memset>
10008d20:	bd10      	pop	{r4, pc}
10008d22:	46c0      	nop			; (mov r8, r8)
10008d24:	20008910 	.word	0x20008910

10008d28 <usbd_control_set_complete_callback>:
10008d28:	4b01      	ldr	r3, [pc, #4]	; (10008d30 <usbd_control_set_complete_callback+0x8>)
10008d2a:	6118      	str	r0, [r3, #16]
10008d2c:	4770      	bx	lr
10008d2e:	46c0      	nop			; (mov r8, r8)
10008d30:	20008910 	.word	0x20008910

10008d34 <usbd_control_set_request>:
10008d34:	b510      	push	{r4, lr}
10008d36:	0001      	movs	r1, r0
10008d38:	4c04      	ldr	r4, [pc, #16]	; (10008d4c <usbd_control_set_request+0x18>)
10008d3a:	2208      	movs	r2, #8
10008d3c:	0020      	movs	r0, r4
10008d3e:	f7fd ffe7 	bl	10006d10 <__wrap___aeabi_memcpy>
10008d42:	2300      	movs	r3, #0
10008d44:	60a3      	str	r3, [r4, #8]
10008d46:	81e3      	strh	r3, [r4, #14]
10008d48:	81a3      	strh	r3, [r4, #12]
10008d4a:	bd10      	pop	{r4, pc}
10008d4c:	20008910 	.word	0x20008910

10008d50 <usbd_control_xfer_cb>:
10008d50:	b570      	push	{r4, r5, r6, lr}
10008d52:	0004      	movs	r4, r0
10008d54:	001d      	movs	r5, r3
10008d56:	09c9      	lsrs	r1, r1, #7
10008d58:	4b37      	ldr	r3, [pc, #220]	; (10008e38 <usbd_control_xfer_cb+0xe8>)
10008d5a:	781b      	ldrb	r3, [r3, #0]
10008d5c:	09db      	lsrs	r3, r3, #7
10008d5e:	428b      	cmp	r3, r1
10008d60:	d019      	beq.n	10008d96 <usbd_control_xfer_cb+0x46>
10008d62:	2d00      	cmp	r5, #0
10008d64:	d110      	bne.n	10008d88 <usbd_control_xfer_cb+0x38>
10008d66:	4b35      	ldr	r3, [pc, #212]	; (10008e3c <usbd_control_xfer_cb+0xec>)
10008d68:	2b00      	cmp	r3, #0
10008d6a:	d002      	beq.n	10008d72 <usbd_control_xfer_cb+0x22>
10008d6c:	4932      	ldr	r1, [pc, #200]	; (10008e38 <usbd_control_xfer_cb+0xe8>)
10008d6e:	f7fe fd8f 	bl	10007890 <dcd_edpt0_status_complete>
10008d72:	4b31      	ldr	r3, [pc, #196]	; (10008e38 <usbd_control_xfer_cb+0xe8>)
10008d74:	691b      	ldr	r3, [r3, #16]
10008d76:	2b00      	cmp	r3, #0
10008d78:	d003      	beq.n	10008d82 <usbd_control_xfer_cb+0x32>
10008d7a:	4a2f      	ldr	r2, [pc, #188]	; (10008e38 <usbd_control_xfer_cb+0xe8>)
10008d7c:	2102      	movs	r1, #2
10008d7e:	0020      	movs	r0, r4
10008d80:	4798      	blx	r3
10008d82:	2401      	movs	r4, #1
10008d84:	0020      	movs	r0, r4
10008d86:	bd70      	pop	{r4, r5, r6, pc}
10008d88:	22ab      	movs	r2, #171	; 0xab
10008d8a:	492d      	ldr	r1, [pc, #180]	; (10008e40 <usbd_control_xfer_cb+0xf0>)
10008d8c:	482d      	ldr	r0, [pc, #180]	; (10008e44 <usbd_control_xfer_cb+0xf4>)
10008d8e:	f7fe f94d 	bl	1000702c <__wrap_printf>
10008d92:	2400      	movs	r4, #0
10008d94:	e7f6      	b.n	10008d84 <usbd_control_xfer_cb+0x34>
10008d96:	4b28      	ldr	r3, [pc, #160]	; (10008e38 <usbd_control_xfer_cb+0xe8>)
10008d98:	781b      	ldrb	r3, [r3, #0]
10008d9a:	b25b      	sxtb	r3, r3
10008d9c:	2b00      	cmp	r3, #0
10008d9e:	db07      	blt.n	10008db0 <usbd_control_xfer_cb+0x60>
10008da0:	4b25      	ldr	r3, [pc, #148]	; (10008e38 <usbd_control_xfer_cb+0xe8>)
10008da2:	6898      	ldr	r0, [r3, #8]
10008da4:	2800      	cmp	r0, #0
10008da6:	d044      	beq.n	10008e32 <usbd_control_xfer_cb+0xe2>
10008da8:	002a      	movs	r2, r5
10008daa:	4927      	ldr	r1, [pc, #156]	; (10008e48 <usbd_control_xfer_cb+0xf8>)
10008dac:	f7fd ffb0 	bl	10006d10 <__wrap___aeabi_memcpy>
10008db0:	4a21      	ldr	r2, [pc, #132]	; (10008e38 <usbd_control_xfer_cb+0xe8>)
10008db2:	89d3      	ldrh	r3, [r2, #14]
10008db4:	195b      	adds	r3, r3, r5
10008db6:	b29b      	uxth	r3, r3
10008db8:	81d3      	strh	r3, [r2, #14]
10008dba:	6891      	ldr	r1, [r2, #8]
10008dbc:	1949      	adds	r1, r1, r5
10008dbe:	6091      	str	r1, [r2, #8]
10008dc0:	88d2      	ldrh	r2, [r2, #6]
10008dc2:	4293      	cmp	r3, r2
10008dc4:	d001      	beq.n	10008dca <usbd_control_xfer_cb+0x7a>
10008dc6:	2d3f      	cmp	r5, #63	; 0x3f
10008dc8:	d828      	bhi.n	10008e1c <usbd_control_xfer_cb+0xcc>
10008dca:	4b1b      	ldr	r3, [pc, #108]	; (10008e38 <usbd_control_xfer_cb+0xe8>)
10008dcc:	691b      	ldr	r3, [r3, #16]
10008dce:	2b00      	cmp	r3, #0
10008dd0:	d005      	beq.n	10008dde <usbd_control_xfer_cb+0x8e>
10008dd2:	4a19      	ldr	r2, [pc, #100]	; (10008e38 <usbd_control_xfer_cb+0xe8>)
10008dd4:	2101      	movs	r1, #1
10008dd6:	0020      	movs	r0, r4
10008dd8:	4798      	blx	r3
10008dda:	2800      	cmp	r0, #0
10008ddc:	d014      	beq.n	10008e08 <usbd_control_xfer_cb+0xb8>
10008dde:	4b16      	ldr	r3, [pc, #88]	; (10008e38 <usbd_control_xfer_cb+0xe8>)
10008de0:	781b      	ldrb	r3, [r3, #0]
10008de2:	b25b      	sxtb	r3, r3
10008de4:	2b00      	cmp	r3, #0
10008de6:	db0d      	blt.n	10008e04 <usbd_control_xfer_cb+0xb4>
10008de8:	2180      	movs	r1, #128	; 0x80
10008dea:	2300      	movs	r3, #0
10008dec:	2200      	movs	r2, #0
10008dee:	0020      	movs	r0, r4
10008df0:	f7ff fb7e 	bl	100084f0 <usbd_edpt_xfer>
10008df4:	1e04      	subs	r4, r0, #0
10008df6:	d1c5      	bne.n	10008d84 <usbd_control_xfer_cb+0x34>
10008df8:	22d8      	movs	r2, #216	; 0xd8
10008dfa:	4911      	ldr	r1, [pc, #68]	; (10008e40 <usbd_control_xfer_cb+0xf0>)
10008dfc:	4811      	ldr	r0, [pc, #68]	; (10008e44 <usbd_control_xfer_cb+0xf4>)
10008dfe:	f7fe f915 	bl	1000702c <__wrap_printf>
10008e02:	e7bf      	b.n	10008d84 <usbd_control_xfer_cb+0x34>
10008e04:	2100      	movs	r1, #0
10008e06:	e7f0      	b.n	10008dea <usbd_control_xfer_cb+0x9a>
10008e08:	2100      	movs	r1, #0
10008e0a:	0020      	movs	r0, r4
10008e0c:	f7fe fd8a 	bl	10007924 <dcd_edpt_stall>
10008e10:	2180      	movs	r1, #128	; 0x80
10008e12:	0020      	movs	r0, r4
10008e14:	f7fe fd86 	bl	10007924 <dcd_edpt_stall>
10008e18:	2401      	movs	r4, #1
10008e1a:	e7b3      	b.n	10008d84 <usbd_control_xfer_cb+0x34>
10008e1c:	0020      	movs	r0, r4
10008e1e:	f7ff fedf 	bl	10008be0 <_data_stage_xact>
10008e22:	1e04      	subs	r4, r0, #0
10008e24:	d1ae      	bne.n	10008d84 <usbd_control_xfer_cb+0x34>
10008e26:	22e3      	movs	r2, #227	; 0xe3
10008e28:	4905      	ldr	r1, [pc, #20]	; (10008e40 <usbd_control_xfer_cb+0xf0>)
10008e2a:	4806      	ldr	r0, [pc, #24]	; (10008e44 <usbd_control_xfer_cb+0xf4>)
10008e2c:	f7fe f8fe 	bl	1000702c <__wrap_printf>
10008e30:	e7a8      	b.n	10008d84 <usbd_control_xfer_cb+0x34>
10008e32:	2400      	movs	r4, #0
10008e34:	e7a6      	b.n	10008d84 <usbd_control_xfer_cb+0x34>
10008e36:	46c0      	nop			; (mov r8, r8)
10008e38:	20008910 	.word	0x20008910
10008e3c:	10007891 	.word	0x10007891
10008e40:	1000c040 	.word	0x1000c040
10008e44:	1000c014 	.word	0x1000c014
10008e48:	2000892c 	.word	0x2000892c

10008e4c <_prep_out_transaction>:
10008e4c:	b570      	push	{r4, r5, r6, lr}
10008e4e:	0004      	movs	r4, r0
10008e50:	0005      	movs	r5, r0
10008e52:	3510      	adds	r5, #16
10008e54:	0028      	movs	r0, r5
10008e56:	f000 fe21 	bl	10009a9c <tu_fifo_remaining>
10008e5a:	283f      	cmp	r0, #63	; 0x3f
10008e5c:	d800      	bhi.n	10008e60 <_prep_out_transaction+0x14>
10008e5e:	bd70      	pop	{r4, r5, r6, pc}
10008e60:	78e1      	ldrb	r1, [r4, #3]
10008e62:	2000      	movs	r0, #0
10008e64:	f7ff facc 	bl	10008400 <usbd_edpt_claim>
10008e68:	2800      	cmp	r0, #0
10008e6a:	d0f8      	beq.n	10008e5e <_prep_out_transaction+0x12>
10008e6c:	0028      	movs	r0, r5
10008e6e:	f000 fe15 	bl	10009a9c <tu_fifo_remaining>
10008e72:	283f      	cmp	r0, #63	; 0x3f
10008e74:	d908      	bls.n	10008e88 <_prep_out_transaction+0x3c>
10008e76:	2396      	movs	r3, #150	; 0x96
10008e78:	009b      	lsls	r3, r3, #2
10008e7a:	18e2      	adds	r2, r4, r3
10008e7c:	78e1      	ldrb	r1, [r4, #3]
10008e7e:	2340      	movs	r3, #64	; 0x40
10008e80:	2000      	movs	r0, #0
10008e82:	f7ff fb35 	bl	100084f0 <usbd_edpt_xfer>
10008e86:	e7ea      	b.n	10008e5e <_prep_out_transaction+0x12>
10008e88:	78e1      	ldrb	r1, [r4, #3]
10008e8a:	2000      	movs	r0, #0
10008e8c:	f7ff fafc 	bl	10008488 <usbd_edpt_release>
10008e90:	e7e5      	b.n	10008e5e <_prep_out_transaction+0x12>
	...

10008e94 <tud_cdc_n_connected>:
10008e94:	b510      	push	{r4, lr}
10008e96:	0004      	movs	r4, r0
10008e98:	f7ff f86c 	bl	10007f74 <tud_mounted>
10008e9c:	2800      	cmp	r0, #0
10008e9e:	d10c      	bne.n	10008eba <tud_cdc_n_connected+0x26>
10008ea0:	2300      	movs	r3, #0
10008ea2:	2b00      	cmp	r3, #0
10008ea4:	d011      	beq.n	10008eca <tud_cdc_n_connected+0x36>
10008ea6:	20b6      	movs	r0, #182	; 0xb6
10008ea8:	0080      	lsls	r0, r0, #2
10008eaa:	4344      	muls	r4, r0
10008eac:	4809      	ldr	r0, [pc, #36]	; (10008ed4 <tud_cdc_n_connected+0x40>)
10008eae:	1900      	adds	r0, r0, r4
10008eb0:	7903      	ldrb	r3, [r0, #4]
10008eb2:	07db      	lsls	r3, r3, #31
10008eb4:	d50b      	bpl.n	10008ece <tud_cdc_n_connected+0x3a>
10008eb6:	2001      	movs	r0, #1
10008eb8:	e008      	b.n	10008ecc <tud_cdc_n_connected+0x38>
10008eba:	f7ff f863 	bl	10007f84 <tud_suspended>
10008ebe:	2800      	cmp	r0, #0
10008ec0:	d101      	bne.n	10008ec6 <tud_cdc_n_connected+0x32>
10008ec2:	2301      	movs	r3, #1
10008ec4:	e7ed      	b.n	10008ea2 <tud_cdc_n_connected+0xe>
10008ec6:	2300      	movs	r3, #0
10008ec8:	e7eb      	b.n	10008ea2 <tud_cdc_n_connected+0xe>
10008eca:	2000      	movs	r0, #0
10008ecc:	bd10      	pop	{r4, pc}
10008ece:	2000      	movs	r0, #0
10008ed0:	e7fc      	b.n	10008ecc <tud_cdc_n_connected+0x38>
10008ed2:	46c0      	nop			; (mov r8, r8)
10008ed4:	20008638 	.word	0x20008638

10008ed8 <tud_cdc_n_available>:
10008ed8:	b510      	push	{r4, lr}
10008eda:	23b6      	movs	r3, #182	; 0xb6
10008edc:	009b      	lsls	r3, r3, #2
10008ede:	4358      	muls	r0, r3
10008ee0:	3010      	adds	r0, #16
10008ee2:	4b02      	ldr	r3, [pc, #8]	; (10008eec <tud_cdc_n_available+0x14>)
10008ee4:	18c0      	adds	r0, r0, r3
10008ee6:	f000 fdc0 	bl	10009a6a <tu_fifo_count>
10008eea:	bd10      	pop	{r4, pc}
10008eec:	20008638 	.word	0x20008638

10008ef0 <tud_cdc_n_read>:
10008ef0:	b570      	push	{r4, r5, r6, lr}
10008ef2:	23b6      	movs	r3, #182	; 0xb6
10008ef4:	009b      	lsls	r3, r3, #2
10008ef6:	4358      	muls	r0, r3
10008ef8:	4b06      	ldr	r3, [pc, #24]	; (10008f14 <tud_cdc_n_read+0x24>)
10008efa:	18c4      	adds	r4, r0, r3
10008efc:	b292      	uxth	r2, r2
10008efe:	3010      	adds	r0, #16
10008f00:	18c0      	adds	r0, r0, r3
10008f02:	f000 fdfc 	bl	10009afe <tu_fifo_read_n>
10008f06:	0005      	movs	r5, r0
10008f08:	0020      	movs	r0, r4
10008f0a:	f7ff ff9f 	bl	10008e4c <_prep_out_transaction>
10008f0e:	0028      	movs	r0, r5
10008f10:	bd70      	pop	{r4, r5, r6, pc}
10008f12:	46c0      	nop			; (mov r8, r8)
10008f14:	20008638 	.word	0x20008638

10008f18 <tud_cdc_n_write_flush>:
10008f18:	b570      	push	{r4, r5, r6, lr}
10008f1a:	0005      	movs	r5, r0
10008f1c:	f7ff f82a 	bl	10007f74 <tud_mounted>
10008f20:	2800      	cmp	r0, #0
10008f22:	d104      	bne.n	10008f2e <tud_cdc_n_write_flush+0x16>
10008f24:	2300      	movs	r3, #0
10008f26:	2b00      	cmp	r3, #0
10008f28:	d109      	bne.n	10008f3e <tud_cdc_n_write_flush+0x26>
10008f2a:	2000      	movs	r0, #0
10008f2c:	bd70      	pop	{r4, r5, r6, pc}
10008f2e:	f7ff f829 	bl	10007f84 <tud_suspended>
10008f32:	2800      	cmp	r0, #0
10008f34:	d101      	bne.n	10008f3a <tud_cdc_n_write_flush+0x22>
10008f36:	2301      	movs	r3, #1
10008f38:	e7f5      	b.n	10008f26 <tud_cdc_n_write_flush+0xe>
10008f3a:	2300      	movs	r3, #0
10008f3c:	e7f3      	b.n	10008f26 <tud_cdc_n_write_flush+0xe>
10008f3e:	24b6      	movs	r4, #182	; 0xb6
10008f40:	00a4      	lsls	r4, r4, #2
10008f42:	436c      	muls	r4, r5
10008f44:	3428      	adds	r4, #40	; 0x28
10008f46:	4b24      	ldr	r3, [pc, #144]	; (10008fd8 <tud_cdc_n_write_flush+0xc0>)
10008f48:	18e4      	adds	r4, r4, r3
10008f4a:	3404      	adds	r4, #4
10008f4c:	0020      	movs	r0, r4
10008f4e:	f000 fd8c 	bl	10009a6a <tu_fifo_count>
10008f52:	2800      	cmp	r0, #0
10008f54:	d101      	bne.n	10008f5a <tud_cdc_n_write_flush+0x42>
10008f56:	2000      	movs	r0, #0
10008f58:	e7e8      	b.n	10008f2c <tud_cdc_n_write_flush+0x14>
10008f5a:	22b6      	movs	r2, #182	; 0xb6
10008f5c:	0092      	lsls	r2, r2, #2
10008f5e:	436a      	muls	r2, r5
10008f60:	4b1d      	ldr	r3, [pc, #116]	; (10008fd8 <tud_cdc_n_write_flush+0xc0>)
10008f62:	189b      	adds	r3, r3, r2
10008f64:	7899      	ldrb	r1, [r3, #2]
10008f66:	2000      	movs	r0, #0
10008f68:	f7ff fa4a 	bl	10008400 <usbd_edpt_claim>
10008f6c:	2800      	cmp	r0, #0
10008f6e:	d101      	bne.n	10008f74 <tud_cdc_n_write_flush+0x5c>
10008f70:	2000      	movs	r0, #0
10008f72:	e7db      	b.n	10008f2c <tud_cdc_n_write_flush+0x14>
10008f74:	26b6      	movs	r6, #182	; 0xb6
10008f76:	00b6      	lsls	r6, r6, #2
10008f78:	436e      	muls	r6, r5
10008f7a:	23a6      	movs	r3, #166	; 0xa6
10008f7c:	009b      	lsls	r3, r3, #2
10008f7e:	469c      	mov	ip, r3
10008f80:	4466      	add	r6, ip
10008f82:	4b15      	ldr	r3, [pc, #84]	; (10008fd8 <tud_cdc_n_write_flush+0xc0>)
10008f84:	18f6      	adds	r6, r6, r3
10008f86:	2240      	movs	r2, #64	; 0x40
10008f88:	0031      	movs	r1, r6
10008f8a:	0020      	movs	r0, r4
10008f8c:	f000 fdb7 	bl	10009afe <tu_fifo_read_n>
10008f90:	1e04      	subs	r4, r0, #0
10008f92:	d015      	beq.n	10008fc0 <tud_cdc_n_write_flush+0xa8>
10008f94:	23b6      	movs	r3, #182	; 0xb6
10008f96:	009b      	lsls	r3, r3, #2
10008f98:	436b      	muls	r3, r5
10008f9a:	4d0f      	ldr	r5, [pc, #60]	; (10008fd8 <tud_cdc_n_write_flush+0xc0>)
10008f9c:	18ed      	adds	r5, r5, r3
10008f9e:	78a9      	ldrb	r1, [r5, #2]
10008fa0:	0003      	movs	r3, r0
10008fa2:	0032      	movs	r2, r6
10008fa4:	2000      	movs	r0, #0
10008fa6:	f7ff faa3 	bl	100084f0 <usbd_edpt_xfer>
10008faa:	2800      	cmp	r0, #0
10008fac:	d001      	beq.n	10008fb2 <tud_cdc_n_write_flush+0x9a>
10008fae:	0020      	movs	r0, r4
10008fb0:	e7bc      	b.n	10008f2c <tud_cdc_n_write_flush+0x14>
10008fb2:	22c8      	movs	r2, #200	; 0xc8
10008fb4:	4909      	ldr	r1, [pc, #36]	; (10008fdc <tud_cdc_n_write_flush+0xc4>)
10008fb6:	480a      	ldr	r0, [pc, #40]	; (10008fe0 <tud_cdc_n_write_flush+0xc8>)
10008fb8:	f7fe f838 	bl	1000702c <__wrap_printf>
10008fbc:	2000      	movs	r0, #0
10008fbe:	e7b5      	b.n	10008f2c <tud_cdc_n_write_flush+0x14>
10008fc0:	23b6      	movs	r3, #182	; 0xb6
10008fc2:	009b      	lsls	r3, r3, #2
10008fc4:	436b      	muls	r3, r5
10008fc6:	4d04      	ldr	r5, [pc, #16]	; (10008fd8 <tud_cdc_n_write_flush+0xc0>)
10008fc8:	18ed      	adds	r5, r5, r3
10008fca:	78a9      	ldrb	r1, [r5, #2]
10008fcc:	2000      	movs	r0, #0
10008fce:	f7ff fa5b 	bl	10008488 <usbd_edpt_release>
10008fd2:	2000      	movs	r0, #0
10008fd4:	e7aa      	b.n	10008f2c <tud_cdc_n_write_flush+0x14>
10008fd6:	46c0      	nop			; (mov r8, r8)
10008fd8:	20008638 	.word	0x20008638
10008fdc:	1000c058 	.word	0x1000c058
10008fe0:	1000c014 	.word	0x1000c014

10008fe4 <tud_cdc_n_write>:
10008fe4:	b570      	push	{r4, r5, r6, lr}
10008fe6:	0005      	movs	r5, r0
10008fe8:	24b6      	movs	r4, #182	; 0xb6
10008fea:	00a4      	lsls	r4, r4, #2
10008fec:	4344      	muls	r4, r0
10008fee:	3428      	adds	r4, #40	; 0x28
10008ff0:	4b09      	ldr	r3, [pc, #36]	; (10009018 <tud_cdc_n_write+0x34>)
10008ff2:	18e4      	adds	r4, r4, r3
10008ff4:	3404      	adds	r4, #4
10008ff6:	b292      	uxth	r2, r2
10008ff8:	0020      	movs	r0, r4
10008ffa:	f000 fdbb 	bl	10009b74 <tu_fifo_write_n>
10008ffe:	0006      	movs	r6, r0
10009000:	0020      	movs	r0, r4
10009002:	f000 fd32 	bl	10009a6a <tu_fifo_count>
10009006:	283f      	cmp	r0, #63	; 0x3f
10009008:	d801      	bhi.n	1000900e <tud_cdc_n_write+0x2a>
1000900a:	0030      	movs	r0, r6
1000900c:	bd70      	pop	{r4, r5, r6, pc}
1000900e:	0028      	movs	r0, r5
10009010:	f7ff ff82 	bl	10008f18 <tud_cdc_n_write_flush>
10009014:	e7f9      	b.n	1000900a <tud_cdc_n_write+0x26>
10009016:	46c0      	nop			; (mov r8, r8)
10009018:	20008638 	.word	0x20008638

1000901c <tud_cdc_n_write_available>:
1000901c:	b510      	push	{r4, lr}
1000901e:	23b6      	movs	r3, #182	; 0xb6
10009020:	009b      	lsls	r3, r3, #2
10009022:	4358      	muls	r0, r3
10009024:	3028      	adds	r0, #40	; 0x28
10009026:	4b03      	ldr	r3, [pc, #12]	; (10009034 <tud_cdc_n_write_available+0x18>)
10009028:	18c0      	adds	r0, r0, r3
1000902a:	3004      	adds	r0, #4
1000902c:	f000 fd36 	bl	10009a9c <tu_fifo_remaining>
10009030:	bd10      	pop	{r4, pc}
10009032:	46c0      	nop			; (mov r8, r8)
10009034:	20008638 	.word	0x20008638

10009038 <cdcd_init>:
10009038:	b5f0      	push	{r4, r5, r6, r7, lr}
1000903a:	46ce      	mov	lr, r9
1000903c:	4647      	mov	r7, r8
1000903e:	b580      	push	{r7, lr}
10009040:	b083      	sub	sp, #12
10009042:	22b6      	movs	r2, #182	; 0xb6
10009044:	0092      	lsls	r2, r2, #2
10009046:	2100      	movs	r1, #0
10009048:	4827      	ldr	r0, [pc, #156]	; (100090e8 <cdcd_init+0xb0>)
1000904a:	f7fd fe5b 	bl	10006d04 <__wrap_memset>
1000904e:	2600      	movs	r6, #0
10009050:	2e00      	cmp	r6, #0
10009052:	d004      	beq.n	1000905e <cdcd_init+0x26>
10009054:	b003      	add	sp, #12
10009056:	bc0c      	pop	{r2, r3}
10009058:	4690      	mov	r8, r2
1000905a:	4699      	mov	r9, r3
1000905c:	bdf0      	pop	{r4, r5, r6, r7, pc}
1000905e:	4b22      	ldr	r3, [pc, #136]	; (100090e8 <cdcd_init+0xb0>)
10009060:	4698      	mov	r8, r3
10009062:	24b6      	movs	r4, #182	; 0xb6
10009064:	00a4      	lsls	r4, r4, #2
10009066:	4374      	muls	r4, r6
10009068:	191d      	adds	r5, r3, r4
1000906a:	23ff      	movs	r3, #255	; 0xff
1000906c:	716b      	strb	r3, [r5, #5]
1000906e:	2300      	movs	r3, #0
10009070:	4699      	mov	r9, r3
10009072:	4a1e      	ldr	r2, [pc, #120]	; (100090ec <cdcd_init+0xb4>)
10009074:	80ea      	strh	r2, [r5, #6]
10009076:	2201      	movs	r2, #1
10009078:	812a      	strh	r2, [r5, #8]
1000907a:	72ab      	strb	r3, [r5, #10]
1000907c:	72eb      	strb	r3, [r5, #11]
1000907e:	2308      	movs	r3, #8
10009080:	732b      	strb	r3, [r5, #12]
10009082:	0021      	movs	r1, r4
10009084:	3148      	adds	r1, #72	; 0x48
10009086:	4441      	add	r1, r8
10009088:	2780      	movs	r7, #128	; 0x80
1000908a:	007f      	lsls	r7, r7, #1
1000908c:	0020      	movs	r0, r4
1000908e:	3010      	adds	r0, #16
10009090:	4440      	add	r0, r8
10009092:	464b      	mov	r3, r9
10009094:	9300      	str	r3, [sp, #0]
10009096:	3301      	adds	r3, #1
10009098:	003a      	movs	r2, r7
1000909a:	f000 fcad 	bl	100099f8 <tu_fifo_config>
1000909e:	0021      	movs	r1, r4
100090a0:	3149      	adds	r1, #73	; 0x49
100090a2:	31ff      	adds	r1, #255	; 0xff
100090a4:	4441      	add	r1, r8
100090a6:	0020      	movs	r0, r4
100090a8:	3028      	adds	r0, #40	; 0x28
100090aa:	4440      	add	r0, r8
100090ac:	3004      	adds	r0, #4
100090ae:	2301      	movs	r3, #1
100090b0:	9300      	str	r3, [sp, #0]
100090b2:	003a      	movs	r2, r7
100090b4:	f000 fca0 	bl	100099f8 <tu_fifo_config>
100090b8:	2392      	movs	r3, #146	; 0x92
100090ba:	009b      	lsls	r3, r3, #2
100090bc:	18e7      	adds	r7, r4, r3
100090be:	4447      	add	r7, r8
100090c0:	0038      	movs	r0, r7
100090c2:	f7fb fb31 	bl	10004728 <mutex_init>
100090c6:	464b      	mov	r3, r9
100090c8:	626b      	str	r3, [r5, #36]	; 0x24
100090ca:	62af      	str	r7, [r5, #40]	; 0x28
100090cc:	2394      	movs	r3, #148	; 0x94
100090ce:	009b      	lsls	r3, r3, #2
100090d0:	469c      	mov	ip, r3
100090d2:	4464      	add	r4, ip
100090d4:	4444      	add	r4, r8
100090d6:	0020      	movs	r0, r4
100090d8:	f7fb fb26 	bl	10004728 <mutex_init>
100090dc:	642c      	str	r4, [r5, #64]	; 0x40
100090de:	464b      	mov	r3, r9
100090e0:	646b      	str	r3, [r5, #68]	; 0x44
100090e2:	3601      	adds	r6, #1
100090e4:	b2f6      	uxtb	r6, r6
100090e6:	e7b3      	b.n	10009050 <cdcd_init+0x18>
100090e8:	20008638 	.word	0x20008638
100090ec:	ffffc200 	.word	0xffffc200

100090f0 <cdcd_reset>:
100090f0:	b570      	push	{r4, r5, r6, lr}
100090f2:	2500      	movs	r5, #0
100090f4:	2d00      	cmp	r5, #0
100090f6:	d000      	beq.n	100090fa <cdcd_reset+0xa>
100090f8:	bd70      	pop	{r4, r5, r6, pc}
100090fa:	24b6      	movs	r4, #182	; 0xb6
100090fc:	00a4      	lsls	r4, r4, #2
100090fe:	436c      	muls	r4, r5
10009100:	4e0b      	ldr	r6, [pc, #44]	; (10009130 <cdcd_reset+0x40>)
10009102:	19a0      	adds	r0, r4, r6
10009104:	2205      	movs	r2, #5
10009106:	2100      	movs	r1, #0
10009108:	f7fd fdfc 	bl	10006d04 <__wrap_memset>
1000910c:	0020      	movs	r0, r4
1000910e:	3010      	adds	r0, #16
10009110:	1980      	adds	r0, r0, r6
10009112:	f000 fd34 	bl	10009b7e <tu_fifo_clear>
10009116:	3428      	adds	r4, #40	; 0x28
10009118:	19a4      	adds	r4, r4, r6
1000911a:	3404      	adds	r4, #4
1000911c:	0020      	movs	r0, r4
1000911e:	f000 fd2e 	bl	10009b7e <tu_fifo_clear>
10009122:	2101      	movs	r1, #1
10009124:	0020      	movs	r0, r4
10009126:	f000 fd50 	bl	10009bca <tu_fifo_set_overwritable>
1000912a:	3501      	adds	r5, #1
1000912c:	b2ed      	uxtb	r5, r5
1000912e:	e7e1      	b.n	100090f4 <cdcd_reset+0x4>
10009130:	20008638 	.word	0x20008638

10009134 <cdcd_open>:
10009134:	b5f0      	push	{r4, r5, r6, r7, lr}
10009136:	b083      	sub	sp, #12
10009138:	0005      	movs	r5, r0
1000913a:	794b      	ldrb	r3, [r1, #5]
1000913c:	2b02      	cmp	r3, #2
1000913e:	d168      	bne.n	10009212 <cdcd_open+0xde>
10009140:	798b      	ldrb	r3, [r1, #6]
10009142:	2b02      	cmp	r3, #2
10009144:	d169      	bne.n	1000921a <cdcd_open+0xe6>
10009146:	2300      	movs	r3, #0
10009148:	2b00      	cmp	r3, #0
1000914a:	d011      	beq.n	10009170 <cdcd_open+0x3c>
1000914c:	2700      	movs	r7, #0
1000914e:	2f00      	cmp	r7, #0
10009150:	d01c      	beq.n	1000918c <cdcd_open+0x58>
10009152:	788b      	ldrb	r3, [r1, #2]
10009154:	703b      	strb	r3, [r7, #0]
10009156:	780e      	ldrb	r6, [r1, #0]
10009158:	198e      	adds	r6, r1, r6
1000915a:	2409      	movs	r4, #9
1000915c:	7873      	ldrb	r3, [r6, #1]
1000915e:	2b24      	cmp	r3, #36	; 0x24
10009160:	d11c      	bne.n	1000919c <cdcd_open+0x68>
10009162:	4294      	cmp	r4, r2
10009164:	d81a      	bhi.n	1000919c <cdcd_open+0x68>
10009166:	7833      	ldrb	r3, [r6, #0]
10009168:	191c      	adds	r4, r3, r4
1000916a:	b2a4      	uxth	r4, r4
1000916c:	18f6      	adds	r6, r6, r3
1000916e:	e7f5      	b.n	1000915c <cdcd_open+0x28>
10009170:	24b6      	movs	r4, #182	; 0xb6
10009172:	00a4      	lsls	r4, r4, #2
10009174:	435c      	muls	r4, r3
10009176:	482a      	ldr	r0, [pc, #168]	; (10009220 <cdcd_open+0xec>)
10009178:	1900      	adds	r0, r0, r4
1000917a:	7880      	ldrb	r0, [r0, #2]
1000917c:	2800      	cmp	r0, #0
1000917e:	d002      	beq.n	10009186 <cdcd_open+0x52>
10009180:	3301      	adds	r3, #1
10009182:	b2db      	uxtb	r3, r3
10009184:	e7e0      	b.n	10009148 <cdcd_open+0x14>
10009186:	4f26      	ldr	r7, [pc, #152]	; (10009220 <cdcd_open+0xec>)
10009188:	19e7      	adds	r7, r4, r7
1000918a:	e7e0      	b.n	1000914e <cdcd_open+0x1a>
1000918c:	228f      	movs	r2, #143	; 0x8f
1000918e:	0052      	lsls	r2, r2, #1
10009190:	4924      	ldr	r1, [pc, #144]	; (10009224 <cdcd_open+0xf0>)
10009192:	4825      	ldr	r0, [pc, #148]	; (10009228 <cdcd_open+0xf4>)
10009194:	f7fd ff4a 	bl	1000702c <__wrap_printf>
10009198:	2400      	movs	r4, #0
1000919a:	e03b      	b.n	10009214 <cdcd_open+0xe0>
1000919c:	2b05      	cmp	r3, #5
1000919e:	d009      	beq.n	100091b4 <cdcd_open+0x80>
100091a0:	7873      	ldrb	r3, [r6, #1]
100091a2:	2b04      	cmp	r3, #4
100091a4:	d102      	bne.n	100091ac <cdcd_open+0x78>
100091a6:	7973      	ldrb	r3, [r6, #5]
100091a8:	2b0a      	cmp	r3, #10
100091aa:	d018      	beq.n	100091de <cdcd_open+0xaa>
100091ac:	0038      	movs	r0, r7
100091ae:	f7ff fe4d 	bl	10008e4c <_prep_out_transaction>
100091b2:	e02f      	b.n	10009214 <cdcd_open+0xe0>
100091b4:	0031      	movs	r1, r6
100091b6:	0028      	movs	r0, r5
100091b8:	f7ff f8b0 	bl	1000831c <usbd_edpt_open>
100091bc:	2800      	cmp	r0, #0
100091be:	d006      	beq.n	100091ce <cdcd_open+0x9a>
100091c0:	78b3      	ldrb	r3, [r6, #2]
100091c2:	707b      	strb	r3, [r7, #1]
100091c4:	7833      	ldrb	r3, [r6, #0]
100091c6:	191c      	adds	r4, r3, r4
100091c8:	b2a4      	uxth	r4, r4
100091ca:	18f6      	adds	r6, r6, r3
100091cc:	e7e8      	b.n	100091a0 <cdcd_open+0x6c>
100091ce:	2299      	movs	r2, #153	; 0x99
100091d0:	0052      	lsls	r2, r2, #1
100091d2:	4914      	ldr	r1, [pc, #80]	; (10009224 <cdcd_open+0xf0>)
100091d4:	4814      	ldr	r0, [pc, #80]	; (10009228 <cdcd_open+0xf4>)
100091d6:	f7fd ff29 	bl	1000702c <__wrap_printf>
100091da:	2400      	movs	r4, #0
100091dc:	e01a      	b.n	10009214 <cdcd_open+0xe0>
100091de:	7831      	ldrb	r1, [r6, #0]
100091e0:	190c      	adds	r4, r1, r4
100091e2:	b2a4      	uxth	r4, r4
100091e4:	1871      	adds	r1, r6, r1
100091e6:	1cbb      	adds	r3, r7, #2
100091e8:	9301      	str	r3, [sp, #4]
100091ea:	1cfb      	adds	r3, r7, #3
100091ec:	9300      	str	r3, [sp, #0]
100091ee:	2302      	movs	r3, #2
100091f0:	2202      	movs	r2, #2
100091f2:	0028      	movs	r0, r5
100091f4:	f7ff f8be 	bl	10008374 <usbd_open_edpt_pair>
100091f8:	2800      	cmp	r0, #0
100091fa:	d002      	beq.n	10009202 <cdcd_open+0xce>
100091fc:	340e      	adds	r4, #14
100091fe:	b2a4      	uxth	r4, r4
10009200:	e7d4      	b.n	100091ac <cdcd_open+0x78>
10009202:	22a1      	movs	r2, #161	; 0xa1
10009204:	0052      	lsls	r2, r2, #1
10009206:	4907      	ldr	r1, [pc, #28]	; (10009224 <cdcd_open+0xf0>)
10009208:	4807      	ldr	r0, [pc, #28]	; (10009228 <cdcd_open+0xf4>)
1000920a:	f7fd ff0f 	bl	1000702c <__wrap_printf>
1000920e:	2400      	movs	r4, #0
10009210:	e000      	b.n	10009214 <cdcd_open+0xe0>
10009212:	2400      	movs	r4, #0
10009214:	0020      	movs	r0, r4
10009216:	b003      	add	sp, #12
10009218:	bdf0      	pop	{r4, r5, r6, r7, pc}
1000921a:	2400      	movs	r4, #0
1000921c:	e7fa      	b.n	10009214 <cdcd_open+0xe0>
1000921e:	46c0      	nop			; (mov r8, r8)
10009220:	20008638 	.word	0x20008638
10009224:	1000c070 	.word	0x1000c070
10009228:	1000c014 	.word	0x1000c014

1000922c <cdcd_control_xfer_cb>:
1000922c:	b5f8      	push	{r3, r4, r5, r6, r7, lr}
1000922e:	0015      	movs	r5, r2
10009230:	7812      	ldrb	r2, [r2, #0]
10009232:	2360      	movs	r3, #96	; 0x60
10009234:	4013      	ands	r3, r2
10009236:	2b20      	cmp	r3, #32
10009238:	d000      	beq.n	1000923c <cdcd_control_xfer_cb+0x10>
1000923a:	e07f      	b.n	1000933c <cdcd_control_xfer_cb+0x110>
1000923c:	4a44      	ldr	r2, [pc, #272]	; (10009350 <cdcd_control_xfer_cb+0x124>)
1000923e:	2400      	movs	r4, #0
10009240:	2c00      	cmp	r4, #0
10009242:	d000      	beq.n	10009246 <cdcd_control_xfer_cb+0x1a>
10009244:	e07c      	b.n	10009340 <cdcd_control_xfer_cb+0x114>
10009246:	7816      	ldrb	r6, [r2, #0]
10009248:	792f      	ldrb	r7, [r5, #4]
1000924a:	796b      	ldrb	r3, [r5, #5]
1000924c:	021b      	lsls	r3, r3, #8
1000924e:	433b      	orrs	r3, r7
10009250:	429e      	cmp	r6, r3
10009252:	d006      	beq.n	10009262 <cdcd_control_xfer_cb+0x36>
10009254:	3401      	adds	r4, #1
10009256:	b2e4      	uxtb	r4, r4
10009258:	23b6      	movs	r3, #182	; 0xb6
1000925a:	009b      	lsls	r3, r3, #2
1000925c:	469c      	mov	ip, r3
1000925e:	4462      	add	r2, ip
10009260:	e7ee      	b.n	10009240 <cdcd_control_xfer_cb+0x14>
10009262:	786b      	ldrb	r3, [r5, #1]
10009264:	2b21      	cmp	r3, #33	; 0x21
10009266:	d026      	beq.n	100092b6 <cdcd_control_xfer_cb+0x8a>
10009268:	d909      	bls.n	1000927e <cdcd_control_xfer_cb+0x52>
1000926a:	2b22      	cmp	r3, #34	; 0x22
1000926c:	d02e      	beq.n	100092cc <cdcd_control_xfer_cb+0xa0>
1000926e:	2b23      	cmp	r3, #35	; 0x23
10009270:	d10f      	bne.n	10009292 <cdcd_control_xfer_cb+0x66>
10009272:	2900      	cmp	r1, #0
10009274:	d051      	beq.n	1000931a <cdcd_control_xfer_cb+0xee>
10009276:	2902      	cmp	r1, #2
10009278:	d054      	beq.n	10009324 <cdcd_control_xfer_cb+0xf8>
1000927a:	2001      	movs	r0, #1
1000927c:	e05f      	b.n	1000933e <cdcd_control_xfer_cb+0x112>
1000927e:	2b20      	cmp	r3, #32
10009280:	d105      	bne.n	1000928e <cdcd_control_xfer_cb+0x62>
10009282:	2900      	cmp	r1, #0
10009284:	d007      	beq.n	10009296 <cdcd_control_xfer_cb+0x6a>
10009286:	2902      	cmp	r1, #2
10009288:	d00c      	beq.n	100092a4 <cdcd_control_xfer_cb+0x78>
1000928a:	2001      	movs	r0, #1
1000928c:	e057      	b.n	1000933e <cdcd_control_xfer_cb+0x112>
1000928e:	2000      	movs	r0, #0
10009290:	e055      	b.n	1000933e <cdcd_control_xfer_cb+0x112>
10009292:	2000      	movs	r0, #0
10009294:	e053      	b.n	1000933e <cdcd_control_xfer_cb+0x112>
10009296:	3206      	adds	r2, #6
10009298:	2307      	movs	r3, #7
1000929a:	0029      	movs	r1, r5
1000929c:	f7ff fce8 	bl	10008c70 <tud_control_xfer>
100092a0:	2001      	movs	r0, #1
100092a2:	e04c      	b.n	1000933e <cdcd_control_xfer_cb+0x112>
100092a4:	4b2b      	ldr	r3, [pc, #172]	; (10009354 <cdcd_control_xfer_cb+0x128>)
100092a6:	2b00      	cmp	r3, #0
100092a8:	d04c      	beq.n	10009344 <cdcd_control_xfer_cb+0x118>
100092aa:	1d91      	adds	r1, r2, #6
100092ac:	0020      	movs	r0, r4
100092ae:	f7fd ff6d 	bl	1000718c <tud_cdc_line_coding_cb>
100092b2:	2001      	movs	r0, #1
100092b4:	e043      	b.n	1000933e <cdcd_control_xfer_cb+0x112>
100092b6:	2900      	cmp	r1, #0
100092b8:	d001      	beq.n	100092be <cdcd_control_xfer_cb+0x92>
100092ba:	2001      	movs	r0, #1
100092bc:	e03f      	b.n	1000933e <cdcd_control_xfer_cb+0x112>
100092be:	3206      	adds	r2, #6
100092c0:	2307      	movs	r3, #7
100092c2:	0029      	movs	r1, r5
100092c4:	f7ff fcd4 	bl	10008c70 <tud_control_xfer>
100092c8:	2001      	movs	r0, #1
100092ca:	e038      	b.n	1000933e <cdcd_control_xfer_cb+0x112>
100092cc:	2900      	cmp	r1, #0
100092ce:	d003      	beq.n	100092d8 <cdcd_control_xfer_cb+0xac>
100092d0:	2902      	cmp	r1, #2
100092d2:	d006      	beq.n	100092e2 <cdcd_control_xfer_cb+0xb6>
100092d4:	2001      	movs	r0, #1
100092d6:	e032      	b.n	1000933e <cdcd_control_xfer_cb+0x112>
100092d8:	0029      	movs	r1, r5
100092da:	f7ff fcad 	bl	10008c38 <tud_control_status>
100092de:	2001      	movs	r0, #1
100092e0:	e02d      	b.n	1000933e <cdcd_control_xfer_cb+0x112>
100092e2:	78a9      	ldrb	r1, [r5, #2]
100092e4:	78eb      	ldrb	r3, [r5, #3]
100092e6:	021b      	lsls	r3, r3, #8
100092e8:	430b      	orrs	r3, r1
100092ea:	2001      	movs	r0, #1
100092ec:	0019      	movs	r1, r3
100092ee:	4001      	ands	r1, r0
100092f0:	000d      	movs	r5, r1
100092f2:	085e      	lsrs	r6, r3, #1
100092f4:	4006      	ands	r6, r0
100092f6:	7113      	strb	r3, [r2, #4]
100092f8:	424b      	negs	r3, r1
100092fa:	4159      	adcs	r1, r3
100092fc:	b2c9      	uxtb	r1, r1
100092fe:	322c      	adds	r2, #44	; 0x2c
10009300:	0010      	movs	r0, r2
10009302:	f000 fc62 	bl	10009bca <tu_fifo_set_overwritable>
10009306:	4b14      	ldr	r3, [pc, #80]	; (10009358 <cdcd_control_xfer_cb+0x12c>)
10009308:	2b00      	cmp	r3, #0
1000930a:	d01d      	beq.n	10009348 <cdcd_control_xfer_cb+0x11c>
1000930c:	0032      	movs	r2, r6
1000930e:	0029      	movs	r1, r5
10009310:	0020      	movs	r0, r4
10009312:	e000      	b.n	10009316 <cdcd_control_xfer_cb+0xea>
10009314:	bf00      	nop
10009316:	2001      	movs	r0, #1
10009318:	e011      	b.n	1000933e <cdcd_control_xfer_cb+0x112>
1000931a:	0029      	movs	r1, r5
1000931c:	f7ff fc8c 	bl	10008c38 <tud_control_status>
10009320:	2001      	movs	r0, #1
10009322:	e00c      	b.n	1000933e <cdcd_control_xfer_cb+0x112>
10009324:	4b0d      	ldr	r3, [pc, #52]	; (1000935c <cdcd_control_xfer_cb+0x130>)
10009326:	2b00      	cmp	r3, #0
10009328:	d010      	beq.n	1000934c <cdcd_control_xfer_cb+0x120>
1000932a:	78ab      	ldrb	r3, [r5, #2]
1000932c:	78e9      	ldrb	r1, [r5, #3]
1000932e:	0209      	lsls	r1, r1, #8
10009330:	4319      	orrs	r1, r3
10009332:	0020      	movs	r0, r4
10009334:	e000      	b.n	10009338 <cdcd_control_xfer_cb+0x10c>
10009336:	bf00      	nop
10009338:	2001      	movs	r0, #1
1000933a:	e000      	b.n	1000933e <cdcd_control_xfer_cb+0x112>
1000933c:	2000      	movs	r0, #0
1000933e:	bdf8      	pop	{r3, r4, r5, r6, r7, pc}
10009340:	2000      	movs	r0, #0
10009342:	e7fc      	b.n	1000933e <cdcd_control_xfer_cb+0x112>
10009344:	2001      	movs	r0, #1
10009346:	e7fa      	b.n	1000933e <cdcd_control_xfer_cb+0x112>
10009348:	2001      	movs	r0, #1
1000934a:	e7f8      	b.n	1000933e <cdcd_control_xfer_cb+0x112>
1000934c:	2001      	movs	r0, #1
1000934e:	e7f6      	b.n	1000933e <cdcd_control_xfer_cb+0x112>
10009350:	20008638 	.word	0x20008638
10009354:	1000718d 	.word	0x1000718d
	...

10009360 <cdcd_xfer_cb>:
10009360:	b5f0      	push	{r4, r5, r6, r7, lr}
10009362:	b085      	sub	sp, #20
10009364:	9002      	str	r0, [sp, #8]
10009366:	000f      	movs	r7, r1
10009368:	9301      	str	r3, [sp, #4]
1000936a:	2400      	movs	r4, #0
1000936c:	2c00      	cmp	r4, #0
1000936e:	d00b      	beq.n	10009388 <cdcd_xfer_cb+0x28>
10009370:	2c00      	cmp	r4, #0
10009372:	d117      	bne.n	100093a4 <cdcd_xfer_cb+0x44>
10009374:	78f3      	ldrb	r3, [r6, #3]
10009376:	42bb      	cmp	r3, r7
10009378:	d01c      	beq.n	100093b4 <cdcd_xfer_cb+0x54>
1000937a:	78b3      	ldrb	r3, [r6, #2]
1000937c:	42bb      	cmp	r3, r7
1000937e:	d054      	beq.n	1000942a <cdcd_xfer_cb+0xca>
10009380:	2401      	movs	r4, #1
10009382:	0020      	movs	r0, r4
10009384:	b005      	add	sp, #20
10009386:	bdf0      	pop	{r4, r5, r6, r7, pc}
10009388:	23b6      	movs	r3, #182	; 0xb6
1000938a:	009b      	lsls	r3, r3, #2
1000938c:	4363      	muls	r3, r4
1000938e:	4e3d      	ldr	r6, [pc, #244]	; (10009484 <cdcd_xfer_cb+0x124>)
10009390:	199e      	adds	r6, r3, r6
10009392:	78f3      	ldrb	r3, [r6, #3]
10009394:	42bb      	cmp	r3, r7
10009396:	d0eb      	beq.n	10009370 <cdcd_xfer_cb+0x10>
10009398:	78b3      	ldrb	r3, [r6, #2]
1000939a:	42bb      	cmp	r3, r7
1000939c:	d0e8      	beq.n	10009370 <cdcd_xfer_cb+0x10>
1000939e:	3401      	adds	r4, #1
100093a0:	b2e4      	uxtb	r4, r4
100093a2:	e7e3      	b.n	1000936c <cdcd_xfer_cb+0xc>
100093a4:	22b0      	movs	r2, #176	; 0xb0
100093a6:	32ff      	adds	r2, #255	; 0xff
100093a8:	4937      	ldr	r1, [pc, #220]	; (10009488 <cdcd_xfer_cb+0x128>)
100093aa:	4838      	ldr	r0, [pc, #224]	; (1000948c <cdcd_xfer_cb+0x12c>)
100093ac:	f7fd fe3e 	bl	1000702c <__wrap_printf>
100093b0:	2400      	movs	r4, #0
100093b2:	e7e6      	b.n	10009382 <cdcd_xfer_cb+0x22>
100093b4:	2310      	movs	r3, #16
100093b6:	469c      	mov	ip, r3
100093b8:	44b4      	add	ip, r6
100093ba:	4660      	mov	r0, ip
100093bc:	9003      	str	r0, [sp, #12]
100093be:	2396      	movs	r3, #150	; 0x96
100093c0:	009b      	lsls	r3, r3, #2
100093c2:	18f1      	adds	r1, r6, r3
100093c4:	466b      	mov	r3, sp
100093c6:	889a      	ldrh	r2, [r3, #4]
100093c8:	f000 fbd4 	bl	10009b74 <tu_fifo_write_n>
100093cc:	4b30      	ldr	r3, [pc, #192]	; (10009490 <cdcd_xfer_cb+0x130>)
100093ce:	2b00      	cmp	r3, #0
100093d0:	d01b      	beq.n	1000940a <cdcd_xfer_cb+0xaa>
100093d2:	7973      	ldrb	r3, [r6, #5]
100093d4:	2bff      	cmp	r3, #255	; 0xff
100093d6:	d018      	beq.n	1000940a <cdcd_xfer_cb+0xaa>
100093d8:	2500      	movs	r5, #0
100093da:	e000      	b.n	100093de <cdcd_xfer_cb+0x7e>
100093dc:	3501      	adds	r5, #1
100093de:	9b01      	ldr	r3, [sp, #4]
100093e0:	429d      	cmp	r5, r3
100093e2:	d212      	bcs.n	1000940a <cdcd_xfer_cb+0xaa>
100093e4:	7972      	ldrb	r2, [r6, #5]
100093e6:	1973      	adds	r3, r6, r5
100093e8:	2196      	movs	r1, #150	; 0x96
100093ea:	0089      	lsls	r1, r1, #2
100093ec:	468c      	mov	ip, r1
100093ee:	4463      	add	r3, ip
100093f0:	781b      	ldrb	r3, [r3, #0]
100093f2:	429a      	cmp	r2, r3
100093f4:	d1f2      	bne.n	100093dc <cdcd_xfer_cb+0x7c>
100093f6:	9803      	ldr	r0, [sp, #12]
100093f8:	f000 fb49 	bl	10009a8e <tu_fifo_empty>
100093fc:	2800      	cmp	r0, #0
100093fe:	d1ed      	bne.n	100093dc <cdcd_xfer_cb+0x7c>
10009400:	7971      	ldrb	r1, [r6, #5]
10009402:	0020      	movs	r0, r4
10009404:	e000      	b.n	10009408 <cdcd_xfer_cb+0xa8>
10009406:	bf00      	nop
10009408:	e7e8      	b.n	100093dc <cdcd_xfer_cb+0x7c>
1000940a:	4b22      	ldr	r3, [pc, #136]	; (10009494 <cdcd_xfer_cb+0x134>)
1000940c:	2b00      	cmp	r3, #0
1000940e:	d004      	beq.n	1000941a <cdcd_xfer_cb+0xba>
10009410:	9803      	ldr	r0, [sp, #12]
10009412:	f000 fb3c 	bl	10009a8e <tu_fifo_empty>
10009416:	2800      	cmp	r0, #0
10009418:	d003      	beq.n	10009422 <cdcd_xfer_cb+0xc2>
1000941a:	0030      	movs	r0, r6
1000941c:	f7ff fd16 	bl	10008e4c <_prep_out_transaction>
10009420:	e7ab      	b.n	1000937a <cdcd_xfer_cb+0x1a>
10009422:	0020      	movs	r0, r4
10009424:	e000      	b.n	10009428 <cdcd_xfer_cb+0xc8>
10009426:	bf00      	nop
10009428:	e7f7      	b.n	1000941a <cdcd_xfer_cb+0xba>
1000942a:	4b1b      	ldr	r3, [pc, #108]	; (10009498 <cdcd_xfer_cb+0x138>)
1000942c:	2b00      	cmp	r3, #0
1000942e:	d002      	beq.n	10009436 <cdcd_xfer_cb+0xd6>
10009430:	0020      	movs	r0, r4
10009432:	e000      	b.n	10009436 <cdcd_xfer_cb+0xd6>
10009434:	bf00      	nop
10009436:	0020      	movs	r0, r4
10009438:	f7ff fd6e 	bl	10008f18 <tud_cdc_n_write_flush>
1000943c:	2800      	cmp	r0, #0
1000943e:	d001      	beq.n	10009444 <cdcd_xfer_cb+0xe4>
10009440:	2401      	movs	r4, #1
10009442:	e79e      	b.n	10009382 <cdcd_xfer_cb+0x22>
10009444:	0030      	movs	r0, r6
10009446:	302c      	adds	r0, #44	; 0x2c
10009448:	f000 fb0f 	bl	10009a6a <tu_fifo_count>
1000944c:	2800      	cmp	r0, #0
1000944e:	d115      	bne.n	1000947c <cdcd_xfer_cb+0x11c>
10009450:	9b01      	ldr	r3, [sp, #4]
10009452:	2b00      	cmp	r3, #0
10009454:	d014      	beq.n	10009480 <cdcd_xfer_cb+0x120>
10009456:	069b      	lsls	r3, r3, #26
10009458:	d001      	beq.n	1000945e <cdcd_xfer_cb+0xfe>
1000945a:	2401      	movs	r4, #1
1000945c:	e791      	b.n	10009382 <cdcd_xfer_cb+0x22>
1000945e:	78b1      	ldrb	r1, [r6, #2]
10009460:	9802      	ldr	r0, [sp, #8]
10009462:	f7fe ffcd 	bl	10008400 <usbd_edpt_claim>
10009466:	1e04      	subs	r4, r0, #0
10009468:	d101      	bne.n	1000946e <cdcd_xfer_cb+0x10e>
1000946a:	2401      	movs	r4, #1
1000946c:	e789      	b.n	10009382 <cdcd_xfer_cb+0x22>
1000946e:	78b1      	ldrb	r1, [r6, #2]
10009470:	2300      	movs	r3, #0
10009472:	2200      	movs	r2, #0
10009474:	9802      	ldr	r0, [sp, #8]
10009476:	f7ff f83b 	bl	100084f0 <usbd_edpt_xfer>
1000947a:	e782      	b.n	10009382 <cdcd_xfer_cb+0x22>
1000947c:	2401      	movs	r4, #1
1000947e:	e780      	b.n	10009382 <cdcd_xfer_cb+0x22>
10009480:	2401      	movs	r4, #1
10009482:	e77e      	b.n	10009382 <cdcd_xfer_cb+0x22>
10009484:	20008638 	.word	0x20008638
10009488:	1000c07c 	.word	0x1000c07c
1000948c:	1000c014 	.word	0x1000c014
	...

1000949c <tusb_init>:
1000949c:	b510      	push	{r4, lr}
1000949e:	2000      	movs	r0, #0
100094a0:	f7fe fd7e 	bl	10007fa0 <tud_init>
100094a4:	1e04      	subs	r4, r0, #0
100094a6:	d001      	beq.n	100094ac <tusb_init+0x10>
100094a8:	0020      	movs	r0, r4
100094aa:	bd10      	pop	{r4, pc}
100094ac:	2229      	movs	r2, #41	; 0x29
100094ae:	4902      	ldr	r1, [pc, #8]	; (100094b8 <tusb_init+0x1c>)
100094b0:	4802      	ldr	r0, [pc, #8]	; (100094bc <tusb_init+0x20>)
100094b2:	f7fd fdbb 	bl	1000702c <__wrap_printf>
100094b6:	e7f7      	b.n	100094a8 <tusb_init+0xc>
100094b8:	1000c08c 	.word	0x1000c08c
100094bc:	1000c014 	.word	0x1000c014

100094c0 <tusb_inited>:
100094c0:	b510      	push	{r4, lr}
100094c2:	f7fe fd67 	bl	10007f94 <tud_inited>
100094c6:	2800      	cmp	r0, #0
100094c8:	d000      	beq.n	100094cc <tusb_inited+0xc>
100094ca:	2001      	movs	r0, #1
100094cc:	bd10      	pop	{r4, pc}
	...

100094d0 <tu_edpt_validate>:
100094d0:	b510      	push	{r4, lr}
100094d2:	7902      	ldrb	r2, [r0, #4]
100094d4:	7944      	ldrb	r4, [r0, #5]
100094d6:	2307      	movs	r3, #7
100094d8:	4023      	ands	r3, r4
100094da:	021b      	lsls	r3, r3, #8
100094dc:	431a      	orrs	r2, r3
100094de:	78c3      	ldrb	r3, [r0, #3]
100094e0:	079b      	lsls	r3, r3, #30
100094e2:	0f9b      	lsrs	r3, r3, #30
100094e4:	2b02      	cmp	r3, #2
100094e6:	d013      	beq.n	10009510 <tu_edpt_validate+0x40>
100094e8:	d82c      	bhi.n	10009544 <tu_edpt_validate+0x74>
100094ea:	2b01      	cmp	r3, #1
100094ec:	d13b      	bne.n	10009566 <tu_edpt_validate+0x96>
100094ee:	2902      	cmp	r1, #2
100094f0:	d004      	beq.n	100094fc <tu_edpt_validate+0x2c>
100094f2:	4b1e      	ldr	r3, [pc, #120]	; (1000956c <tu_edpt_validate+0x9c>)
100094f4:	4293      	cmp	r3, r2
100094f6:	d304      	bcc.n	10009502 <tu_edpt_validate+0x32>
100094f8:	2001      	movs	r0, #1
100094fa:	e035      	b.n	10009568 <tu_edpt_validate+0x98>
100094fc:	2380      	movs	r3, #128	; 0x80
100094fe:	00db      	lsls	r3, r3, #3
10009500:	e7f8      	b.n	100094f4 <tu_edpt_validate+0x24>
10009502:	2250      	movs	r2, #80	; 0x50
10009504:	491a      	ldr	r1, [pc, #104]	; (10009570 <tu_edpt_validate+0xa0>)
10009506:	481b      	ldr	r0, [pc, #108]	; (10009574 <tu_edpt_validate+0xa4>)
10009508:	f7fd fd90 	bl	1000702c <__wrap_printf>
1000950c:	2000      	movs	r0, #0
1000950e:	e02b      	b.n	10009568 <tu_edpt_validate+0x98>
10009510:	2902      	cmp	r1, #2
10009512:	d003      	beq.n	1000951c <tu_edpt_validate+0x4c>
10009514:	2a40      	cmp	r2, #64	; 0x40
10009516:	d80e      	bhi.n	10009536 <tu_edpt_validate+0x66>
10009518:	2001      	movs	r0, #1
1000951a:	e025      	b.n	10009568 <tu_edpt_validate+0x98>
1000951c:	2380      	movs	r3, #128	; 0x80
1000951e:	009b      	lsls	r3, r3, #2
10009520:	429a      	cmp	r2, r3
10009522:	d101      	bne.n	10009528 <tu_edpt_validate+0x58>
10009524:	2001      	movs	r0, #1
10009526:	e01f      	b.n	10009568 <tu_edpt_validate+0x98>
10009528:	2258      	movs	r2, #88	; 0x58
1000952a:	4911      	ldr	r1, [pc, #68]	; (10009570 <tu_edpt_validate+0xa0>)
1000952c:	4811      	ldr	r0, [pc, #68]	; (10009574 <tu_edpt_validate+0xa4>)
1000952e:	f7fd fd7d 	bl	1000702c <__wrap_printf>
10009532:	2000      	movs	r0, #0
10009534:	e018      	b.n	10009568 <tu_edpt_validate+0x98>
10009536:	225c      	movs	r2, #92	; 0x5c
10009538:	490d      	ldr	r1, [pc, #52]	; (10009570 <tu_edpt_validate+0xa0>)
1000953a:	480e      	ldr	r0, [pc, #56]	; (10009574 <tu_edpt_validate+0xa4>)
1000953c:	f7fd fd76 	bl	1000702c <__wrap_printf>
10009540:	2000      	movs	r0, #0
10009542:	e011      	b.n	10009568 <tu_edpt_validate+0x98>
10009544:	2902      	cmp	r1, #2
10009546:	d004      	beq.n	10009552 <tu_edpt_validate+0x82>
10009548:	2340      	movs	r3, #64	; 0x40
1000954a:	4293      	cmp	r3, r2
1000954c:	d304      	bcc.n	10009558 <tu_edpt_validate+0x88>
1000954e:	2001      	movs	r0, #1
10009550:	e00a      	b.n	10009568 <tu_edpt_validate+0x98>
10009552:	2380      	movs	r3, #128	; 0x80
10009554:	00db      	lsls	r3, r3, #3
10009556:	e7f8      	b.n	1000954a <tu_edpt_validate+0x7a>
10009558:	2263      	movs	r2, #99	; 0x63
1000955a:	4905      	ldr	r1, [pc, #20]	; (10009570 <tu_edpt_validate+0xa0>)
1000955c:	4805      	ldr	r0, [pc, #20]	; (10009574 <tu_edpt_validate+0xa4>)
1000955e:	f7fd fd65 	bl	1000702c <__wrap_printf>
10009562:	2000      	movs	r0, #0
10009564:	e000      	b.n	10009568 <tu_edpt_validate+0x98>
10009566:	2000      	movs	r0, #0
10009568:	bd10      	pop	{r4, pc}
1000956a:	46c0      	nop			; (mov r8, r8)
1000956c:	000003ff 	.word	0x000003ff
10009570:	1000c098 	.word	0x1000c098
10009574:	1000c014 	.word	0x1000c014

10009578 <tu_edpt_bind_driver>:
10009578:	b570      	push	{r4, r5, r6, lr}
1000957a:	2400      	movs	r4, #0
1000957c:	e003      	b.n	10009586 <tu_edpt_bind_driver+0xe>
1000957e:	780d      	ldrb	r5, [r1, #0]
10009580:	192c      	adds	r4, r5, r4
10009582:	b2a4      	uxth	r4, r4
10009584:	1949      	adds	r1, r1, r5
10009586:	4294      	cmp	r4, r2
10009588:	d20a      	bcs.n	100095a0 <tu_edpt_bind_driver+0x28>
1000958a:	784d      	ldrb	r5, [r1, #1]
1000958c:	2d05      	cmp	r5, #5
1000958e:	d1f6      	bne.n	1000957e <tu_edpt_bind_driver+0x6>
10009590:	788e      	ldrb	r6, [r1, #2]
10009592:	357a      	adds	r5, #122	; 0x7a
10009594:	4035      	ands	r5, r6
10009596:	006d      	lsls	r5, r5, #1
10009598:	1945      	adds	r5, r0, r5
1000959a:	09f6      	lsrs	r6, r6, #7
1000959c:	55ab      	strb	r3, [r5, r6]
1000959e:	e7ee      	b.n	1000957e <tu_edpt_bind_driver+0x6>
100095a0:	bd70      	pop	{r4, r5, r6, pc}

100095a2 <advance_pointer>:
100095a2:	188a      	adds	r2, r1, r2
100095a4:	b292      	uxth	r2, r2
100095a6:	428a      	cmp	r2, r1
100095a8:	d302      	bcc.n	100095b0 <advance_pointer+0xe>
100095aa:	8983      	ldrh	r3, [r0, #12]
100095ac:	429a      	cmp	r2, r3
100095ae:	d902      	bls.n	100095b6 <advance_pointer+0x14>
100095b0:	8940      	ldrh	r0, [r0, #10]
100095b2:	1812      	adds	r2, r2, r0
100095b4:	b292      	uxth	r2, r2
100095b6:	0010      	movs	r0, r2
100095b8:	4770      	bx	lr

100095ba <backward_pointer>:
100095ba:	b510      	push	{r4, lr}
100095bc:	0004      	movs	r4, r0
100095be:	428a      	cmp	r2, r1
100095c0:	d804      	bhi.n	100095cc <backward_pointer+0x12>
100095c2:	1a88      	subs	r0, r1, r2
100095c4:	b280      	uxth	r0, r0
100095c6:	89a3      	ldrh	r3, [r4, #12]
100095c8:	4298      	cmp	r0, r3
100095ca:	d904      	bls.n	100095d6 <backward_pointer+0x1c>
100095cc:	1a89      	subs	r1, r1, r2
100095ce:	b289      	uxth	r1, r1
100095d0:	8960      	ldrh	r0, [r4, #10]
100095d2:	1a08      	subs	r0, r1, r0
100095d4:	b280      	uxth	r0, r0
100095d6:	bd10      	pop	{r4, pc}

100095d8 <get_relative_pointer>:
100095d8:	8883      	ldrh	r3, [r0, #4]
100095da:	428b      	cmp	r3, r1
100095dc:	d802      	bhi.n	100095e4 <get_relative_pointer+0xc>
100095de:	1ac9      	subs	r1, r1, r3
100095e0:	b289      	uxth	r1, r1
100095e2:	e7fa      	b.n	100095da <get_relative_pointer+0x2>
100095e4:	0008      	movs	r0, r1
100095e6:	4770      	bx	lr

100095e8 <_tu_fifo_peek>:
100095e8:	b5f8      	push	{r3, r4, r5, r6, r7, lr}
100095ea:	0005      	movs	r5, r0
100095ec:	000c      	movs	r4, r1
100095ee:	0011      	movs	r1, r2
100095f0:	001e      	movs	r6, r3
100095f2:	1ad3      	subs	r3, r2, r3
100095f4:	b29b      	uxth	r3, r3
100095f6:	42b2      	cmp	r2, r6
100095f8:	d202      	bcs.n	10009600 <_tu_fifo_peek+0x18>
100095fa:	8942      	ldrh	r2, [r0, #10]
100095fc:	1a9b      	subs	r3, r3, r2
100095fe:	b29b      	uxth	r3, r3
10009600:	88af      	ldrh	r7, [r5, #4]
10009602:	429f      	cmp	r7, r3
10009604:	d205      	bcs.n	10009612 <_tu_fifo_peek+0x2a>
10009606:	003a      	movs	r2, r7
10009608:	0028      	movs	r0, r5
1000960a:	f7ff ffd6 	bl	100095ba <backward_pointer>
1000960e:	8228      	strh	r0, [r5, #16]
10009610:	003b      	movs	r3, r7
10009612:	2b00      	cmp	r3, #0
10009614:	d101      	bne.n	1000961a <_tu_fifo_peek+0x32>
10009616:	2000      	movs	r0, #0
10009618:	bdf8      	pop	{r3, r4, r5, r6, r7, pc}
1000961a:	0031      	movs	r1, r6
1000961c:	0028      	movs	r0, r5
1000961e:	f7ff ffdb 	bl	100095d8 <get_relative_pointer>
10009622:	6829      	ldr	r1, [r5, #0]
10009624:	88ea      	ldrh	r2, [r5, #6]
10009626:	4350      	muls	r0, r2
10009628:	1809      	adds	r1, r1, r0
1000962a:	0020      	movs	r0, r4
1000962c:	f7fd fb70 	bl	10006d10 <__wrap___aeabi_memcpy>
10009630:	2001      	movs	r0, #1
10009632:	e7f1      	b.n	10009618 <_tu_fifo_peek+0x30>

10009634 <_ff_pull_const_addr>:
10009634:	b530      	push	{r4, r5, lr}
10009636:	b083      	sub	sp, #12
10009638:	0004      	movs	r4, r0
1000963a:	0893      	lsrs	r3, r2, #2
1000963c:	1e5d      	subs	r5, r3, #1
1000963e:	b2ad      	uxth	r5, r5
10009640:	2b00      	cmp	r3, #0
10009642:	d00d      	beq.n	10009660 <_ff_pull_const_addr+0x2c>
10009644:	780b      	ldrb	r3, [r1, #0]
10009646:	7848      	ldrb	r0, [r1, #1]
10009648:	0200      	lsls	r0, r0, #8
1000964a:	4318      	orrs	r0, r3
1000964c:	788b      	ldrb	r3, [r1, #2]
1000964e:	041b      	lsls	r3, r3, #16
10009650:	4318      	orrs	r0, r3
10009652:	78cb      	ldrb	r3, [r1, #3]
10009654:	061b      	lsls	r3, r3, #24
10009656:	4303      	orrs	r3, r0
10009658:	6023      	str	r3, [r4, #0]
1000965a:	3104      	adds	r1, #4
1000965c:	002b      	movs	r3, r5
1000965e:	e7ed      	b.n	1000963c <_ff_pull_const_addr+0x8>
10009660:	3303      	adds	r3, #3
10009662:	401a      	ands	r2, r3
10009664:	d101      	bne.n	1000966a <_ff_pull_const_addr+0x36>
10009666:	b003      	add	sp, #12
10009668:	bd30      	pop	{r4, r5, pc}
1000966a:	2300      	movs	r3, #0
1000966c:	9301      	str	r3, [sp, #4]
1000966e:	a801      	add	r0, sp, #4
10009670:	f7fd fb4e 	bl	10006d10 <__wrap___aeabi_memcpy>
10009674:	9b01      	ldr	r3, [sp, #4]
10009676:	6023      	str	r3, [r4, #0]
10009678:	e7f5      	b.n	10009666 <_ff_pull_const_addr+0x32>

1000967a <_ff_pull_n>:
1000967a:	b5f0      	push	{r4, r5, r6, r7, lr}
1000967c:	46ce      	mov	lr, r9
1000967e:	4647      	mov	r7, r8
10009680:	b580      	push	{r7, lr}
10009682:	b085      	sub	sp, #20
10009684:	0006      	movs	r6, r0
10009686:	9101      	str	r1, [sp, #4]
10009688:	a90c      	add	r1, sp, #48	; 0x30
1000968a:	7808      	ldrb	r0, [r1, #0]
1000968c:	88b4      	ldrh	r4, [r6, #4]
1000968e:	1ae7      	subs	r7, r4, r3
10009690:	b2bf      	uxth	r7, r7
10009692:	1b1c      	subs	r4, r3, r4
10009694:	1914      	adds	r4, r2, r4
10009696:	b2a4      	uxth	r4, r4
10009698:	88f1      	ldrh	r1, [r6, #6]
1000969a:	003d      	movs	r5, r7
1000969c:	434d      	muls	r5, r1
1000969e:	b2ad      	uxth	r5, r5
100096a0:	46a8      	mov	r8, r5
100096a2:	434c      	muls	r4, r1
100096a4:	b2a4      	uxth	r4, r4
100096a6:	434b      	muls	r3, r1
100096a8:	6835      	ldr	r5, [r6, #0]
100096aa:	46a9      	mov	r9, r5
100096ac:	4499      	add	r9, r3
100096ae:	2800      	cmp	r0, #0
100096b0:	d006      	beq.n	100096c0 <_ff_pull_n+0x46>
100096b2:	2801      	cmp	r0, #1
100096b4:	d019      	beq.n	100096ea <_ff_pull_n+0x70>
100096b6:	b005      	add	sp, #20
100096b8:	bc0c      	pop	{r2, r3}
100096ba:	4690      	mov	r8, r2
100096bc:	4699      	mov	r9, r3
100096be:	bdf0      	pop	{r4, r5, r6, r7, pc}
100096c0:	4297      	cmp	r7, r2
100096c2:	d305      	bcc.n	100096d0 <_ff_pull_n+0x56>
100096c4:	434a      	muls	r2, r1
100096c6:	4649      	mov	r1, r9
100096c8:	9801      	ldr	r0, [sp, #4]
100096ca:	f7fd fb21 	bl	10006d10 <__wrap___aeabi_memcpy>
100096ce:	e7f2      	b.n	100096b6 <_ff_pull_n+0x3c>
100096d0:	4642      	mov	r2, r8
100096d2:	4649      	mov	r1, r9
100096d4:	9d01      	ldr	r5, [sp, #4]
100096d6:	0028      	movs	r0, r5
100096d8:	f7fd fb1a 	bl	10006d10 <__wrap___aeabi_memcpy>
100096dc:	6831      	ldr	r1, [r6, #0]
100096de:	0028      	movs	r0, r5
100096e0:	4440      	add	r0, r8
100096e2:	0022      	movs	r2, r4
100096e4:	f7fd fb14 	bl	10006d10 <__wrap___aeabi_memcpy>
100096e8:	e7e5      	b.n	100096b6 <_ff_pull_n+0x3c>
100096ea:	4297      	cmp	r7, r2
100096ec:	d306      	bcc.n	100096fc <_ff_pull_n+0x82>
100096ee:	434a      	muls	r2, r1
100096f0:	b292      	uxth	r2, r2
100096f2:	4649      	mov	r1, r9
100096f4:	9801      	ldr	r0, [sp, #4]
100096f6:	f7ff ff9d 	bl	10009634 <_ff_pull_const_addr>
100096fa:	e7dc      	b.n	100096b6 <_ff_pull_n+0x3c>
100096fc:	2303      	movs	r3, #3
100096fe:	4647      	mov	r7, r8
10009700:	439f      	bics	r7, r3
10009702:	003a      	movs	r2, r7
10009704:	4649      	mov	r1, r9
10009706:	9801      	ldr	r0, [sp, #4]
10009708:	f7ff ff94 	bl	10009634 <_ff_pull_const_addr>
1000970c:	003b      	movs	r3, r7
1000970e:	444b      	add	r3, r9
10009710:	2003      	movs	r0, #3
10009712:	4642      	mov	r2, r8
10009714:	4010      	ands	r0, r2
10009716:	d028      	beq.n	1000976a <_ff_pull_n+0xf0>
10009718:	2204      	movs	r2, #4
1000971a:	1a12      	subs	r2, r2, r0
1000971c:	b292      	uxth	r2, r2
1000971e:	1c11      	adds	r1, r2, #0
10009720:	42a2      	cmp	r2, r4
10009722:	d900      	bls.n	10009726 <_ff_pull_n+0xac>
10009724:	1c21      	adds	r1, r4, #0
10009726:	b28f      	uxth	r7, r1
10009728:	b2fa      	uxtb	r2, r7
1000972a:	21ff      	movs	r1, #255	; 0xff
1000972c:	4039      	ands	r1, r7
1000972e:	1a64      	subs	r4, r4, r1
10009730:	b2a4      	uxth	r4, r4
10009732:	2100      	movs	r1, #0
10009734:	9103      	str	r1, [sp, #12]
10009736:	af03      	add	r7, sp, #12
10009738:	1e41      	subs	r1, r0, #1
1000973a:	b2c9      	uxtb	r1, r1
1000973c:	2800      	cmp	r0, #0
1000973e:	d005      	beq.n	1000974c <_ff_pull_n+0xd2>
10009740:	7818      	ldrb	r0, [r3, #0]
10009742:	7038      	strb	r0, [r7, #0]
10009744:	3701      	adds	r7, #1
10009746:	0008      	movs	r0, r1
10009748:	3301      	adds	r3, #1
1000974a:	e7f5      	b.n	10009738 <_ff_pull_n+0xbe>
1000974c:	6831      	ldr	r1, [r6, #0]
1000974e:	1e53      	subs	r3, r2, #1
10009750:	b2db      	uxtb	r3, r3
10009752:	2a00      	cmp	r2, #0
10009754:	d005      	beq.n	10009762 <_ff_pull_n+0xe8>
10009756:	780a      	ldrb	r2, [r1, #0]
10009758:	703a      	strb	r2, [r7, #0]
1000975a:	3701      	adds	r7, #1
1000975c:	001a      	movs	r2, r3
1000975e:	3101      	adds	r1, #1
10009760:	e7f5      	b.n	1000974e <_ff_pull_n+0xd4>
10009762:	9b01      	ldr	r3, [sp, #4]
10009764:	9a03      	ldr	r2, [sp, #12]
10009766:	601a      	str	r2, [r3, #0]
10009768:	e000      	b.n	1000976c <_ff_pull_n+0xf2>
1000976a:	6831      	ldr	r1, [r6, #0]
1000976c:	2c00      	cmp	r4, #0
1000976e:	d0a2      	beq.n	100096b6 <_ff_pull_n+0x3c>
10009770:	0022      	movs	r2, r4
10009772:	9801      	ldr	r0, [sp, #4]
10009774:	f7ff ff5e 	bl	10009634 <_ff_pull_const_addr>
10009778:	e79d      	b.n	100096b6 <_ff_pull_n+0x3c>

1000977a <_tu_fifo_peek_n>:
1000977a:	b5f0      	push	{r4, r5, r6, r7, lr}
1000977c:	b085      	sub	sp, #20
1000977e:	0005      	movs	r5, r0
10009780:	9102      	str	r1, [sp, #8]
10009782:	9203      	str	r2, [sp, #12]
10009784:	aa0a      	add	r2, sp, #40	; 0x28
10009786:	8811      	ldrh	r1, [r2, #0]
10009788:	aa0b      	add	r2, sp, #44	; 0x2c
1000978a:	7817      	ldrb	r7, [r2, #0]
1000978c:	1a5c      	subs	r4, r3, r1
1000978e:	b2a4      	uxth	r4, r4
10009790:	428b      	cmp	r3, r1
10009792:	d202      	bcs.n	1000979a <_tu_fifo_peek_n+0x20>
10009794:	8942      	ldrh	r2, [r0, #10]
10009796:	1aa4      	subs	r4, r4, r2
10009798:	b2a4      	uxth	r4, r4
1000979a:	88ae      	ldrh	r6, [r5, #4]
1000979c:	42a6      	cmp	r6, r4
1000979e:	d208      	bcs.n	100097b2 <_tu_fifo_peek_n+0x38>
100097a0:	0032      	movs	r2, r6
100097a2:	0019      	movs	r1, r3
100097a4:	0028      	movs	r0, r5
100097a6:	f7ff ff08 	bl	100095ba <backward_pointer>
100097aa:	8228      	strh	r0, [r5, #16]
100097ac:	8a29      	ldrh	r1, [r5, #16]
100097ae:	b289      	uxth	r1, r1
100097b0:	0034      	movs	r4, r6
100097b2:	2c00      	cmp	r4, #0
100097b4:	d00d      	beq.n	100097d2 <_tu_fifo_peek_n+0x58>
100097b6:	9b03      	ldr	r3, [sp, #12]
100097b8:	429c      	cmp	r4, r3
100097ba:	d300      	bcc.n	100097be <_tu_fifo_peek_n+0x44>
100097bc:	001c      	movs	r4, r3
100097be:	0028      	movs	r0, r5
100097c0:	f7ff ff0a 	bl	100095d8 <get_relative_pointer>
100097c4:	0003      	movs	r3, r0
100097c6:	9700      	str	r7, [sp, #0]
100097c8:	0022      	movs	r2, r4
100097ca:	9902      	ldr	r1, [sp, #8]
100097cc:	0028      	movs	r0, r5
100097ce:	f7ff ff54 	bl	1000967a <_ff_pull_n>
100097d2:	0020      	movs	r0, r4
100097d4:	b005      	add	sp, #20
100097d6:	bdf0      	pop	{r4, r5, r6, r7, pc}

100097d8 <_tu_fifo_read_n>:
100097d8:	b5f0      	push	{r4, r5, r6, r7, lr}
100097da:	b083      	sub	sp, #12
100097dc:	0004      	movs	r4, r0
100097de:	000d      	movs	r5, r1
100097e0:	0016      	movs	r6, r2
100097e2:	001f      	movs	r7, r3
100097e4:	6980      	ldr	r0, [r0, #24]
100097e6:	2800      	cmp	r0, #0
100097e8:	d003      	beq.n	100097f2 <_tu_fifo_read_n+0x1a>
100097ea:	2101      	movs	r1, #1
100097ec:	4249      	negs	r1, r1
100097ee:	f000 fac3 	bl	10009d78 <__mutex_enter_timeout_ms_veneer>
100097f2:	89e3      	ldrh	r3, [r4, #14]
100097f4:	b29b      	uxth	r3, r3
100097f6:	8a22      	ldrh	r2, [r4, #16]
100097f8:	9701      	str	r7, [sp, #4]
100097fa:	9200      	str	r2, [sp, #0]
100097fc:	0032      	movs	r2, r6
100097fe:	0029      	movs	r1, r5
10009800:	0020      	movs	r0, r4
10009802:	f7ff ffba 	bl	1000977a <_tu_fifo_peek_n>
10009806:	0005      	movs	r5, r0
10009808:	8a21      	ldrh	r1, [r4, #16]
1000980a:	b289      	uxth	r1, r1
1000980c:	0002      	movs	r2, r0
1000980e:	0020      	movs	r0, r4
10009810:	f7ff fec7 	bl	100095a2 <advance_pointer>
10009814:	8220      	strh	r0, [r4, #16]
10009816:	69a0      	ldr	r0, [r4, #24]
10009818:	2800      	cmp	r0, #0
1000981a:	d001      	beq.n	10009820 <_tu_fifo_read_n+0x48>
1000981c:	f000 fa8c 	bl	10009d38 <__mutex_exit_veneer>
10009820:	0028      	movs	r0, r5
10009822:	b003      	add	sp, #12
10009824:	bdf0      	pop	{r4, r5, r6, r7, pc}

10009826 <_ff_push_const_addr>:
10009826:	b530      	push	{r4, r5, lr}
10009828:	b083      	sub	sp, #12
1000982a:	0895      	lsrs	r5, r2, #2
1000982c:	1e6c      	subs	r4, r5, #1
1000982e:	b2a4      	uxth	r4, r4
10009830:	2d00      	cmp	r5, #0
10009832:	d00a      	beq.n	1000984a <_ff_push_const_addr+0x24>
10009834:	680b      	ldr	r3, [r1, #0]
10009836:	7003      	strb	r3, [r0, #0]
10009838:	0a1d      	lsrs	r5, r3, #8
1000983a:	7045      	strb	r5, [r0, #1]
1000983c:	0c1d      	lsrs	r5, r3, #16
1000983e:	7085      	strb	r5, [r0, #2]
10009840:	0e1b      	lsrs	r3, r3, #24
10009842:	70c3      	strb	r3, [r0, #3]
10009844:	3004      	adds	r0, #4
10009846:	0025      	movs	r5, r4
10009848:	e7f0      	b.n	1000982c <_ff_push_const_addr+0x6>
1000984a:	2303      	movs	r3, #3
1000984c:	401a      	ands	r2, r3
1000984e:	d101      	bne.n	10009854 <_ff_push_const_addr+0x2e>
10009850:	b003      	add	sp, #12
10009852:	bd30      	pop	{r4, r5, pc}
10009854:	680b      	ldr	r3, [r1, #0]
10009856:	9301      	str	r3, [sp, #4]
10009858:	a901      	add	r1, sp, #4
1000985a:	f7fd fa59 	bl	10006d10 <__wrap___aeabi_memcpy>
1000985e:	e7f7      	b.n	10009850 <_ff_push_const_addr+0x2a>

10009860 <_ff_push_n>:
10009860:	b5f0      	push	{r4, r5, r6, r7, lr}
10009862:	46ce      	mov	lr, r9
10009864:	4647      	mov	r7, r8
10009866:	b580      	push	{r7, lr}
10009868:	b085      	sub	sp, #20
1000986a:	0006      	movs	r6, r0
1000986c:	9101      	str	r1, [sp, #4]
1000986e:	a90c      	add	r1, sp, #48	; 0x30
10009870:	7809      	ldrb	r1, [r1, #0]
10009872:	8884      	ldrh	r4, [r0, #4]
10009874:	1ae7      	subs	r7, r4, r3
10009876:	b2bf      	uxth	r7, r7
10009878:	1b1c      	subs	r4, r3, r4
1000987a:	1914      	adds	r4, r2, r4
1000987c:	b2a4      	uxth	r4, r4
1000987e:	88c0      	ldrh	r0, [r0, #6]
10009880:	003d      	movs	r5, r7
10009882:	4345      	muls	r5, r0
10009884:	b2ad      	uxth	r5, r5
10009886:	46a8      	mov	r8, r5
10009888:	4344      	muls	r4, r0
1000988a:	b2a4      	uxth	r4, r4
1000988c:	4343      	muls	r3, r0
1000988e:	6835      	ldr	r5, [r6, #0]
10009890:	46a9      	mov	r9, r5
10009892:	4499      	add	r9, r3
10009894:	2900      	cmp	r1, #0
10009896:	d006      	beq.n	100098a6 <_ff_push_n+0x46>
10009898:	2901      	cmp	r1, #1
1000989a:	d019      	beq.n	100098d0 <_ff_push_n+0x70>
1000989c:	b005      	add	sp, #20
1000989e:	bc0c      	pop	{r2, r3}
100098a0:	4690      	mov	r8, r2
100098a2:	4699      	mov	r9, r3
100098a4:	bdf0      	pop	{r4, r5, r6, r7, pc}
100098a6:	4297      	cmp	r7, r2
100098a8:	d305      	bcc.n	100098b6 <_ff_push_n+0x56>
100098aa:	4342      	muls	r2, r0
100098ac:	9901      	ldr	r1, [sp, #4]
100098ae:	4648      	mov	r0, r9
100098b0:	f7fd fa2e 	bl	10006d10 <__wrap___aeabi_memcpy>
100098b4:	e7f2      	b.n	1000989c <_ff_push_n+0x3c>
100098b6:	4642      	mov	r2, r8
100098b8:	9d01      	ldr	r5, [sp, #4]
100098ba:	0029      	movs	r1, r5
100098bc:	4648      	mov	r0, r9
100098be:	f7fd fa27 	bl	10006d10 <__wrap___aeabi_memcpy>
100098c2:	6830      	ldr	r0, [r6, #0]
100098c4:	0029      	movs	r1, r5
100098c6:	4441      	add	r1, r8
100098c8:	0022      	movs	r2, r4
100098ca:	f7fd fa21 	bl	10006d10 <__wrap___aeabi_memcpy>
100098ce:	e7e5      	b.n	1000989c <_ff_push_n+0x3c>
100098d0:	4297      	cmp	r7, r2
100098d2:	d306      	bcc.n	100098e2 <_ff_push_n+0x82>
100098d4:	4342      	muls	r2, r0
100098d6:	b292      	uxth	r2, r2
100098d8:	9901      	ldr	r1, [sp, #4]
100098da:	4648      	mov	r0, r9
100098dc:	f7ff ffa3 	bl	10009826 <_ff_push_const_addr>
100098e0:	e7dc      	b.n	1000989c <_ff_push_n+0x3c>
100098e2:	2303      	movs	r3, #3
100098e4:	4647      	mov	r7, r8
100098e6:	439f      	bics	r7, r3
100098e8:	003a      	movs	r2, r7
100098ea:	9901      	ldr	r1, [sp, #4]
100098ec:	4648      	mov	r0, r9
100098ee:	f7ff ff9a 	bl	10009826 <_ff_push_const_addr>
100098f2:	003b      	movs	r3, r7
100098f4:	444b      	add	r3, r9
100098f6:	2103      	movs	r1, #3
100098f8:	4642      	mov	r2, r8
100098fa:	4011      	ands	r1, r2
100098fc:	d025      	beq.n	1000994a <_ff_push_n+0xea>
100098fe:	2204      	movs	r2, #4
10009900:	1a52      	subs	r2, r2, r1
10009902:	b292      	uxth	r2, r2
10009904:	1c10      	adds	r0, r2, #0
10009906:	42a2      	cmp	r2, r4
10009908:	d900      	bls.n	1000990c <_ff_push_n+0xac>
1000990a:	1c20      	adds	r0, r4, #0
1000990c:	b287      	uxth	r7, r0
1000990e:	b2fa      	uxtb	r2, r7
10009910:	20ff      	movs	r0, #255	; 0xff
10009912:	4038      	ands	r0, r7
10009914:	1a24      	subs	r4, r4, r0
10009916:	b2a4      	uxth	r4, r4
10009918:	9801      	ldr	r0, [sp, #4]
1000991a:	6800      	ldr	r0, [r0, #0]
1000991c:	9003      	str	r0, [sp, #12]
1000991e:	af03      	add	r7, sp, #12
10009920:	1e48      	subs	r0, r1, #1
10009922:	b2c0      	uxtb	r0, r0
10009924:	2900      	cmp	r1, #0
10009926:	d005      	beq.n	10009934 <_ff_push_n+0xd4>
10009928:	7839      	ldrb	r1, [r7, #0]
1000992a:	7019      	strb	r1, [r3, #0]
1000992c:	3701      	adds	r7, #1
1000992e:	0001      	movs	r1, r0
10009930:	3301      	adds	r3, #1
10009932:	e7f5      	b.n	10009920 <_ff_push_n+0xc0>
10009934:	6830      	ldr	r0, [r6, #0]
10009936:	1e53      	subs	r3, r2, #1
10009938:	b2db      	uxtb	r3, r3
1000993a:	2a00      	cmp	r2, #0
1000993c:	d006      	beq.n	1000994c <_ff_push_n+0xec>
1000993e:	783a      	ldrb	r2, [r7, #0]
10009940:	7002      	strb	r2, [r0, #0]
10009942:	3701      	adds	r7, #1
10009944:	001a      	movs	r2, r3
10009946:	3001      	adds	r0, #1
10009948:	e7f5      	b.n	10009936 <_ff_push_n+0xd6>
1000994a:	6830      	ldr	r0, [r6, #0]
1000994c:	2c00      	cmp	r4, #0
1000994e:	d0a5      	beq.n	1000989c <_ff_push_n+0x3c>
10009950:	0022      	movs	r2, r4
10009952:	9901      	ldr	r1, [sp, #4]
10009954:	f7ff ff67 	bl	10009826 <_ff_push_const_addr>
10009958:	e7a0      	b.n	1000989c <_ff_push_n+0x3c>

1000995a <_tu_fifo_write_n>:
1000995a:	b5f0      	push	{r4, r5, r6, r7, lr}
1000995c:	b085      	sub	sp, #20
1000995e:	0004      	movs	r4, r0
10009960:	9102      	str	r1, [sp, #8]
10009962:	1e16      	subs	r6, r2, #0
10009964:	9303      	str	r3, [sp, #12]
10009966:	d045      	beq.n	100099f4 <_tu_fifo_write_n+0x9a>
10009968:	6940      	ldr	r0, [r0, #20]
1000996a:	2800      	cmp	r0, #0
1000996c:	d003      	beq.n	10009976 <_tu_fifo_write_n+0x1c>
1000996e:	2101      	movs	r1, #1
10009970:	4249      	negs	r1, r1
10009972:	f000 fa01 	bl	10009d78 <__mutex_enter_timeout_ms_veneer>
10009976:	89e7      	ldrh	r7, [r4, #14]
10009978:	b2bf      	uxth	r7, r7
1000997a:	8a23      	ldrh	r3, [r4, #16]
1000997c:	b29b      	uxth	r3, r3
1000997e:	7a22      	ldrb	r2, [r4, #8]
10009980:	2a00      	cmp	r2, #0
10009982:	d128      	bne.n	100099d6 <_tu_fifo_write_n+0x7c>
10009984:	88a2      	ldrh	r2, [r4, #4]
10009986:	1af9      	subs	r1, r7, r3
10009988:	b289      	uxth	r1, r1
1000998a:	429f      	cmp	r7, r3
1000998c:	d202      	bcs.n	10009994 <_tu_fifo_write_n+0x3a>
1000998e:	8963      	ldrh	r3, [r4, #10]
10009990:	1ac9      	subs	r1, r1, r3
10009992:	b289      	uxth	r1, r1
10009994:	1a53      	subs	r3, r2, r1
10009996:	b29b      	uxth	r3, r3
10009998:	1c35      	adds	r5, r6, #0
1000999a:	429e      	cmp	r6, r3
1000999c:	d900      	bls.n	100099a0 <_tu_fifo_write_n+0x46>
1000999e:	1c1d      	adds	r5, r3, #0
100099a0:	b2ad      	uxth	r5, r5
100099a2:	0039      	movs	r1, r7
100099a4:	0020      	movs	r0, r4
100099a6:	f7ff fe17 	bl	100095d8 <get_relative_pointer>
100099aa:	0003      	movs	r3, r0
100099ac:	9a03      	ldr	r2, [sp, #12]
100099ae:	9200      	str	r2, [sp, #0]
100099b0:	002a      	movs	r2, r5
100099b2:	9902      	ldr	r1, [sp, #8]
100099b4:	0020      	movs	r0, r4
100099b6:	f7ff ff53 	bl	10009860 <_ff_push_n>
100099ba:	002a      	movs	r2, r5
100099bc:	0039      	movs	r1, r7
100099be:	0020      	movs	r0, r4
100099c0:	f7ff fdef 	bl	100095a2 <advance_pointer>
100099c4:	81e0      	strh	r0, [r4, #14]
100099c6:	6960      	ldr	r0, [r4, #20]
100099c8:	2800      	cmp	r0, #0
100099ca:	d001      	beq.n	100099d0 <_tu_fifo_write_n+0x76>
100099cc:	f000 f9b4 	bl	10009d38 <__mutex_exit_veneer>
100099d0:	0028      	movs	r0, r5
100099d2:	b005      	add	sp, #20
100099d4:	bdf0      	pop	{r4, r5, r6, r7, pc}
100099d6:	88a5      	ldrh	r5, [r4, #4]
100099d8:	42b5      	cmp	r5, r6
100099da:	d809      	bhi.n	100099f0 <_tu_fifo_write_n+0x96>
100099dc:	1b76      	subs	r6, r6, r5
100099de:	88e2      	ldrh	r2, [r4, #6]
100099e0:	4372      	muls	r2, r6
100099e2:	9902      	ldr	r1, [sp, #8]
100099e4:	468c      	mov	ip, r1
100099e6:	4494      	add	ip, r2
100099e8:	4662      	mov	r2, ip
100099ea:	9202      	str	r2, [sp, #8]
100099ec:	001f      	movs	r7, r3
100099ee:	e7d8      	b.n	100099a2 <_tu_fifo_write_n+0x48>
100099f0:	0035      	movs	r5, r6
100099f2:	e7d6      	b.n	100099a2 <_tu_fifo_write_n+0x48>
100099f4:	0015      	movs	r5, r2
100099f6:	e7eb      	b.n	100099d0 <_tu_fifo_write_n+0x76>

100099f8 <tu_fifo_config>:
100099f8:	b5f0      	push	{r4, r5, r6, r7, lr}
100099fa:	b083      	sub	sp, #12
100099fc:	0005      	movs	r5, r0
100099fe:	000f      	movs	r7, r1
10009a00:	0014      	movs	r4, r2
10009a02:	9301      	str	r3, [sp, #4]
10009a04:	ab08      	add	r3, sp, #32
10009a06:	781e      	ldrb	r6, [r3, #0]
10009a08:	2380      	movs	r3, #128	; 0x80
10009a0a:	021b      	lsls	r3, r3, #8
10009a0c:	429a      	cmp	r2, r3
10009a0e:	d828      	bhi.n	10009a62 <tu_fifo_config+0x6a>
10009a10:	6940      	ldr	r0, [r0, #20]
10009a12:	2800      	cmp	r0, #0
10009a14:	d003      	beq.n	10009a1e <tu_fifo_config+0x26>
10009a16:	2101      	movs	r1, #1
10009a18:	4249      	negs	r1, r1
10009a1a:	f000 f9ad 	bl	10009d78 <__mutex_enter_timeout_ms_veneer>
10009a1e:	69a8      	ldr	r0, [r5, #24]
10009a20:	2800      	cmp	r0, #0
10009a22:	d003      	beq.n	10009a2c <tu_fifo_config+0x34>
10009a24:	2101      	movs	r1, #1
10009a26:	4249      	negs	r1, r1
10009a28:	f000 f9a6 	bl	10009d78 <__mutex_enter_timeout_ms_veneer>
10009a2c:	602f      	str	r7, [r5, #0]
10009a2e:	80ac      	strh	r4, [r5, #4]
10009a30:	9b01      	ldr	r3, [sp, #4]
10009a32:	80eb      	strh	r3, [r5, #6]
10009a34:	722e      	strb	r6, [r5, #8]
10009a36:	0064      	lsls	r4, r4, #1
10009a38:	3c01      	subs	r4, #1
10009a3a:	b2a4      	uxth	r4, r4
10009a3c:	81ac      	strh	r4, [r5, #12]
10009a3e:	43e4      	mvns	r4, r4
10009a40:	816c      	strh	r4, [r5, #10]
10009a42:	2300      	movs	r3, #0
10009a44:	81eb      	strh	r3, [r5, #14]
10009a46:	822b      	strh	r3, [r5, #16]
10009a48:	6968      	ldr	r0, [r5, #20]
10009a4a:	2800      	cmp	r0, #0
10009a4c:	d001      	beq.n	10009a52 <tu_fifo_config+0x5a>
10009a4e:	f000 f973 	bl	10009d38 <__mutex_exit_veneer>
10009a52:	69a8      	ldr	r0, [r5, #24]
10009a54:	2800      	cmp	r0, #0
10009a56:	d006      	beq.n	10009a66 <tu_fifo_config+0x6e>
10009a58:	f000 f96e 	bl	10009d38 <__mutex_exit_veneer>
10009a5c:	2001      	movs	r0, #1
10009a5e:	b003      	add	sp, #12
10009a60:	bdf0      	pop	{r4, r5, r6, r7, pc}
10009a62:	2000      	movs	r0, #0
10009a64:	e7fb      	b.n	10009a5e <tu_fifo_config+0x66>
10009a66:	2001      	movs	r0, #1
10009a68:	e7f9      	b.n	10009a5e <tu_fifo_config+0x66>

10009a6a <tu_fifo_count>:
10009a6a:	89c1      	ldrh	r1, [r0, #14]
10009a6c:	b289      	uxth	r1, r1
10009a6e:	8a02      	ldrh	r2, [r0, #16]
10009a70:	b292      	uxth	r2, r2
10009a72:	1a8b      	subs	r3, r1, r2
10009a74:	b29b      	uxth	r3, r3
10009a76:	4291      	cmp	r1, r2
10009a78:	d202      	bcs.n	10009a80 <tu_fifo_count+0x16>
10009a7a:	8942      	ldrh	r2, [r0, #10]
10009a7c:	1a9b      	subs	r3, r3, r2
10009a7e:	b29b      	uxth	r3, r3
10009a80:	8882      	ldrh	r2, [r0, #4]
10009a82:	1c10      	adds	r0, r2, #0
10009a84:	429a      	cmp	r2, r3
10009a86:	d900      	bls.n	10009a8a <tu_fifo_count+0x20>
10009a88:	1c18      	adds	r0, r3, #0
10009a8a:	b280      	uxth	r0, r0
10009a8c:	4770      	bx	lr

10009a8e <tu_fifo_empty>:
10009a8e:	89c3      	ldrh	r3, [r0, #14]
10009a90:	8a00      	ldrh	r0, [r0, #16]
10009a92:	1a18      	subs	r0, r3, r0
10009a94:	4243      	negs	r3, r0
10009a96:	4158      	adcs	r0, r3
10009a98:	b2c0      	uxtb	r0, r0
10009a9a:	4770      	bx	lr

10009a9c <tu_fifo_remaining>:
10009a9c:	b510      	push	{r4, lr}
10009a9e:	89c4      	ldrh	r4, [r0, #14]
10009aa0:	b2a4      	uxth	r4, r4
10009aa2:	8a01      	ldrh	r1, [r0, #16]
10009aa4:	b289      	uxth	r1, r1
10009aa6:	8883      	ldrh	r3, [r0, #4]
10009aa8:	1a62      	subs	r2, r4, r1
10009aaa:	b292      	uxth	r2, r2
10009aac:	428c      	cmp	r4, r1
10009aae:	d202      	bcs.n	10009ab6 <tu_fifo_remaining+0x1a>
10009ab0:	8940      	ldrh	r0, [r0, #10]
10009ab2:	1a12      	subs	r2, r2, r0
10009ab4:	b292      	uxth	r2, r2
10009ab6:	1a98      	subs	r0, r3, r2
10009ab8:	b280      	uxth	r0, r0
10009aba:	bd10      	pop	{r4, pc}

10009abc <tu_fifo_read>:
10009abc:	b570      	push	{r4, r5, r6, lr}
10009abe:	0004      	movs	r4, r0
10009ac0:	000d      	movs	r5, r1
10009ac2:	6980      	ldr	r0, [r0, #24]
10009ac4:	2800      	cmp	r0, #0
10009ac6:	d003      	beq.n	10009ad0 <tu_fifo_read+0x14>
10009ac8:	2101      	movs	r1, #1
10009aca:	4249      	negs	r1, r1
10009acc:	f000 f954 	bl	10009d78 <__mutex_enter_timeout_ms_veneer>
10009ad0:	89e2      	ldrh	r2, [r4, #14]
10009ad2:	b292      	uxth	r2, r2
10009ad4:	8a23      	ldrh	r3, [r4, #16]
10009ad6:	b29b      	uxth	r3, r3
10009ad8:	0029      	movs	r1, r5
10009ada:	0020      	movs	r0, r4
10009adc:	f7ff fd84 	bl	100095e8 <_tu_fifo_peek>
10009ae0:	0005      	movs	r5, r0
10009ae2:	8a21      	ldrh	r1, [r4, #16]
10009ae4:	b289      	uxth	r1, r1
10009ae6:	b282      	uxth	r2, r0
10009ae8:	0020      	movs	r0, r4
10009aea:	f7ff fd5a 	bl	100095a2 <advance_pointer>
10009aee:	8220      	strh	r0, [r4, #16]
10009af0:	69a0      	ldr	r0, [r4, #24]
10009af2:	2800      	cmp	r0, #0
10009af4:	d001      	beq.n	10009afa <tu_fifo_read+0x3e>
10009af6:	f000 f91f 	bl	10009d38 <__mutex_exit_veneer>
10009afa:	0028      	movs	r0, r5
10009afc:	bd70      	pop	{r4, r5, r6, pc}

10009afe <tu_fifo_read_n>:
10009afe:	b510      	push	{r4, lr}
10009b00:	2300      	movs	r3, #0
10009b02:	f7ff fe69 	bl	100097d8 <_tu_fifo_read_n>
10009b06:	bd10      	pop	{r4, pc}

10009b08 <tu_fifo_write>:
10009b08:	b570      	push	{r4, r5, r6, lr}
10009b0a:	0004      	movs	r4, r0
10009b0c:	000e      	movs	r6, r1
10009b0e:	6940      	ldr	r0, [r0, #20]
10009b10:	2800      	cmp	r0, #0
10009b12:	d003      	beq.n	10009b1c <tu_fifo_write+0x14>
10009b14:	2101      	movs	r1, #1
10009b16:	4249      	negs	r1, r1
10009b18:	f000 f92e 	bl	10009d78 <__mutex_enter_timeout_ms_veneer>
10009b1c:	89e5      	ldrh	r5, [r4, #14]
10009b1e:	b2ad      	uxth	r5, r5
10009b20:	8a22      	ldrh	r2, [r4, #16]
10009b22:	b292      	uxth	r2, r2
10009b24:	1aab      	subs	r3, r5, r2
10009b26:	b29b      	uxth	r3, r3
10009b28:	42aa      	cmp	r2, r5
10009b2a:	d902      	bls.n	10009b32 <tu_fifo_write+0x2a>
10009b2c:	8962      	ldrh	r2, [r4, #10]
10009b2e:	1a9b      	subs	r3, r3, r2
10009b30:	b29b      	uxth	r3, r3
10009b32:	88a2      	ldrh	r2, [r4, #4]
10009b34:	429a      	cmp	r2, r3
10009b36:	d102      	bne.n	10009b3e <tu_fifo_write+0x36>
10009b38:	7a20      	ldrb	r0, [r4, #8]
10009b3a:	2800      	cmp	r0, #0
10009b3c:	d017      	beq.n	10009b6e <tu_fifo_write+0x66>
10009b3e:	0029      	movs	r1, r5
10009b40:	0020      	movs	r0, r4
10009b42:	f7ff fd49 	bl	100095d8 <get_relative_pointer>
10009b46:	88e2      	ldrh	r2, [r4, #6]
10009b48:	4350      	muls	r0, r2
10009b4a:	6823      	ldr	r3, [r4, #0]
10009b4c:	469c      	mov	ip, r3
10009b4e:	4460      	add	r0, ip
10009b50:	0031      	movs	r1, r6
10009b52:	f7fd f8dd 	bl	10006d10 <__wrap___aeabi_memcpy>
10009b56:	2201      	movs	r2, #1
10009b58:	0029      	movs	r1, r5
10009b5a:	0020      	movs	r0, r4
10009b5c:	f7ff fd21 	bl	100095a2 <advance_pointer>
10009b60:	81e0      	strh	r0, [r4, #14]
10009b62:	6960      	ldr	r0, [r4, #20]
10009b64:	2800      	cmp	r0, #0
10009b66:	d003      	beq.n	10009b70 <tu_fifo_write+0x68>
10009b68:	f000 f8e6 	bl	10009d38 <__mutex_exit_veneer>
10009b6c:	2001      	movs	r0, #1
10009b6e:	bd70      	pop	{r4, r5, r6, pc}
10009b70:	2001      	movs	r0, #1
10009b72:	e7fc      	b.n	10009b6e <tu_fifo_write+0x66>

10009b74 <tu_fifo_write_n>:
10009b74:	b510      	push	{r4, lr}
10009b76:	2300      	movs	r3, #0
10009b78:	f7ff feef 	bl	1000995a <_tu_fifo_write_n>
10009b7c:	bd10      	pop	{r4, pc}

10009b7e <tu_fifo_clear>:
10009b7e:	b510      	push	{r4, lr}
10009b80:	0004      	movs	r4, r0
10009b82:	6940      	ldr	r0, [r0, #20]
10009b84:	2800      	cmp	r0, #0
10009b86:	d003      	beq.n	10009b90 <tu_fifo_clear+0x12>
10009b88:	2101      	movs	r1, #1
10009b8a:	4249      	negs	r1, r1
10009b8c:	f000 f8f4 	bl	10009d78 <__mutex_enter_timeout_ms_veneer>
10009b90:	69a0      	ldr	r0, [r4, #24]
10009b92:	2800      	cmp	r0, #0
10009b94:	d003      	beq.n	10009b9e <tu_fifo_clear+0x20>
10009b96:	2101      	movs	r1, #1
10009b98:	4249      	negs	r1, r1
10009b9a:	f000 f8ed 	bl	10009d78 <__mutex_enter_timeout_ms_veneer>
10009b9e:	2300      	movs	r3, #0
10009ba0:	81e3      	strh	r3, [r4, #14]
10009ba2:	8223      	strh	r3, [r4, #16]
10009ba4:	88a3      	ldrh	r3, [r4, #4]
10009ba6:	005b      	lsls	r3, r3, #1
10009ba8:	3b01      	subs	r3, #1
10009baa:	b29b      	uxth	r3, r3
10009bac:	81a3      	strh	r3, [r4, #12]
10009bae:	43db      	mvns	r3, r3
10009bb0:	8163      	strh	r3, [r4, #10]
10009bb2:	6960      	ldr	r0, [r4, #20]
10009bb4:	2800      	cmp	r0, #0
10009bb6:	d001      	beq.n	10009bbc <tu_fifo_clear+0x3e>
10009bb8:	f000 f8be 	bl	10009d38 <__mutex_exit_veneer>
10009bbc:	69a0      	ldr	r0, [r4, #24]
10009bbe:	2800      	cmp	r0, #0
10009bc0:	d001      	beq.n	10009bc6 <tu_fifo_clear+0x48>
10009bc2:	f000 f8b9 	bl	10009d38 <__mutex_exit_veneer>
10009bc6:	2001      	movs	r0, #1
10009bc8:	bd10      	pop	{r4, pc}

10009bca <tu_fifo_set_overwritable>:
10009bca:	b570      	push	{r4, r5, r6, lr}
10009bcc:	0004      	movs	r4, r0
10009bce:	000d      	movs	r5, r1
10009bd0:	6940      	ldr	r0, [r0, #20]
10009bd2:	2800      	cmp	r0, #0
10009bd4:	d003      	beq.n	10009bde <tu_fifo_set_overwritable+0x14>
10009bd6:	2101      	movs	r1, #1
10009bd8:	4249      	negs	r1, r1
10009bda:	f000 f8cd 	bl	10009d78 <__mutex_enter_timeout_ms_veneer>
10009bde:	69a0      	ldr	r0, [r4, #24]
10009be0:	2800      	cmp	r0, #0
10009be2:	d003      	beq.n	10009bec <tu_fifo_set_overwritable+0x22>
10009be4:	2101      	movs	r1, #1
10009be6:	4249      	negs	r1, r1
10009be8:	f000 f8c6 	bl	10009d78 <__mutex_enter_timeout_ms_veneer>
10009bec:	7225      	strb	r5, [r4, #8]
10009bee:	6960      	ldr	r0, [r4, #20]
10009bf0:	2800      	cmp	r0, #0
10009bf2:	d001      	beq.n	10009bf8 <tu_fifo_set_overwritable+0x2e>
10009bf4:	f000 f8a0 	bl	10009d38 <__mutex_exit_veneer>
10009bf8:	69a0      	ldr	r0, [r4, #24]
10009bfa:	2800      	cmp	r0, #0
10009bfc:	d001      	beq.n	10009c02 <tu_fifo_set_overwritable+0x38>
10009bfe:	f000 f89b 	bl	10009d38 <__mutex_exit_veneer>
10009c02:	2001      	movs	r0, #1
10009c04:	bd70      	pop	{r4, r5, r6, pc}
	...

10009c08 <_retrieve_unique_id_on_boot>:
10009c08:	b510      	push	{r4, lr}
10009c0a:	4802      	ldr	r0, [pc, #8]	; (10009c14 <_retrieve_unique_id_on_boot+0xc>)
10009c0c:	f000 f834 	bl	10009c78 <flash_get_unique_id>
10009c10:	bd10      	pop	{r4, pc}
10009c12:	46c0      	nop			; (mov r8, r8)
10009c14:	20008f98 	.word	0x20008f98

10009c18 <pico_get_unique_board_id_string>:
10009c18:	b510      	push	{r4, lr}
10009c1a:	2900      	cmp	r1, #0
10009c1c:	d001      	beq.n	10009c22 <pico_get_unique_board_id_string+0xa>
10009c1e:	2300      	movs	r3, #0
10009c20:	e00a      	b.n	10009c38 <pico_get_unique_board_id_string+0x20>
10009c22:	4b11      	ldr	r3, [pc, #68]	; (10009c68 <pico_get_unique_board_id_string+0x50>)
10009c24:	4a11      	ldr	r2, [pc, #68]	; (10009c6c <pico_get_unique_board_id_string+0x54>)
10009c26:	311f      	adds	r1, #31
10009c28:	4811      	ldr	r0, [pc, #68]	; (10009c70 <pico_get_unique_board_id_string+0x58>)
10009c2a:	f7fa fdb3 	bl	10004794 <__assert_func>
10009c2e:	2400      	movs	r4, #0
10009c30:	e00d      	b.n	10009c4e <pico_get_unique_board_id_string+0x36>
10009c32:	3237      	adds	r2, #55	; 0x37
10009c34:	54c2      	strb	r2, [r0, r3]
10009c36:	3301      	adds	r3, #1
10009c38:	1e4a      	subs	r2, r1, #1
10009c3a:	429a      	cmp	r2, r3
10009c3c:	d90f      	bls.n	10009c5e <pico_get_unique_board_id_string+0x46>
10009c3e:	2b0f      	cmp	r3, #15
10009c40:	d80d      	bhi.n	10009c5e <pico_get_unique_board_id_string+0x46>
10009c42:	085a      	lsrs	r2, r3, #1
10009c44:	4c0b      	ldr	r4, [pc, #44]	; (10009c74 <pico_get_unique_board_id_string+0x5c>)
10009c46:	5ca2      	ldrb	r2, [r4, r2]
10009c48:	07dc      	lsls	r4, r3, #31
10009c4a:	d4f0      	bmi.n	10009c2e <pico_get_unique_board_id_string+0x16>
10009c4c:	2404      	movs	r4, #4
10009c4e:	4122      	asrs	r2, r4
10009c50:	0014      	movs	r4, r2
10009c52:	220f      	movs	r2, #15
10009c54:	4022      	ands	r2, r4
10009c56:	2a09      	cmp	r2, #9
10009c58:	dceb      	bgt.n	10009c32 <pico_get_unique_board_id_string+0x1a>
10009c5a:	3230      	adds	r2, #48	; 0x30
10009c5c:	e7ea      	b.n	10009c34 <pico_get_unique_board_id_string+0x1c>
10009c5e:	18c0      	adds	r0, r0, r3
10009c60:	2300      	movs	r3, #0
10009c62:	7003      	strb	r3, [r0, #0]
10009c64:	bd10      	pop	{r4, pc}
10009c66:	46c0      	nop			; (mov r8, r8)
10009c68:	1000c0cc 	.word	0x1000c0cc
10009c6c:	1000c0ac 	.word	0x1000c0ac
10009c70:	1000c0d4 	.word	0x1000c0d4
10009c74:	20008f98 	.word	0x20008f98

10009c78 <flash_get_unique_id>:
10009c78:	b530      	push	{r4, r5, lr}
10009c7a:	b089      	sub	sp, #36	; 0x24
10009c7c:	0004      	movs	r4, r0
10009c7e:	ad04      	add	r5, sp, #16
10009c80:	220d      	movs	r2, #13
10009c82:	2100      	movs	r1, #0
10009c84:	0028      	movs	r0, r5
10009c86:	f7fd f83d 	bl	10006d04 <__wrap_memset>
10009c8a:	220d      	movs	r2, #13
10009c8c:	2100      	movs	r1, #0
10009c8e:	4668      	mov	r0, sp
10009c90:	f7fd f838 	bl	10006d04 <__wrap_memset>
10009c94:	234b      	movs	r3, #75	; 0x4b
10009c96:	702b      	strb	r3, [r5, #0]
10009c98:	220d      	movs	r2, #13
10009c9a:	4669      	mov	r1, sp
10009c9c:	0028      	movs	r0, r5
10009c9e:	f000 f843 	bl	10009d28 <__flash_do_cmd_veneer>
10009ca2:	2300      	movs	r3, #0
10009ca4:	e004      	b.n	10009cb0 <flash_get_unique_id+0x38>
10009ca6:	1d5a      	adds	r2, r3, #5
10009ca8:	4669      	mov	r1, sp
10009caa:	5c8a      	ldrb	r2, [r1, r2]
10009cac:	54e2      	strb	r2, [r4, r3]
10009cae:	3301      	adds	r3, #1
10009cb0:	2b07      	cmp	r3, #7
10009cb2:	ddf8      	ble.n	10009ca6 <flash_get_unique_id+0x2e>
10009cb4:	b009      	add	sp, #36	; 0x24
10009cb6:	bd30      	pop	{r4, r5, pc}

10009cb8 <strlen>:
10009cb8:	b510      	push	{r4, lr}
10009cba:	0783      	lsls	r3, r0, #30
10009cbc:	d027      	beq.n	10009d0e <strlen+0x56>
10009cbe:	7803      	ldrb	r3, [r0, #0]
10009cc0:	2b00      	cmp	r3, #0
10009cc2:	d026      	beq.n	10009d12 <strlen+0x5a>
10009cc4:	0003      	movs	r3, r0
10009cc6:	2103      	movs	r1, #3
10009cc8:	e002      	b.n	10009cd0 <strlen+0x18>
10009cca:	781a      	ldrb	r2, [r3, #0]
10009ccc:	2a00      	cmp	r2, #0
10009cce:	d01c      	beq.n	10009d0a <strlen+0x52>
10009cd0:	3301      	adds	r3, #1
10009cd2:	420b      	tst	r3, r1
10009cd4:	d1f9      	bne.n	10009cca <strlen+0x12>
10009cd6:	6819      	ldr	r1, [r3, #0]
10009cd8:	4a0f      	ldr	r2, [pc, #60]	; (10009d18 <strlen+0x60>)
10009cda:	4c10      	ldr	r4, [pc, #64]	; (10009d1c <strlen+0x64>)
10009cdc:	188a      	adds	r2, r1, r2
10009cde:	438a      	bics	r2, r1
10009ce0:	4222      	tst	r2, r4
10009ce2:	d10f      	bne.n	10009d04 <strlen+0x4c>
10009ce4:	3304      	adds	r3, #4
10009ce6:	6819      	ldr	r1, [r3, #0]
10009ce8:	4a0b      	ldr	r2, [pc, #44]	; (10009d18 <strlen+0x60>)
10009cea:	188a      	adds	r2, r1, r2
10009cec:	438a      	bics	r2, r1
10009cee:	4222      	tst	r2, r4
10009cf0:	d108      	bne.n	10009d04 <strlen+0x4c>
10009cf2:	3304      	adds	r3, #4
10009cf4:	6819      	ldr	r1, [r3, #0]
10009cf6:	4a08      	ldr	r2, [pc, #32]	; (10009d18 <strlen+0x60>)
10009cf8:	188a      	adds	r2, r1, r2
10009cfa:	438a      	bics	r2, r1
10009cfc:	4222      	tst	r2, r4
10009cfe:	d0f1      	beq.n	10009ce4 <strlen+0x2c>
10009d00:	e000      	b.n	10009d04 <strlen+0x4c>
10009d02:	3301      	adds	r3, #1
10009d04:	781a      	ldrb	r2, [r3, #0]
10009d06:	2a00      	cmp	r2, #0
10009d08:	d1fb      	bne.n	10009d02 <strlen+0x4a>
10009d0a:	1a18      	subs	r0, r3, r0
10009d0c:	bd10      	pop	{r4, pc}
10009d0e:	0003      	movs	r3, r0
10009d10:	e7e1      	b.n	10009cd6 <strlen+0x1e>
10009d12:	2000      	movs	r0, #0
10009d14:	e7fa      	b.n	10009d0c <strlen+0x54>
10009d16:	46c0      	nop			; (mov r8, r8)
10009d18:	fefefeff 	.word	0xfefefeff
10009d1c:	80808080 	.word	0x80808080

10009d20 <_fini>:
10009d20:	b5f8      	push	{r3, r4, r5, r6, r7, lr}
10009d22:	46c0      	nop			; (mov r8, r8)
10009d24:	0000      	movs	r0, r0
	...

10009d28 <__flash_do_cmd_veneer>:
10009d28:	b401      	push	{r0}
10009d2a:	4802      	ldr	r0, [pc, #8]	; (10009d34 <__flash_do_cmd_veneer+0xc>)
10009d2c:	4684      	mov	ip, r0
10009d2e:	bc01      	pop	{r0}
10009d30:	4760      	bx	ip
10009d32:	bf00      	nop
10009d34:	200002ed 	.word	0x200002ed

10009d38 <__mutex_exit_veneer>:
10009d38:	b401      	push	{r0}
10009d3a:	4802      	ldr	r0, [pc, #8]	; (10009d44 <__mutex_exit_veneer+0xc>)
10009d3c:	4684      	mov	ip, r0
10009d3e:	bc01      	pop	{r0}
10009d40:	4760      	bx	ip
10009d42:	bf00      	nop
10009d44:	20000239 	.word	0x20000239

10009d48 <____aeabi_ldiv0_veneer>:
10009d48:	b401      	push	{r0}
10009d4a:	4802      	ldr	r0, [pc, #8]	; (10009d54 <____aeabi_ldiv0_veneer+0xc>)
10009d4c:	4684      	mov	ip, r0
10009d4e:	bc01      	pop	{r0}
10009d50:	4760      	bx	ip
10009d52:	bf00      	nop
10009d54:	200003c1 	.word	0x200003c1

10009d58 <____aeabi_idiv0_veneer>:
10009d58:	b401      	push	{r0}
10009d5a:	4802      	ldr	r0, [pc, #8]	; (10009d64 <____aeabi_idiv0_veneer+0xc>)
10009d5c:	4684      	mov	ip, r0
10009d5e:	bc01      	pop	{r0}
10009d60:	4760      	bx	ip
10009d62:	bf00      	nop
10009d64:	200003c1 	.word	0x200003c1

10009d68 <__mutex_try_enter_veneer>:
10009d68:	b401      	push	{r0}
10009d6a:	4802      	ldr	r0, [pc, #8]	; (10009d74 <__mutex_try_enter_veneer+0xc>)
10009d6c:	4684      	mov	ip, r0
10009d6e:	bc01      	pop	{r0}
10009d70:	4760      	bx	ip
10009d72:	bf00      	nop
10009d74:	20000109 	.word	0x20000109

10009d78 <__mutex_enter_timeout_ms_veneer>:
10009d78:	b401      	push	{r0}
10009d7a:	4802      	ldr	r0, [pc, #8]	; (10009d84 <__mutex_enter_timeout_ms_veneer+0xc>)
10009d7c:	4684      	mov	ip, r0
10009d7e:	bc01      	pop	{r0}
10009d80:	4760      	bx	ip
10009d82:	bf00      	nop
10009d84:	200001cd 	.word	0x200001cd

10009d88 <__mutex_enter_blocking_veneer>:
10009d88:	b401      	push	{r0}
10009d8a:	4802      	ldr	r0, [pc, #8]	; (10009d94 <__mutex_enter_blocking_veneer+0xc>)
10009d8c:	4684      	mov	ip, r0
10009d8e:	bc01      	pop	{r0}
10009d90:	4760      	bx	ip
10009d92:	bf00      	nop
10009d94:	200000c1 	.word	0x200000c1

Disassembly of section .data:

200000c0 <mutex_enter_blocking>:
200000c0:	b510      	push	{r4, lr}
200000c2:	23d0      	movs	r3, #208	; 0xd0
200000c4:	061b      	lsls	r3, r3, #24
200000c6:	2400      	movs	r4, #0
200000c8:	571c      	ldrsb	r4, [r3, r4]
200000ca:	6802      	ldr	r2, [r0, #0]
200000cc:	f3ef 8110 	mrs	r1, PRIMASK
200000d0:	b672      	cpsid	i
200000d2:	6813      	ldr	r3, [r2, #0]
200000d4:	2b00      	cmp	r3, #0
200000d6:	d0fc      	beq.n	200000d2 <mutex_enter_blocking+0x12>
200000d8:	f3bf 8f5f 	dmb	sy
200000dc:	2304      	movs	r3, #4
200000de:	56c3      	ldrsb	r3, [r0, r3]
200000e0:	2b00      	cmp	r3, #0
200000e2:	db08      	blt.n	200000f6 <mutex_enter_blocking+0x36>
200000e4:	6803      	ldr	r3, [r0, #0]
200000e6:	f3bf 8f5f 	dmb	sy
200000ea:	2200      	movs	r2, #0
200000ec:	601a      	str	r2, [r3, #0]
200000ee:	f381 8810 	msr	PRIMASK, r1
200000f2:	bf20      	wfe
200000f4:	e7e9      	b.n	200000ca <mutex_enter_blocking+0xa>
200000f6:	7104      	strb	r4, [r0, #4]
200000f8:	6803      	ldr	r3, [r0, #0]
200000fa:	f3bf 8f5f 	dmb	sy
200000fe:	2200      	movs	r2, #0
20000100:	601a      	str	r2, [r3, #0]
20000102:	f381 8810 	msr	PRIMASK, r1
20000106:	bd10      	pop	{r4, pc}

20000108 <mutex_try_enter>:
20000108:	b510      	push	{r4, lr}
2000010a:	6802      	ldr	r2, [r0, #0]
2000010c:	f3ef 8410 	mrs	r4, PRIMASK
20000110:	b672      	cpsid	i
20000112:	6813      	ldr	r3, [r2, #0]
20000114:	2b00      	cmp	r3, #0
20000116:	d0fc      	beq.n	20000112 <mutex_try_enter+0xa>
20000118:	f3bf 8f5f 	dmb	sy
2000011c:	2304      	movs	r3, #4
2000011e:	56c3      	ldrsb	r3, [r0, r3]
20000120:	2b00      	cmp	r3, #0
20000122:	db0c      	blt.n	2000013e <mutex_try_enter+0x36>
20000124:	2900      	cmp	r1, #0
20000126:	d011      	beq.n	2000014c <mutex_try_enter+0x44>
20000128:	600b      	str	r3, [r1, #0]
2000012a:	2100      	movs	r1, #0
2000012c:	6803      	ldr	r3, [r0, #0]
2000012e:	f3bf 8f5f 	dmb	sy
20000132:	2200      	movs	r2, #0
20000134:	601a      	str	r2, [r3, #0]
20000136:	f384 8810 	msr	PRIMASK, r4
2000013a:	0008      	movs	r0, r1
2000013c:	bd10      	pop	{r4, pc}
2000013e:	23d0      	movs	r3, #208	; 0xd0
20000140:	061b      	lsls	r3, r3, #24
20000142:	781b      	ldrb	r3, [r3, #0]
20000144:	b25b      	sxtb	r3, r3
20000146:	7103      	strb	r3, [r0, #4]
20000148:	2101      	movs	r1, #1
2000014a:	e7ef      	b.n	2000012c <mutex_try_enter+0x24>
2000014c:	2100      	movs	r1, #0
2000014e:	e7ed      	b.n	2000012c <mutex_try_enter+0x24>

20000150 <mutex_enter_block_until>:
20000150:	b5f8      	push	{r3, r4, r5, r6, r7, lr}
20000152:	0004      	movs	r4, r0
20000154:	0016      	movs	r6, r2
20000156:	001f      	movs	r7, r3
20000158:	6803      	ldr	r3, [r0, #0]
2000015a:	2b00      	cmp	r3, #0
2000015c:	d01f      	beq.n	2000019e <mutex_enter_block_until+0x4e>
2000015e:	23d0      	movs	r3, #208	; 0xd0
20000160:	061b      	lsls	r3, r3, #24
20000162:	2500      	movs	r5, #0
20000164:	575d      	ldrsb	r5, [r3, r5]
20000166:	6822      	ldr	r2, [r4, #0]
20000168:	f3ef 8110 	mrs	r1, PRIMASK
2000016c:	b672      	cpsid	i
2000016e:	6813      	ldr	r3, [r2, #0]
20000170:	2b00      	cmp	r3, #0
20000172:	d0fc      	beq.n	2000016e <mutex_enter_block_until+0x1e>
20000174:	f3bf 8f5f 	dmb	sy
20000178:	2304      	movs	r3, #4
2000017a:	56e3      	ldrsb	r3, [r4, r3]
2000017c:	2b00      	cmp	r3, #0
2000017e:	db14      	blt.n	200001aa <mutex_enter_block_until+0x5a>
20000180:	6823      	ldr	r3, [r4, #0]
20000182:	f3bf 8f5f 	dmb	sy
20000186:	2200      	movs	r2, #0
20000188:	601a      	str	r2, [r3, #0]
2000018a:	f381 8810 	msr	PRIMASK, r1
2000018e:	0030      	movs	r0, r6
20000190:	0039      	movs	r1, r7
20000192:	f000 f931 	bl	200003f8 <__best_effort_wfe_or_timeout_veneer>
20000196:	2800      	cmp	r0, #0
20000198:	d0e5      	beq.n	20000166 <mutex_enter_block_until+0x16>
2000019a:	2000      	movs	r0, #0
2000019c:	e00e      	b.n	200001bc <mutex_enter_block_until+0x6c>
2000019e:	4b08      	ldr	r3, [pc, #32]	; (200001c0 <mutex_enter_block_until+0x70>)
200001a0:	4a08      	ldr	r2, [pc, #32]	; (200001c4 <mutex_enter_block_until+0x74>)
200001a2:	217a      	movs	r1, #122	; 0x7a
200001a4:	4808      	ldr	r0, [pc, #32]	; (200001c8 <mutex_enter_block_until+0x78>)
200001a6:	f000 f917 	bl	200003d8 <____assert_func_veneer>
200001aa:	7125      	strb	r5, [r4, #4]
200001ac:	6823      	ldr	r3, [r4, #0]
200001ae:	f3bf 8f5f 	dmb	sy
200001b2:	2200      	movs	r2, #0
200001b4:	601a      	str	r2, [r3, #0]
200001b6:	f381 8810 	msr	PRIMASK, r1
200001ba:	2001      	movs	r0, #1
200001bc:	bdf8      	pop	{r3, r4, r5, r6, r7, pc}
200001be:	46c0      	nop			; (mov r8, r8)
200001c0:	1000b390 	.word	0x1000b390
200001c4:	1000b324 	.word	0x1000b324
200001c8:	1000b350 	.word	0x1000b350

200001cc <mutex_enter_timeout_ms>:
200001cc:	b5f0      	push	{r4, r5, r6, r7, lr}
200001ce:	b083      	sub	sp, #12
200001d0:	9000      	str	r0, [sp, #0]
200001d2:	9101      	str	r1, [sp, #4]
200001d4:	f000 f908 	bl	200003e8 <__time_us_64_veneer>
200001d8:	0004      	movs	r4, r0
200001da:	1e0d      	subs	r5, r1, #0
200001dc:	db19      	blt.n	20000212 <mutex_enter_timeout_ms+0x46>
200001de:	22fa      	movs	r2, #250	; 0xfa
200001e0:	0092      	lsls	r2, r2, #2
200001e2:	2300      	movs	r3, #0
200001e4:	9801      	ldr	r0, [sp, #4]
200001e6:	2100      	movs	r1, #0
200001e8:	f000 f8ee 	bl	200003c8 <____wrap___aeabi_lmul_veneer>
200001ec:	0022      	movs	r2, r4
200001ee:	002b      	movs	r3, r5
200001f0:	1812      	adds	r2, r2, r0
200001f2:	414b      	adcs	r3, r1
200001f4:	429d      	cmp	r5, r3
200001f6:	d802      	bhi.n	200001fe <mutex_enter_timeout_ms+0x32>
200001f8:	d104      	bne.n	20000204 <mutex_enter_timeout_ms+0x38>
200001fa:	4294      	cmp	r4, r2
200001fc:	d902      	bls.n	20000204 <mutex_enter_timeout_ms+0x38>
200001fe:	2201      	movs	r2, #1
20000200:	4252      	negs	r2, r2
20000202:	17d3      	asrs	r3, r2, #31
20000204:	2b00      	cmp	r3, #0
20000206:	db0a      	blt.n	2000021e <mutex_enter_timeout_ms+0x52>
20000208:	9800      	ldr	r0, [sp, #0]
2000020a:	f7ff ffa1 	bl	20000150 <mutex_enter_block_until>
2000020e:	b003      	add	sp, #12
20000210:	bdf0      	pop	{r4, r5, r6, r7, pc}
20000212:	4b06      	ldr	r3, [pc, #24]	; (2000022c <mutex_enter_timeout_ms+0x60>)
20000214:	4a06      	ldr	r2, [pc, #24]	; (20000230 <mutex_enter_timeout_ms+0x64>)
20000216:	213f      	movs	r1, #63	; 0x3f
20000218:	4806      	ldr	r0, [pc, #24]	; (20000234 <mutex_enter_timeout_ms+0x68>)
2000021a:	f000 f8dd 	bl	200003d8 <____assert_func_veneer>
2000021e:	4b03      	ldr	r3, [pc, #12]	; (2000022c <mutex_enter_timeout_ms+0x60>)
20000220:	4a03      	ldr	r2, [pc, #12]	; (20000230 <mutex_enter_timeout_ms+0x64>)
20000222:	213f      	movs	r1, #63	; 0x3f
20000224:	4803      	ldr	r0, [pc, #12]	; (20000234 <mutex_enter_timeout_ms+0x68>)
20000226:	f000 f8d7 	bl	200003d8 <____assert_func_veneer>
2000022a:	46c0      	nop			; (mov r8, r8)
2000022c:	1000a2c8 	.word	0x1000a2c8
20000230:	1000b30c 	.word	0x1000b30c
20000234:	1000a2e4 	.word	0x1000a2e4

20000238 <mutex_exit>:
20000238:	b510      	push	{r4, lr}
2000023a:	6802      	ldr	r2, [r0, #0]
2000023c:	f3ef 8110 	mrs	r1, PRIMASK
20000240:	b672      	cpsid	i
20000242:	6813      	ldr	r3, [r2, #0]
20000244:	2b00      	cmp	r3, #0
20000246:	d0fc      	beq.n	20000242 <mutex_exit+0xa>
20000248:	f3bf 8f5f 	dmb	sy
2000024c:	2304      	movs	r3, #4
2000024e:	56c3      	ldrsb	r3, [r0, r3]
20000250:	2b00      	cmp	r3, #0
20000252:	db0a      	blt.n	2000026a <mutex_exit+0x32>
20000254:	23ff      	movs	r3, #255	; 0xff
20000256:	7103      	strb	r3, [r0, #4]
20000258:	6803      	ldr	r3, [r0, #0]
2000025a:	f3bf 8f5f 	dmb	sy
2000025e:	2200      	movs	r2, #0
20000260:	601a      	str	r2, [r3, #0]
20000262:	f381 8810 	msr	PRIMASK, r1
20000266:	bf40      	sev
20000268:	bd10      	pop	{r4, pc}
2000026a:	4b03      	ldr	r3, [pc, #12]	; (20000278 <mutex_exit+0x40>)
2000026c:	4a03      	ldr	r2, [pc, #12]	; (2000027c <mutex_exit+0x44>)
2000026e:	21a9      	movs	r1, #169	; 0xa9
20000270:	4803      	ldr	r0, [pc, #12]	; (20000280 <mutex_exit+0x48>)
20000272:	f000 f8b1 	bl	200003d8 <____assert_func_veneer>
20000276:	46c0      	nop			; (mov r8, r8)
20000278:	1000b3a4 	.word	0x1000b3a4
2000027c:	1000b33c 	.word	0x1000b33c
20000280:	1000b350 	.word	0x1000b350

20000284 <flash_init_boot2_copyout>:
20000284:	4b09      	ldr	r3, [pc, #36]	; (200002ac <flash_init_boot2_copyout+0x28>)
20000286:	781b      	ldrb	r3, [r3, #0]
20000288:	2b00      	cmp	r3, #0
2000028a:	d10d      	bne.n	200002a8 <flash_init_boot2_copyout+0x24>
2000028c:	2b3f      	cmp	r3, #63	; 0x3f
2000028e:	dc08      	bgt.n	200002a2 <flash_init_boot2_copyout+0x1e>
20000290:	009a      	lsls	r2, r3, #2
20000292:	2180      	movs	r1, #128	; 0x80
20000294:	0549      	lsls	r1, r1, #21
20000296:	1851      	adds	r1, r2, r1
20000298:	6808      	ldr	r0, [r1, #0]
2000029a:	4905      	ldr	r1, [pc, #20]	; (200002b0 <flash_init_boot2_copyout+0x2c>)
2000029c:	5050      	str	r0, [r2, r1]
2000029e:	3301      	adds	r3, #1
200002a0:	e7f4      	b.n	2000028c <flash_init_boot2_copyout+0x8>
200002a2:	4b02      	ldr	r3, [pc, #8]	; (200002ac <flash_init_boot2_copyout+0x28>)
200002a4:	2201      	movs	r2, #1
200002a6:	701a      	strb	r2, [r3, #0]
200002a8:	4770      	bx	lr
200002aa:	46c0      	nop			; (mov r8, r8)
200002ac:	20008fd8 	.word	0x20008fd8
200002b0:	200089d8 	.word	0x200089d8

200002b4 <flash_enable_xip_via_boot2>:
200002b4:	b510      	push	{r4, lr}
200002b6:	4b02      	ldr	r3, [pc, #8]	; (200002c0 <flash_enable_xip_via_boot2+0xc>)
200002b8:	3301      	adds	r3, #1
200002ba:	4798      	blx	r3
200002bc:	bd10      	pop	{r4, pc}
200002be:	46c0      	nop			; (mov r8, r8)
200002c0:	200089d8 	.word	0x200089d8

200002c4 <flash_cs_force>:
200002c4:	2800      	cmp	r0, #0
200002c6:	d00a      	beq.n	200002de <flash_cs_force+0x1a>
200002c8:	2303      	movs	r3, #3
200002ca:	021b      	lsls	r3, r3, #8
200002cc:	4a05      	ldr	r2, [pc, #20]	; (200002e4 <flash_cs_force+0x20>)
200002ce:	6812      	ldr	r2, [r2, #0]
200002d0:	4053      	eors	r3, r2
200002d2:	22c0      	movs	r2, #192	; 0xc0
200002d4:	0092      	lsls	r2, r2, #2
200002d6:	4013      	ands	r3, r2
200002d8:	4a03      	ldr	r2, [pc, #12]	; (200002e8 <flash_cs_force+0x24>)
200002da:	6013      	str	r3, [r2, #0]
200002dc:	4770      	bx	lr
200002de:	2302      	movs	r3, #2
200002e0:	e7f3      	b.n	200002ca <flash_cs_force+0x6>
200002e2:	46c0      	nop			; (mov r8, r8)
200002e4:	4001800c 	.word	0x4001800c
200002e8:	4001900c 	.word	0x4001900c

200002ec <flash_do_cmd>:
200002ec:	b5f0      	push	{r4, r5, r6, r7, lr}
200002ee:	46d6      	mov	lr, sl
200002f0:	464f      	mov	r7, r9
200002f2:	4646      	mov	r6, r8
200002f4:	b5c0      	push	{r6, r7, lr}
200002f6:	0006      	movs	r6, r0
200002f8:	000d      	movs	r5, r1
200002fa:	0014      	movs	r4, r2
200002fc:	2318      	movs	r3, #24
200002fe:	4698      	mov	r8, r3
20000300:	881b      	ldrh	r3, [r3, #0]
20000302:	2714      	movs	r7, #20
20000304:	8838      	ldrh	r0, [r7, #0]
20000306:	4928      	ldr	r1, [pc, #160]	; (200003a8 <flash_do_cmd+0xbc>)
20000308:	4798      	blx	r3
2000030a:	4682      	mov	sl, r0
2000030c:	4643      	mov	r3, r8
2000030e:	881b      	ldrh	r3, [r3, #0]
20000310:	8838      	ldrh	r0, [r7, #0]
20000312:	4926      	ldr	r1, [pc, #152]	; (200003ac <flash_do_cmd+0xc0>)
20000314:	4798      	blx	r3
20000316:	4681      	mov	r9, r0
20000318:	4643      	mov	r3, r8
2000031a:	881b      	ldrh	r3, [r3, #0]
2000031c:	8838      	ldrh	r0, [r7, #0]
2000031e:	4924      	ldr	r1, [pc, #144]	; (200003b0 <flash_do_cmd+0xc4>)
20000320:	4798      	blx	r3
20000322:	0007      	movs	r7, r0
20000324:	4653      	mov	r3, sl
20000326:	2b00      	cmp	r3, #0
20000328:	d00d      	beq.n	20000346 <flash_do_cmd+0x5a>
2000032a:	464b      	mov	r3, r9
2000032c:	2b00      	cmp	r3, #0
2000032e:	d00a      	beq.n	20000346 <flash_do_cmd+0x5a>
20000330:	2800      	cmp	r0, #0
20000332:	d008      	beq.n	20000346 <flash_do_cmd+0x5a>
20000334:	f7ff ffa6 	bl	20000284 <flash_init_boot2_copyout>
20000338:	47d0      	blx	sl
2000033a:	47c8      	blx	r9
2000033c:	2000      	movs	r0, #0
2000033e:	f7ff ffc1 	bl	200002c4 <flash_cs_force>
20000342:	0021      	movs	r1, r4
20000344:	e00f      	b.n	20000366 <flash_do_cmd+0x7a>
20000346:	4b1b      	ldr	r3, [pc, #108]	; (200003b4 <flash_do_cmd+0xc8>)
20000348:	4a1b      	ldr	r2, [pc, #108]	; (200003b8 <flash_do_cmd+0xcc>)
2000034a:	2180      	movs	r1, #128	; 0x80
2000034c:	481b      	ldr	r0, [pc, #108]	; (200003bc <flash_do_cmd+0xd0>)
2000034e:	f000 f843 	bl	200003d8 <____assert_func_veneer>
20000352:	2b00      	cmp	r3, #0
20000354:	d007      	beq.n	20000366 <flash_do_cmd+0x7a>
20000356:	2900      	cmp	r1, #0
20000358:	d005      	beq.n	20000366 <flash_do_cmd+0x7a>
2000035a:	23c0      	movs	r3, #192	; 0xc0
2000035c:	055b      	lsls	r3, r3, #21
2000035e:	6e1b      	ldr	r3, [r3, #96]	; 0x60
20000360:	702b      	strb	r3, [r5, #0]
20000362:	3901      	subs	r1, #1
20000364:	3501      	adds	r5, #1
20000366:	0023      	movs	r3, r4
20000368:	430b      	orrs	r3, r1
2000036a:	d012      	beq.n	20000392 <flash_do_cmd+0xa6>
2000036c:	23c0      	movs	r3, #192	; 0xc0
2000036e:	055b      	lsls	r3, r3, #21
20000370:	6a9a      	ldr	r2, [r3, #40]	; 0x28
20000372:	2308      	movs	r3, #8
20000374:	4013      	ands	r3, r2
20000376:	0792      	lsls	r2, r2, #30
20000378:	d5eb      	bpl.n	20000352 <flash_do_cmd+0x66>
2000037a:	2c00      	cmp	r4, #0
2000037c:	d0e9      	beq.n	20000352 <flash_do_cmd+0x66>
2000037e:	1b0a      	subs	r2, r1, r4
20000380:	2a0d      	cmp	r2, #13
20000382:	d8e6      	bhi.n	20000352 <flash_do_cmd+0x66>
20000384:	7830      	ldrb	r0, [r6, #0]
20000386:	22c0      	movs	r2, #192	; 0xc0
20000388:	0552      	lsls	r2, r2, #21
2000038a:	6610      	str	r0, [r2, #96]	; 0x60
2000038c:	3c01      	subs	r4, #1
2000038e:	3601      	adds	r6, #1
20000390:	e7df      	b.n	20000352 <flash_do_cmd+0x66>
20000392:	2001      	movs	r0, #1
20000394:	f7ff ff96 	bl	200002c4 <flash_cs_force>
20000398:	47b8      	blx	r7
2000039a:	f7ff ff8b 	bl	200002b4 <flash_enable_xip_via_boot2>
2000039e:	bc1c      	pop	{r2, r3, r4}
200003a0:	4690      	mov	r8, r2
200003a2:	4699      	mov	r9, r3
200003a4:	46a2      	mov	sl, r4
200003a6:	bdf0      	pop	{r4, r5, r6, r7, pc}
200003a8:	00004649 	.word	0x00004649
200003ac:	00005845 	.word	0x00005845
200003b0:	00004346 	.word	0x00004346
200003b4:	1000c250 	.word	0x1000c250
200003b8:	1000c120 	.word	0x1000c120
200003bc:	1000c15c 	.word	0x1000c15c

200003c0 <__aeabi_idiv0>:
200003c0:	4770      	bx	lr
200003c2:	46c0      	nop			; (mov r8, r8)
200003c4:	0000      	movs	r0, r0
	...

200003c8 <____wrap___aeabi_lmul_veneer>:
200003c8:	b401      	push	{r0}
200003ca:	4802      	ldr	r0, [pc, #8]	; (200003d4 <____wrap___aeabi_lmul_veneer+0xc>)
200003cc:	4684      	mov	ip, r0
200003ce:	bc01      	pop	{r0}
200003d0:	4760      	bx	ip
200003d2:	bf00      	nop
200003d4:	10006b91 	.word	0x10006b91

200003d8 <____assert_func_veneer>:
200003d8:	b401      	push	{r0}
200003da:	4802      	ldr	r0, [pc, #8]	; (200003e4 <____assert_func_veneer+0xc>)
200003dc:	4684      	mov	ip, r0
200003de:	bc01      	pop	{r0}
200003e0:	4760      	bx	ip
200003e2:	bf00      	nop
200003e4:	10004795 	.word	0x10004795

200003e8 <__time_us_64_veneer>:
200003e8:	b401      	push	{r0}
200003ea:	4802      	ldr	r0, [pc, #8]	; (200003f4 <__time_us_64_veneer+0xc>)
200003ec:	4684      	mov	ip, r0
200003ee:	bc01      	pop	{r0}
200003f0:	4760      	bx	ip
200003f2:	bf00      	nop
200003f4:	100040c9 	.word	0x100040c9

200003f8 <__best_effort_wfe_or_timeout_veneer>:
200003f8:	b401      	push	{r0}
200003fa:	4802      	ldr	r0, [pc, #8]	; (20000404 <__best_effort_wfe_or_timeout_veneer+0xc>)
200003fc:	4684      	mov	ip, r0
200003fe:	bc01      	pop	{r0}
20000400:	4760      	bx	ip
20000402:	bf00      	nop
20000404:	10003fa5 	.word	0x10003fa5

20000408 <krusader>:
	...
20007408:	f88503a9 ff8520a9 f9857ca9 ddbd21a2     ..... ...|...!..
20007418:	ffef20fd caf7d0ca f071209a 8500a9d8     . ....... q.....
20007428:	f0ce205b 58860fa2 ce205986 203fa9fe     [ .....X.Y ...? 
20007438:	c920ffef fed820fe e0f008c9 08f00dc9     .. .. ..........
20007448:	95ffef20 edd0e800 d0f00fa5 04f010a5      ...............
20007458:	0ed020c9 95bd0da2 f00fc5fd f6d0ca0e     . ..............
20007468:	03a04848 6f206868 20b1d0f4 1c4cf0d7     HH..hh o... ..L.
20007478:	a800a9f0 fe91fe85 fd85ffa5 fa8500a9     ................
20007488:	fc85fb85 f0712060 02d011a5 fe9101a9     ....` q.........
20007498:	f0ab2060 ce20ccf0 a63fa5fe fb874c3e     ` .... ...?.>L..
200074a8:	f0f0ab20 fece20bd a2003e6c f00fb502      .... ..l>......
200074b8:	fa204808 f0e868f7 f5a560ab f6a53e85     .H ..h...`...>..
200074c8:	a5603f85 a5f5853e 60f6853f 27a220a9     .?`.>...?..`. .'
200074d8:	caffff9d bd60fad0 bd48fda3 6048fdb0     ......`...H...H`
200074e8:	4cf07120 7820f159 f11e20f0 542003f0      q.LY. x. .... T
200074f8:	b100a0f2 200ef0fc e220f273 e004adf4     ....... s. .....
20007508:	04adeff0 502060e0 fece20f2 fbb504a2     .....` P. ......
20007518:	e0ffdc20 2003d003 d0cafea2 00a060f1      ...... .....`..
20007528:	01a23084 25f00fb5 07f020c9 03f024c9     .0.....%. ...$..
20007538:	e6f1d0e8 9524a930 f984200f a55ff0e8     ....0.$.. ...._.
20007548:	0054993e 993fa5c8 d0c80054 6030a4d7     >.T...?.T.....0`
20007558:	88f11e20 c82048d0 f11e20f1 983ff0e8      ....H .. ....?.
20007568:	502006d0 039018f2 20f25420 ffe0f2db     .. P.... T. ....
20007578:	2f86abf0 5185fda5 fca55385 65185085     .../...Q.S...P.e
20007588:	9052852f 2053e602 2620f1a1 b900a0f2     /.R...S .. &....
20007598:	fc910000 d02fc4c8 f4e220f6 624ccdd0     ....../.. ....Lb
200075a8:	b5fca2f0 d0e848fe f25020fa e5fca538     .....H... P.8...
200075b8:	a5548550 8551e5fd d054e655 a255e602     P.T...Q.U.T...U.
200075c8:	f9956804 60fad0ca f0f11e20 203084d1     .h.....` .....0 
200075d8:	ffe0f254 fca5c8f0 fda55285 30a55385     T........R...S.0
200075e8:	a60cf04a e456a457 c402d055 c8af9054     J...W.V.U...T...
200075f8:	86e801d0 20548455 fca5f254 fda55085     ....U.T T....P..
20007608:	a1205185 a600a0f1 b10ef055 c8529150     .Q .....U...P.R.
20007618:	51e6f9d0 d0ca53e6 f054a6f2 9150b108     ...Q.S....T...P.
20007628:	d0cac852 55a660f8 51658a18 8a185185     R....`.U..eQ.Q..
20007638:	53855365 f054a4e8 07f0880e 529150b1     eS.S..T......P.R
20007648:	b1f9d088 88529150 53c651c6 60edd0ca     ....P.R..Q.S...`
20007658:	5585ffa9 a4f07820 d0fac454 e455a606     ...U x..T.....U.
20007668:	a051f0fb fcb1c8ff f098fbd0 e220c845     ..Q.........E. .
20007678:	20e4d0f4 2f86fece c8f3f220 a2febf20     ... .../ ... ...
20007688:	f004b500 ffef2006 a6f6d0e8 d820602f     ..... ....../` .
20007698:	d009c9fe c920a902 a81a1020 68686868     ...... . ...hhhh
200076a8:	37f008c0 0ad00dc0 25f004e0 009500a9     ...7.......%....
200076b8:	ffa258f0 1027e060 c9603816 c9faf02e     .X..`.'..8`.....
200076c8:	c90c3030 c9f2303a c9043041 18ea305b     00..:0..A0..[0..
200076d8:	aa02a960 00a90085 20600185 00a9f0cc     `.........` ....
200076e8:	ce201d85 febf20fe 0aa904a2 20f39f20     .. .. ...... .. 
200076f8:	04a5f3c7 0df03bc9 9f200ea9 f3c720f3     .....;.... .. ..
20007708:	9f201da9 2000a9f3 00a2f39f 20a95186     .. .... .....Q. 
20007718:	04a95585 01a95085 db205485 c004a4f3     .U...P...T .....
20007728:	a904d03b 8a64d00b 56661848 b53803a2     ;.....d.H.fV..8.
20007738:	a040e90a 56664a05 d0885766 eed0caf8     ..@..JfVfW......
20007748:	2cbd42a2 d056c5fc fc6ebd07 03f057c5     .B.,..V...n..W..
20007758:	caefd0ca d0ffc98a c90ba51a a20cd02e     ................
20007768:	dd0ca505 09f0fdbd 68f8d0ca 6f4c01a0     ...........h..Lo
20007778:	a80acaf4 94aa68c8 0fa9e800 01a95085     .....h.......P..
20007788:	db205485 e62f86f3 851da92f 8500a950     .T ..././...P...
20007798:	20558554 2fe4f3db 9dca04d0 8560ffff     T.U .../......`.
200077a8:	f28e2054 ef20fb90 e80095ff 05f020c9     T .... ...... ..
200077b8:	edd054e4 f054a560 f054e4e8 9520a9f7     .T..`.T...T... .
200077c8:	ffef2000 bdeed0e8 20c9ffff 8e2007f0     . ......... .. .
200077d8:	d020c9f2 e80095f9 a0ffef4c f050b100     .. .....L.....P.
200077e8:	f055c50b e8009507 f1d050e6 009554a5     ..U......P...T..
200077f8:	cc2060e8 a200a0f0 f0fcb104 d002c94f     .` .........O...
20007808:	00a9c805 01c948f0 009506f0 e9d0c8e8     .....H..........
20007818:	3bc904a5 0ba204d0 b1c82fd0 86caaafc     ...;...../......
20007828:	1042e03c 20489809 a868fabc 4a8a08d0     <.B...H ..h....J
20007838:	2ea90c85 a2c80b85 f0fcb10f d001c911     ................
20007848:	1da2c805 0095f3d0 edd0c8e8 0095fea2     ................
20007858:	f49a2060 20fece20 be20f612 0ff0e8f4     ` .. .. .. .....
20007868:	f6d0ffe0 2a2058e6 03f0e8f6 20f6124c     .....X *....L.. 
20007878:	05a2fece 20fdc3bd d0caffef 8a1898f7     ....... ........
20007888:	d0880369 03a2a8fb 20fdc7b9 cac8ffef     i.......... ....
20007898:	a5caf6d0 4c26d059 7820f273 855885f0     ....Y.&Ls. x..X.
200078a8:	85e985eb 85f8a5f5 f60520f6 00a9ea86     ......... ......
200078b8:	29852b85 f9a44685 842a84c8 f2206047     .+.).F....*.G` .
200078c8:	f0fee0f3 f004e01d 8500a918 85588559     ............Y.X.
200078d8:	f55e205a 1df0ffe0 fcb100a0 d0c803f0     Z ^.............
200078e8:	fca5c8f9 65184484 90fc8544 e6fde602     .....D.eD.......
200078f8:	e602d0fa 3ca460fb a6fccfb9 117d183d     .....`.<....=.}.
20007908:	f00ce0fd d002e014 d022c017 c0686902     .........."..ih.
20007918:	c00d3028 6909b030 d035c008 04691803     (0..0..i..5...i.
20007928:	0ad023c0 06300ae0 f16902f0 49202f69     .#....0...i.i/ I
20007938:	d000c9f5 f5492003 cabaf08a 3ea5b7f0     ..... I........>
20007948:	053009e0 a5f54920 9100a03f d0f5e6f5     ..0. I..?.......
20007958:	60f6e602 e0f6c720 a09bd0ff 04a56002     ...` ........`..
20007968:	91f03bc9 2ee00ba6 0ca60dd0 03d04de0     .;...........M..
20007978:	e0f5d04c c947f03d 2003f020 0ba5f906     L...=.G. .. ....
20007988:	d0d02ec9 0ca500a2 19f053c9 a1205885     .........S...X .
20007998:	0cf0e8f7 0ca63ea5 a8f057e0 a9f03fa6     .....>...W...?..
200079a8:	ffa203a0 c90fb560 e8f5d027 f0f00fb5     ....`...'.......
200079b8:	09f027c9 e0f54920 f0f0d00e 588560e3     .'.. I.......`.X
200079c8:	90f2bf20 2000a2db f0e8f7a1 f9094cd3      ...... .....L..
200079d8:	90f2bf20 a500a0cb c914f00f 2010f020      ........... .. 
200079e8:	00a2f610 84200fa5 b4f0e8f9 20f0c320     ...... ..... .. 
200079f8:	ffe0f906 2a20c7f0 f0ffe0f6 fead20c0     ...... *..... ..
20007a08:	102000a9 8600a2f6 a6ec86ee 60ed86f9     .. ............`
20007a18:	f6a55885 58a4f5a6 20480df0 e068fea2     .X.....X..H ..h.
20007a28:	3803d000 4cca01e9 2ba6fb87 598676f0     ...8...L...+.v.Y
20007a38:	f5a54586 48f6a548 a0f4ae20 8558a500     .E..H..H .....X.
20007a48:	b15a8448 d02ec946 b1588502 001d9946     H.Z.F.....X.F...
20007a58:	d006c0c8 8546b1f6 46b1c8f5 b1c8f685     ......F....F....
20007a68:	20548546 ffe0f8a5 5aa54bf0 54a504f0     F.T .....K.Z...T
20007a78:	ea205091 b100a0f7 f080c9f5 c91f2928     .P .........()..
20007a88:	2022f010 3ea5f54d 18f54420 096946a5     .." M..> D...Fi.
20007a98:	02904685 48a547e6 45c65885 85689dd0     .F...G.H.X.E..h.
20007aa8:	f58568f6 f7892060 09f0ffe0 3ea501a0     .h..` .........>
20007ab8:	8b4cf591 2000a0f6 46b1fec9 c8ffef20     ..L.... ...F ...
20007ac8:	f6d006c0 a2d7d088 a53d86ff f00fa63c     ..........=.<...
20007ad8:	d020e004 f012c913 2000a209 ffe0f764     .. ........ d...
20007ae8:	a26001f0 f7644c01 0ef023e0 642003a2     ..`..Ld..#.... d
20007af8:	f0ffe0f7 4c0fa528 2cc9f776 02a275f0     ....(..Lv..,.u..
20007b08:	0bf035c9 07f022c9 e0f76420 86d3f0ff     .5...".. d......
20007b18:	a120ca3d 5bf0e8f7 57d03fa5 a500a260     =. ....[.?.W`...
20007b28:	d028c90f fa20e801 f0ffe0f7 f9c520b5     ..(... ...... ..
20007b38:	aef0ffe0 06e03d86 3ca50ed0 089028c9     .....=.....<.(..
20007b48:	04b030c9 28d00ca2 7db908a0 d03cc5fd     .0.....(...}..<.
20007b58:	fd85be0e 18f03de4 e4fd8dbe 8811f03d     .....=......=...
20007b68:	3da6e8d0 b1dd3ca5 dd0890fc 03b0fcc0     ...=.<..........
20007b78:	a2603d86 00a260ff 3f863e86 06d02ac9     .=`..`...>.?.*..
20007b88:	20f0ba20 fa20f824 3ea538f7 3e85f5e5      .. $. ..8.>...>
20007b98:	f6e53fa5 04f03f85 d7d03fe6 3ec63ec6     .?...?...?...>.>
20007ba8:	f00fb560 f027c9ce f7fa4c03 8500a9e8     `.....'..L......
20007bb8:	850fb53f 0fb5e83e b7d027c9 f00fb5e8     ?...>....'......
20007bc8:	f020c97c b5e84878 fa73200f 02d0ffe0     |. .xH... s.....
20007bd8:	54856068 f02bc968 1854a509 0169ff49     h`.Th.+...T.I.i.
20007be8:	5aa55485 54a504f0 54a55091 3fc60210     .T.Z...T.P.T...?
20007bf8:	853e6518 e602903e 5686603f 3cc90fb5     .e>.>...?`.V...<
20007c08:	3ec904f0 588505d0 200fb5e8 09b0f2bb     ...>...X... ....
20007c18:	e0f98420 d024f0ff 202f860b ffe0f887      .....$.../ ....
20007c28:	2fa61bf0 200fb5e8 f8b0f2bb 04f02bc9     .../... .....+..
20007c38:	0ad02dc9 e0f7c520 a0e9d0ff 00a06003     .-.. ........`..
20007c48:	3cc958a5 3ec908f0 3fa506d0 3f843e85     .X.<...>...?.>.?
20007c58:	1d990fb5 c90af000 e806f020 d00ee0c8     ........ .......
20007c68:	9900a9ef 56a4001d 0f9924a9 3fa5c800     .......V.$.....?
20007c78:	a42003f0 203ea5fa 00a2faa4 0f991db5     .. ...> ........
20007c88:	e8baf000 a0f5d0c8 f006c000 f2bb2018     ............. ..
20007c98:	1d990990 0fb5e800 a9eed0c8 001d9920     ............ ...
20007ca8:	d006c0c8 851da9f8 8600a242 8506a943     ........B...C...
20007cb8:	8508a92e c91da52d 2011f02e 13f0f9b3     ....-...... ....
20007cc8:	40b106a0 b1c83e85 603f8540 b32003a2     ...@.>..@.?`.. .
20007cd8:	a5edd0f9 204fd058 2aa5f0ba 29a55185     ....X.O ...*.Q.)
20007ce8:	0af02ba6 90096918 ca51e602 5085f6d0     .+...i....Q....P
20007cf8:	2ba52be6 321055c9 5a851da9 6c205285     .+.+.U.2...Z.R l
20007d08:	918ac8f9 ba206050 8504a9f0 a2428552     ....P` .....R.B.
20007d18:	a9438600 a52e8506 d02ec904 2003a202     ..C............ 
20007d28:	0bf0f9b3 05a06868 04a002d0 a960ffa2     ....hh........`.
20007d38:	e004a604 3817f02e 08e9e9a5 eac602b0     .......8........
20007d48:	ebe6e985 5085e4f0 5185eaa5 eda51ed0     .......P...Q....
20007d58:	eca55185 0af0eea6 90086918 ca51e602     .Q.......i....Q.
20007d68:	5085f6d0 eea5eee6 be1020c9 538400a0     ...P..... .....S
20007d78:	52b106a2 cac85091 3ea5f8d0 a5c85091     ...R.P.....>.P..
20007d88:	6050913f a4d024c9 3a201e84 f0ffe0fa     ?.P`.$.... :....
20007d98:	a01d859b ca3f8400 c90fb5ca 2006f024     ......?.....$.. 
20007da8:	b038fa73 fa8f2003 c8003e99 e7d01dc4     s.8.. ...>......
20007db8:	b5601ea4 b54085e9 b54185ea 202c85eb     ..`...@...A..., 
20007dc8:	ffe0fa4e a900a260 c00fb404 1804d028     N...`.......(...
20007dd8:	48e80369 a8fa3a20 c93ca5ca c904f012     i..H :....<.....
20007de8:	c801d038 4ff0e868 1803f088 b5a80669     8...h..O....i...
20007df8:	c904f00f a50dd020 f028c90f 100fc03a     .... .....(.:...
20007e08:	60aa9836 0bd029c9 0f8520a9 c90fb5e8     6..`.)... ......
20007e18:	b5dcd02c d02cc90f 0fb5e81e 0df058c9     ,.....,......X..
20007e28:	13d059c9 28c90fa5 0d950df0 0db5c8c8     .Y.....(........
20007e38:	03f029c9 a2b8d0e8 00a060ff 9020c8e8     .).......`.... .
20007e48:	d0ffc9fa f04a98f7 b003c9ee 2ca560ea     ......J......`.,
20007e58:	00a2e5f0 c4c8ffa0 b1def02e f042d140     ............@.B.
20007e68:	2ce4e8f5 40a5d1f0 852d6518 e6e59040     ...,...@.e-.@...
20007e78:	20e1b041 ffc9fa90 2048bdf0 c9cafa8f     A.. ......H ....
20007e88:	6802d0ff 68448560 0a0a0a0a e8604465     ...h`.Dh....eD`.
20007e98:	30490fb5 08900ac9 fac98869 0f290390     ..I0....i.....).
20007ea8:	60ffa960 4a4a4a48 faad204a 090f2968     `..`HJJJJ ..h)..
20007eb8:	903ac930 99066902 60c8000f 85fc2dbd     0.:..i.....`.-..
20007ec8:	fc6fbd56 00a25785 05a000a9 56265706     V.o..W.......W&V
20007ed8:	f8d0882a 0b954069 03f05ba4 e8ffef20     *...i@...[.. ...
20007ee8:	e4d003e0 f0ab2060 c32003f0 faff20f0     ....` .... .. ..
20007ef8:	85fba120 adf684f5 f1f0e004 20e004ad      .............. 
20007f08:	f5a1fb8e 05904aa8 2911b06a bdaa4a87     .....J..j..).J..
20007f18:	0490fd20 4a4a4a4a 04d00f29 00a9fca0      ...JJJJ).......
20007f28:	fd64bdaa 03292985 20982a85 00a0fbca     ..d..))..*. ....
20007f38:	20f5b148 01a2ffdc c4fb9a20 f190c82a     H.. .... ...*...
20007f48:	5b8603a2 f09004c0 bc20aa68 fb9820fa     ...[....h. .. ..
20007f58:	06a22aa4 1ef003e0 0e902906 20fd77bd     .*.......)...w. 
20007f68:	71bdffef 2003f0fd d0caffef 605b86e7     ...q... ......[`
20007f78:	20e53088 29a5ffdc f5b1e8c9 a420f290     .0. ...)...... .
20007f88:	d0e8aafb 2098c801 4c8affdc ce20ffdc     ....... ...L.. .
20007f98:	a6f6a5fe fb8720f5 c92003a2 fad0cafe     ..... .... .....
20007fa8:	2aa53860 10aaf6a4 f5658801 60c80190     `8.*......e....`
20007fb8:	384c4180 387c386c 312a300a 336a324a     .AL8l8|8.0*1J2j3
20007fc8:	239e239c 200c2004 54852289 aebd1aa2     .#.#. . .".T....
20007fd8:	d054c5fb fbafbd04 d0caca60 4a54a5f1     ..T.....`.....TJ
20007fe8:	854a4a4a 2954a555 d008c90f 6055a503     JJJ.U.T)......U`
20007ff8:	1f2954a5 06d010c9 694a55a5 54a56038     .T)......UJi8`.T
20008008:	06f09f29 0ac90f29 55a506d0 60106918     )...)......U.i.`
20008018:	298a54a6 d012c91f 0a8aca01 0a2a8069     .T.)........i.*.
20008028:	20691f29 013023c9 8ae8aa60 831b8260     ).i .#0.`...`...
20008038:	831b8299 a0a62199 4b1b4b1b 54211499     .....!...K.K..!T
20008048:	9582954b a0a6a683 738221a4 12a4a483     K........!.s....
20008058:	1c619d9d 2b0b7c1c 1b619d09 64930c98     ..a..|.+..a....d
20008068:	21619d93 1314534b 10101515 20141113     ..a!KS......... 
20008078:	02462006 72520212 b22c7242 9648b008     . F...RrBr,...H.
20008088:	1282e442 02322632 70f07026 c430e030     B...2&2.&p.p0.0.
20008098:	32346884 82303232 0206e488 d8866002     .h42220......`..
200080a8:	30e4e4d8 60864630 a6865218 628ae6c6     ...00F.`.R.....b
200080b8:	25300082 34282039 20282828 38382828     ..0%9 (4((( ((88
200080c8:	42303420 30363438 34393030 08393930      40B84600094099.
200080d8:	48382818 88786858 c8b8a898 00f8e8d8     .(8HXhx.........
200080e8:	403a141a 8a7a605a cabaaa9a 00faeada     ..:@Z`z.........
200080f8:	80602010 01e0c0a0 81614121 02e1c1a1     . `.....!Aa.....
20008108:	82624222 40e2c2a2 70503010 f0d0b090     "Bb....@.0Pp....
20008118:	00080080 14140400 0c100011 3c2c181c     ..............,<
20008128:	33ff220f 73ff62cb 33ff2203 77ff66cb     .".3.b.s.".3.f.w
20008138:	33ff200f 70ff60cb 39ff220f 7dff66cb     . .3.`.p.".9.f.}
20008148:	33ff220b 73ffa6cb 33ff2211 87ffa6cb     .".3...s.".3....
20008158:	33ff2201 70ff60cb 33ff2201 70ff60cb     .".3.`.p.".3.`.p
20008168:	78653124 82812100 92914d59 9d854a86     $1ex.!..YM...J..
20008178:	00595a49 00242458 232c292c 22122428     IZY.X$$.,),#($."
20008188:	35252423 0b0a3736 0c0b050b 050a0b0b     #$%567..........
20008198:	0c050505 4c4e0505 524d4558 24214944     ......NLXEMRDI!$
200081a8:	00505641 f1f1f0f0 f1faf0f1 f0f4ffff     AVP.............
200081b8:	c7e5dff0 e49f054f 500e1a58 57428490     ....O...X..P..BW
200081c8:	004d3d53 52523a20 4e4d0045 44410045     S=M. :RRE.MNE.AD
200081d8:	59530044 564f004e 59530046 2e33004d     D.SYN.OVF.SYM.3.
200081e8:	454e2031 57455353 4b454e20 20425920     1 NESSEW NEK YB 
200081f8:	35433032 45522036 55534144 000d4b52     20C56 REDASURK..
20008208:	58595350 00484c41 44495a43 56000042     PSYXALH.CZIDB..V
20008218:	f485004e f284f386 d8f08568 68f58568     N.......h...h..h
20008228:	86baf685 fece20f1 ffbd05a2 ffef20fd     ..... ....... ..
20008238:	b5fea220 ffdc20ef cafec920 f0a5ecd0      .... .. .......
20008248:	900a08a2 07bd4808 ffef20fe f2d0ca68     .....H... ..h...
20008258:	20faff20 a220fece fea720fe ffd907a0      .. .. .. ......
20008268:	882cf0fd 52c9f8d0 21c911f0 1b2006d0     ..,....R...!.. .
20008278:	fe254cff dbd024c9 20ff0f4c f1a6fece     .L%..$..L.. ....
20008288:	a4f3a69a 48f0a5f2 58f4a528 a200f56c     .......H(..Xl...
20008298:	fea720fe d0e81195 fa7320f8 3800ef99     . ....... s....8
200082a8:	2da983b0 20ffef4c ef4cfed8 fece20ff     ...-L.. ..L.. ..
200082b8:	04b500a2 e8ffef20 f6d006e0 a5fec920     .... ....... ...
200082c8:	ffe520fb dc20faa5 4c20a9ff 0da9ffef     . .... ... L....
200082d8:	a9ffef20 ffef4c0a f0e004ad 000060fb      ....L.......`..
	...
20008308:	7fa058d8 a9d0128c e0048da7 a9d0138d     .X..............
20008318:	ffef205c 90ff1b20 20f9b0f6 01a0fece     \ .. ...... ....
20008328:	20f83088 0099fea7 f00dc903 f05fc90b     .0. .........._.
20008338:	f01bc9ef eb10c8da 00a9ffa0 2b850aaa     ...............+
20008348:	0300b9c8 02d00dc9 80096038 f090aec9     ........8`......
20008358:	bac9ecf0 d2c9e7f0 28863df0 2a842986     .........=.(.).*
20008368:	490300b9 900ac930 c9886906 0a1190fa     ...I0....i......
20008378:	a20a0a0a 28260a04 d0ca2926 e0d0c8f8     ......&(&)......
20008388:	02d02ac4 2b246018 28a51050 26e62681     .*...`$+P..(.&.&
20008398:	27e6afd0 6cff414c 27300024 27b502a2     ...'LA.l$.0'...'
200083a8:	23952595 d0f7d0ca fece2012 dc2025a5     .%.#..... ...% .
200083b8:	2024a5ff 3aa9ffdc 20ffef20 24a1fec9     ..$ ...: .. ...$
200083c8:	86ffdc20 c524a52b e525a528 e6c5b029      ...+.$.(.%.)...
200083d8:	e602d024 2924a525 00cc1007 4a4a4a48     $...%.$)....HJJJ
200083e8:	ffe5204a 090f2968 903ac930 8d066902     J ..h)..0.:..i..
200083f8:	0060e001 00000000 0f000000 fe12ff00     ..`.............

20008408 <running>:
20008408:	                                         .

20008409 <status>:
20008409:	                                          

2000840a <striped_spin_lock_num>:
2000840a:	                                         ..

2000840c <irq_handler_chain_slots>:
2000840c:	00000000 	.word	0x00000000
20008410:	00010000 	.word	0x00010000
	...
2000841c:	00020000 	.word	0x00020000
	...
20008428:	00030000 	.word	0x00030000
	...
20008434:	00ff0000 	.word	0x00ff0000
20008438:	00000000 	.word	0x00000000

2000843c <irq_handler_chain_first_slot>:
2000843c:	b500      	push	{lr}
2000843e:	6848      	ldr	r0, [r1, #4]
20008440:	3101      	adds	r1, #1
20008442:	468e      	mov	lr, r1
20008444:	4700      	bx	r0

20008446 <irq_handler_chain_remove_tail>:
20008446:	4670      	mov	r0, lr
20008448:	3809      	subs	r0, #9
2000844a:	4901      	ldr	r1, [pc, #4]	; (20008450 <irq_handler_chain_remove_tail+0xa>)
2000844c:	4788      	blx	r1
2000844e:	bd00      	pop	{pc}
20008450:	100033dd 	.word	0x100033dd

20008454 <default_alarm_pool>:
20008454:	2000846c 00000000 20008500 20008b0c     l.. ....... ... 
	...

2000846c <default_alarm_pool_heap>:
2000846c:	20008b1c 00000000 00000000 00000010     ... ............
2000847c:	00000000                                ....

20008480 <aeabi_bits_funcs>:
20008480:	00003350 	.word	0x00003350
20008484:	0000334c 	.word	0x0000334c
20008488:	00003354 	.word	0x00003354
2000848c:	00003352 	.word	0x00003352

20008490 <aeabi_bits_funcs_end>:
20008490:	0000534d 	.word	0x0000534d
20008494:	0000434d 	.word	0x0000434d
20008498:	00003453 	.word	0x00003453
2000849c:	00003443 	.word	0x00003443

200084a0 <stdio_usb>:
200084a0:	10007251 00000000 100071c1 00000000     Qr.......q......
200084b0:	00000100                                ....

200084b4 <ep_dir_string>:
200084b4:	1000be38 1000be3c                       8...<...

200084bc <_usbd_qdef>:
200084bc:	20019254 000c0010 ffe00000 0000001f     T.. ............
	...

200084e0 <print_mutex>:
	...

200084e8 <__mutex_array_end>:
200084e8:	10006cf5 	.word	0x10006cf5
200084ec:	10005e51 	.word	0x10005e51
200084f0:	10006561 	.word	0x10006561
200084f4:	10006bc5 	.word	0x10006bc5

200084f8 <__frame_dummy_init_array_entry>:
200084f8:	10000339 10009c09                       9.......
